(lp0
(i__main__
Team
p1
(dp2
S'trainer'
p3
NsS'gdp'
p4
I41432
sS'name'
p5
S'Serbia'
p6
sS'power'
p7
F150.42432
sS'regularPower'
p8
I78
sS'matchDraw'
p9
I1
sS'rank'
p10
I37
sS'matchWon'
p11
I3
sS'regular'
p12
(lp13
(i__main__
Player
p14
(dp15
S'stats'
p16
(dp17
S'dribbling'
p18
NsS'overall'
p19
I83
sS'pace'
p20
NsS'defending'
p21
NsS'phisichal'
p22
NsS'passing'
p23
NsS'shooting'
p24
Nssg5
S'N. Mati\xc4\x87'
p25
sS'age'
p26
I28
sg12
NsS'nAccidents'
p27
NsS'team'
p28
S'Serbia'
p29
sS'position'
p30
Nsba(i__main__
Player
p31
(dp32
g16
(dp33
g18
Nsg19
I82
sg20
Nsg21
Nsg22
Nsg23
Nsg24
Nssg5
S'B. Ivanovi\xc4\x87'
p34
sg26
I33
sg12
Nsg27
Nsg28
S'Serbia'
p35
sg30
Nsba(i__main__
Player
p36
(dp37
g16
(dp38
g18
Nsg19
I80
sg20
Nsg21
Nsg22
Nsg23
Nsg24
Nssg5
S'S. Milinkovi\xc4\x87-Savi\xc4\x87'
p39
sg26
I22
sg12
Nsg27
Nsg28
S'Serbia'
p40
sg30
Nsba(i__main__
Player
p41
(dp42
g16
(dp43
g18
Nsg19
I80
sg20
Nsg21
Nsg22
Nsg23
Nsg24
Nssg5
S'D. Tadi\xc4\x87'
p44
sg26
I28
sg12
Nsg27
Nsg28
S'Serbia'
p45
sg30
Nsba(i__main__
Player
p46
(dp47
g16
(dp48
g18
Nsg19
I79
sg20
Nsg21
Nsg22
Nsg23
Nsg24
Nssg5
S'A. Ljaji\xc4\x87'
p49
sg26
I25
sg12
Nsg27
Nsg28
S'Serbia'
p50
sg30
Nsba(i__main__
Player
p51
(dp52
g16
(dp53
g18
Nsg19
I78
sg20
Nsg21
Nsg22
Nsg23
Nsg24
Nssg5
S'F. Kosti\xc4\x87'
p54
sg26
I24
sg12
Nsg27
Nsg28
S'Serbia'
p55
sg30
Nsba(i__main__
Player
p56
(dp57
g16
(dp58
g18
Nsg19
I78
sg20
Nsg21
Nsg22
Nsg23
Nsg24
Nssg5
S'F. Kosti\xc4\x87'
p59
sg26
I24
sg12
Nsg27
Nsg28
S'Serbia'
p60
sg30
Nsba(i__main__
Player
p61
(dp62
g16
(dp63
g18
Nsg19
I77
sg20
Nsg21
Nsg22
Nsg23
Nsg24
Nssg5
S'A. Rukavina'
p64
sg26
I33
sg12
Nsg27
Nsg28
S'Serbia'
p65
sg30
Nsba(i__main__
Player
p66
(dp67
g16
(dp68
g18
Nsg19
I77
sg20
Nsg21
Nsg22
Nsg23
Nsg24
Nssg5
S'A. \xc5\xbdivkovi\xc4\x87'
p69
sg26
I20
sg12
Nsg27
Nsg28
S'Serbia'
p70
sg30
Nsba(i__main__
Player
p71
(dp72
g16
(dp73
g18
Nsg19
I77
sg20
Nsg21
Nsg22
Nsg23
Nsg24
Nssg5
S'L. Milivojevi\xc4\x87'
p74
sg26
I26
sg12
Nsg27
Nsg28
S'Serbia'
p75
sg30
Nsba(i__main__
Player
p76
(dp77
g16
(dp78
g18
Nsg19
I75
sg20
Nsg21
Nsg22
Nsg23
Nsg24
Nssg5
S'S. Rajkovi\xc4\x87'
p79
sg26
I28
sg12
Nsg27
Nsg28
S'Serbia'
p80
sg30
NsbasS'reservePower'
p81
I72
sS'reserve'
p82
(lp83
(i__main__
Player
p84
(dp85
g16
(dp86
g18
Nsg19
I75
sg20
Nsg21
Nsg22
Nsg23
Nsg24
Nssg5
S'A. Mitrovi\xc4\x87'
p87
sg26
I22
sg12
Nsg27
Nsg28
S'Serbia'
p88
sg30
Nsba(i__main__
Player
p89
(dp90
g16
(dp91
g18
Nsg19
I74
sg20
Nsg21
Nsg22
Nsg23
Nsg24
Nssg5
S'A. Prijovi\xc4\x87'
p92
sg26
I27
sg12
Nsg27
Nsg28
S'Serbia'
p93
sg30
Nsba(i__main__
Player
p94
(dp95
g16
(dp96
g18
Nsg19
I74
sg20
Nsg21
Nsg22
Nsg23
Nsg24
Nssg5
S'M. Dmitrovi\xc4\x87'
p97
sg26
I25
sg12
Nsg27
Nsg28
S'Serbia'
p98
sg30
Nsba(i__main__
Player
p99
(dp100
g16
(dp101
g18
Nsg19
I74
sg20
Nsg21
Nsg22
Nsg23
Nsg24
Nssg5
S'D. To\xc5\xa1i\xc4\x87'
p102
sg26
I32
sg12
Nsg27
Nsg28
S'Serbia'
p103
sg30
Nsba(i__main__
Player
p104
(dp105
g16
(dp106
g18
Nsg19
I73
sg20
Nsg21
Nsg22
Nsg23
Nsg24
Nssg5
S'U. Spaji\xc4\x87'
p107
sg26
I24
sg12
Nsg27
Nsg28
S'Serbia'
p108
sg30
Nsba(i__main__
Player
p109
(dp110
g16
(dp111
g18
Nsg19
I73
sg20
Nsg21
Nsg22
Nsg23
Nsg24
Nssg5
S'S. Mitrovi\xc4\x87'
p112
sg26
I27
sg12
Nsg27
Nsg28
S'Serbia'
p113
sg30
Nsba(i__main__
Player
p114
(dp115
g16
(dp116
g18
Nsg19
I73
sg20
Nsg21
Nsg22
Nsg23
Nsg24
Nssg5
S'M. Veljkovi\xc4\x87'
p117
sg26
I21
sg12
Nsg27
Nsg28
S'Serbia'
p118
sg30
Nsba(i__main__
Player
p119
(dp120
g16
(dp121
g18
Nsg19
I71
sg20
Nsg21
Nsg22
Nsg23
Nsg24
Nssg5
S'M. Gruji\xc4\x87'
p122
sg26
I21
sg12
Nsg27
Nsg28
S'Serbia'
p123
sg30
Nsba(i__main__
Player
p124
(dp125
g16
(dp126
g18
Nsg19
I70
sg20
Nsg21
Nsg22
Nsg23
Nsg24
Nssg5
S'N. Milenkovi\xc4\x87'
p127
sg26
I19
sg12
Nsg27
Nsg28
S'Serbia'
p128
sg30
Nsba(i__main__
Player
p129
(dp130
g16
(dp131
g18
Nsg19
I70
sg20
Nsg21
Nsg22
Nsg23
Nsg24
Nssg5
S'U. Mati\xc4\x87'
p132
sg26
I27
sg12
Nsg27
Nsg28
S'Serbia'
p133
sg30
Nsba(i__main__
Player
p134
(dp135
g16
(dp136
g18
Nsg19
I70
sg20
Nsg21
Nsg22
Nsg23
Nsg24
Nssg5
S'L. Jovi\xc4\x87'
p137
sg26
I19
sg12
Nsg27
Nsg28
S'Serbia'
p138
sg30
Nsba(i__main__
Player
p139
(dp140
g16
(dp141
g18
Nsg19
I69
sg20
Nsg21
Nsg22
Nsg23
Nsg24
Nssg5
S'V. Milinkovi\xc4\x87-Savi\xc4\x87'
p142
sg26
I20
sg12
Nsg27
Nsg28
S'Serbia'
p143
sg30
NsbasS'matchLose'
p144
I2
sS'quotation'
p145
F100.0
sba(i__main__
Team
p146
(dp147
g3
Nsg4
I4872137
sg5
S'Japan'
p148
sg7
F194.72422714285716
sg8
I76
sg9
I1
sg10
I55
sg11
I3
sg12
(lp149
(i__main__
Player
p150
(dp151
g16
(dp152
g18
Nsg19
I83
sg20
Nsg21
Nsg22
Nsg23
Nsg24
Nssg5
S'S. Kagawa'
p153
sg26
I28
sg12
Nsg27
Nsg28
S'Japan'
p154
sg30
Nsba(i__main__
Player
p155
(dp156
g16
(dp157
g18
Nsg19
I78
sg20
Nsg21
Nsg22
Nsg23
Nsg24
Nssg5
S'T. Inui'
p158
sg26
I29
sg12
Nsg27
Nsg28
S'Japan'
p159
sg30
Nsba(i__main__
Player
p160
(dp161
g16
(dp162
g18
Nsg19
I78
sg20
Nsg21
Nsg22
Nsg23
Nsg24
Nssg5
S'K. Honda'
p163
sg26
I31
sg12
Nsg27
Nsg28
S'Japan'
p164
sg30
Nsba(i__main__
Player
p165
(dp166
g16
(dp167
g18
Nsg19
I77
sg20
Nsg21
Nsg22
Nsg23
Nsg24
Nssg5
S'S. Okazaki'
p168
sg26
I31
sg12
Nsg27
Nsg28
S'Japan'
p169
sg30
Nsba(i__main__
Player
p170
(dp171
g16
(dp172
g18
Nsg19
I75
sg20
Nsg21
Nsg22
Nsg23
Nsg24
Nssg5
S'G. Haraguchi'
p173
sg26
I26
sg12
Nsg27
Nsg28
S'Japan'
p174
sg30
Nsba(i__main__
Player
p175
(dp176
g16
(dp177
g18
Nsg19
I75
sg20
Nsg21
Nsg22
Nsg23
Nsg24
Nssg5
S'H. Sakai'
p178
sg26
I27
sg12
Nsg27
Nsg28
S'Japan'
p179
sg30
Nsba(i__main__
Player
p180
(dp181
g16
(dp182
g18
Nsg19
I75
sg20
Nsg21
Nsg22
Nsg23
Nsg24
Nssg5
S'M. Yoshida'
p183
sg26
I28
sg12
Nsg27
Nsg28
S'Japan'
p184
sg30
Nsba(i__main__
Player
p185
(dp186
g16
(dp187
g18
Nsg19
I75
sg20
Nsg21
Nsg22
Nsg23
Nsg24
Nssg5
S'G. Shibasaki'
p188
sg26
I25
sg12
Nsg27
Nsg28
S'Japan'
p189
sg30
Nsba(i__main__
Player
p190
(dp191
g16
(dp192
g18
Nsg19
I74
sg20
Nsg21
Nsg22
Nsg23
Nsg24
Nssg5
S'G. Sakai'
p193
sg26
I26
sg12
Nsg27
Nsg28
S'Japan'
p194
sg30
Nsba(i__main__
Player
p195
(dp196
g16
(dp197
g18
Nsg19
I74
sg20
Nsg21
Nsg22
Nsg23
Nsg24
Nssg5
S'T. Usami'
p198
sg26
I25
sg12
Nsg27
Nsg28
S'Japan'
p199
sg30
Nsba(i__main__
Player
p200
(dp201
g16
(dp202
g18
Nsg19
I73
sg20
Nsg21
Nsg22
Nsg23
Nsg24
Nssg5
S'K. Nakamura'
p203
sg26
I36
sg12
Nsg27
Nsg28
S'Japan'
p204
sg30
Nsbasg81
I70
sg82
(lp205
(i__main__
Player
p206
(dp207
g16
(dp208
g18
Nsg19
I73
sg20
Nsg21
Nsg22
Nsg23
Nsg24
Nssg5
S'Y. Nagatomo'
p209
sg26
I30
sg12
Nsg27
Nsg28
S'Japan'
p210
sg30
Nsba(i__main__
Player
p211
(dp212
g16
(dp213
g18
Nsg19
I73
sg20
Nsg21
Nsg22
Nsg23
Nsg24
Nssg5
S'G. Shoji'
p214
sg26
I24
sg12
Nsg27
Nsg28
S'Japan'
p215
sg30
Nsba(i__main__
Player
p216
(dp217
g16
(dp218
g18
Nsg19
I72
sg20
Nsg21
Nsg22
Nsg23
Nsg24
Nssg5
S'E. Kawashima'
p219
sg26
I34
sg12
Nsg27
Nsg28
S'Japan'
p220
sg30
Nsba(i__main__
Player
p221
(dp222
g16
(dp223
g18
Nsg19
I72
sg20
Nsg21
Nsg22
Nsg23
Nsg24
Nssg5
S'Y. Endo'
p224
sg26
I37
sg12
Nsg27
Nsg28
S'Japan'
p225
sg30
Nsba(i__main__
Player
p226
(dp227
g16
(dp228
g18
Nsg19
I72
sg20
Nsg21
Nsg22
Nsg23
Nsg24
Nssg5
S'M. Higashiguchi'
p229
sg26
I31
sg12
Nsg27
Nsg28
S'Japan'
p230
sg30
Nsba(i__main__
Player
p231
(dp232
g16
(dp233
g18
Nsg19
I71
sg20
Nsg21
Nsg22
Nsg23
Nsg24
Nssg5
S'S. Nakamura'
p234
sg26
I39
sg12
Nsg27
Nsg28
S'Japan'
p235
sg30
Nsba(i__main__
Player
p236
(dp237
g16
(dp238
g18
Nsg19
I70
sg20
Nsg21
Nsg22
Nsg23
Nsg24
Nssg5
S'H. Yamaguchi'
p239
sg26
I26
sg12
Nsg27
Nsg28
S'Japan'
p240
sg30
Nsba(i__main__
Player
p241
(dp242
g16
(dp243
g18
Nsg19
I70
sg20
Nsg21
Nsg22
Nsg23
Nsg24
Nssg5
S'N. Ueda'
p244
sg26
I22
sg12
Nsg27
Nsg28
S'Japan'
p245
sg30
Nsba(i__main__
Player
p246
(dp247
g16
(dp248
g18
Nsg19
I70
sg20
Nsg21
Nsg22
Nsg23
Nsg24
Nssg5
S'K. Shibasaki'
p249
sg26
I32
sg12
Nsg27
Nsg28
S'Japan'
p250
sg30
Nsba(i__main__
Player
p251
(dp252
g16
(dp253
g18
Nsg19
I69
sg20
Nsg21
Nsg22
Nsg23
Nsg24
Nssg5
S'W. Endo'
p254
sg26
I24
sg12
Nsg27
Nsg28
S'Japan'
p255
sg30
Nsba(i__main__
Player
p256
(dp257
g16
(dp258
g18
Nsg19
I69
sg20
Nsg21
Nsg22
Nsg23
Nsg24
Nssg5
S'T. Makino'
p259
sg26
I30
sg12
Nsg27
Nsg28
S'Japan'
p260
sg30
Nsba(i__main__
Player
p261
(dp262
g16
(dp263
g18
Nsg19
I69
sg20
Nsg21
Nsg22
Nsg23
Nsg24
Nssg5
S'K. Nakamura'
p264
sg26
I22
sg12
Nsg27
Nsg28
S'Japan'
p265
sg30
Nsbasg144
I2
sg145
F350.0
sba(i__main__
Team
p266
(dp267
g3
Nsg4
I2055506
sg5
S'Brazil'
p268
sg7
F184.7455361904762
sg8
I85
sg9
I1
sg10
I2
sg11
I3
sg12
(lp269
(i__main__
Player
p270
(dp271
g16
(dp272
g18
Nsg19
I92
sg20
Nsg21
Nsg22
Nsg23
Nsg24
Nssg5
S'Neymar'
p273
sg26
I25
sg12
Nsg27
Nsg28
S'Brazil'
p274
sg30
Nsba(i__main__
Player
p275
(dp276
g16
(dp277
g18
Nsg19
I88
sg20
Nsg21
Nsg22
Nsg23
Nsg24
Nssg5
S'Thiago Silva'
p278
sg26
I32
sg12
Nsg27
Nsg28
S'Brazil'
p279
sg30
Nsba(i__main__
Player
p280
(dp281
g16
(dp282
g18
Nsg19
I86
sg20
Nsg21
Nsg22
Nsg23
Nsg24
Nssg5
S'Coutinho'
p283
sg26
I25
sg12
Nsg27
Nsg28
S'Brazil'
p284
sg30
Nsba(i__main__
Player
p285
(dp286
g16
(dp287
g18
Nsg19
I86
sg20
Nsg21
Nsg22
Nsg23
Nsg24
Nssg5
S'Miranda'
p288
sg26
I32
sg12
Nsg27
Nsg28
S'Brazil'
p289
sg30
Nsba(i__main__
Player
p290
(dp291
g16
(dp292
g18
Nsg19
I85
sg20
Nsg21
Nsg22
Nsg23
Nsg24
Nssg5
S'Casemiro'
p293
sg26
I25
sg12
Nsg27
Nsg28
S'Brazil'
p294
sg30
Nsba(i__main__
Player
p295
(dp296
g16
(dp297
g18
Nsg19
I85
sg20
Nsg21
Nsg22
Nsg23
Nsg24
Nssg5
S'Filipe Lu\xc3\xads'
p298
sg26
I31
sg12
Nsg27
Nsg28
S'Brazil'
p299
sg30
Nsba(i__main__
Player
p300
(dp301
g16
(dp302
g18
Nsg19
I84
sg20
Nsg21
Nsg22
Nsg23
Nsg24
Nssg5
S'Willian'
p303
sg26
I28
sg12
Nsg27
Nsg28
S'Brazil'
p304
sg30
Nsba(i__main__
Player
p305
(dp306
g16
(dp307
g18
Nsg19
I83
sg20
Nsg21
Nsg22
Nsg23
Nsg24
Nssg5
S'Ederson'
p308
sg26
I23
sg12
Nsg27
Nsg28
S'Brazil'
p309
sg30
Nsba(i__main__
Player
p310
(dp311
g16
(dp312
g18
Nsg19
I83
sg20
Nsg21
Nsg22
Nsg23
Nsg24
Nssg5
S'Marquinhos'
p313
sg26
I23
sg12
Nsg27
Nsg28
S'Brazil'
p314
sg30
Nsba(i__main__
Player
p315
(dp316
g16
(dp317
g18
Nsg19
I83
sg20
Nsg21
Nsg22
Nsg23
Nsg24
Nssg5
S'Roberto Firmino'
p318
sg26
I25
sg12
Nsg27
Nsg28
S'Brazil'
p319
sg30
Nsba(i__main__
Player
p320
(dp321
g16
(dp322
g18
Nsg19
I82
sg20
Nsg21
Nsg22
Nsg23
Nsg24
Nssg5
S'Douglas Costa'
p323
sg26
I26
sg12
Nsg27
Nsg28
S'Brazil'
p324
sg30
Nsbasg81
I79
sg82
(lp325
(i__main__
Player
p326
(dp327
g16
(dp328
g18
Nsg19
I82
sg20
Nsg21
Nsg22
Nsg23
Nsg24
Nssg5
S'Taison'
p329
sg26
I29
sg12
Nsg27
Nsg28
S'Brazil'
p330
sg30
Nsba(i__main__
Player
p331
(dp332
g16
(dp333
g18
Nsg19
I82
sg20
Nsg21
Nsg22
Nsg23
Nsg24
Nssg5
S'Fernandinho'
p334
sg26
I32
sg12
Nsg27
Nsg28
S'Brazil'
p335
sg30
Nsba(i__main__
Player
p336
(dp337
g16
(dp338
g18
Nsg19
I81
sg20
Nsg21
Nsg22
Nsg23
Nsg24
Nssg5
S'Gabriel Jesus'
p339
sg26
I20
sg12
Nsg27
Nsg28
S'Brazil'
p340
sg30
Nsba(i__main__
Player
p341
(dp342
g16
(dp343
g18
Nsg19
I81
sg20
Nsg21
Nsg22
Nsg23
Nsg24
Nssg5
S'Paulinho'
p344
sg26
I28
sg12
Nsg27
Nsg28
S'Brazil'
p345
sg30
Nsba(i__main__
Player
p346
(dp347
g16
(dp348
g18
Nsg19
I80
sg20
Nsg21
Nsg22
Nsg23
Nsg24
Nssg5
S'Alisson'
p349
sg26
I24
sg12
Nsg27
Nsg28
S'Brazil'
p350
sg30
Nsba(i__main__
Player
p351
(dp352
g16
(dp353
g18
Nsg19
I80
sg20
Nsg21
Nsg22
Nsg23
Nsg24
Nssg5
S'Fred'
p354
sg26
I24
sg12
Nsg27
Nsg28
S'Brazil'
p355
sg30
Nsba(i__main__
Player
p356
(dp357
g16
(dp358
g18
Nsg19
I80
sg20
Nsg21
Nsg22
Nsg23
Nsg24
Nssg5
S'Renato Augusto'
p359
sg26
I29
sg12
Nsg27
Nsg28
S'Brazil'
p360
sg30
Nsba(i__main__
Player
p361
(dp362
g16
(dp363
g18
Nsg19
I79
sg20
Nsg21
Nsg22
Nsg23
Nsg24
Nssg5
S'Danilo'
p364
sg26
I33
sg12
Nsg27
Nsg28
S'Brazil'
p365
sg30
Nsba(i__main__
Player
p366
(dp367
g16
(dp368
g18
Nsg19
I78
sg20
Nsg21
Nsg22
Nsg23
Nsg24
Nssg5
S'Danilo'
p369
sg26
I25
sg12
Nsg27
Nsg28
S'Brazil'
p370
sg30
Nsba(i__main__
Player
p371
(dp372
g16
(dp373
g18
Nsg19
I78
sg20
Nsg21
Nsg22
Nsg23
Nsg24
Nssg5
S'Danilo'
p374
sg26
I25
sg12
Nsg27
Nsg28
S'Brazil'
p375
sg30
Nsba(i__main__
Player
p376
(dp377
g16
(dp378
g18
Nsg19
I77
sg20
Nsg21
Nsg22
Nsg23
Nsg24
Nssg5
S'Juan Jesus'
p379
sg26
I26
sg12
Nsg27
Nsg28
S'Brazil'
p380
sg30
Nsba(i__main__
Player
p381
(dp382
g16
(dp383
g18
Nsg19
I75
sg20
Nsg21
Nsg22
Nsg23
Nsg24
Nssg5
S'C\xc3\xa1ssio'
p384
sg26
I36
sg12
Nsg27
Nsg28
S'Brazil'
p385
sg30
Nsbasg144
I2
sg145
F5.25
sba(i__main__
Team
p386
(dp387
g3
Nsg4
I538040
sg5
S'Sweden'
p388
sg7
F155.3854
sg8
I77
sg9
I1
sg10
I18
sg11
I3
sg12
(lp389
(i__main__
Player
p390
(dp391
g16
(dp392
g18
Nsg19
I83
sg20
Nsg21
Nsg22
Nsg23
Nsg24
Nssg5
S'E. Forsberg'
p393
sg26
I25
sg12
Nsg27
Nsg28
S'Sweden'
p394
sg30
Nsba(i__main__
Player
p395
(dp396
g16
(dp397
g18
Nsg19
I80
sg20
Nsg21
Nsg22
Nsg23
Nsg24
Nssg5
S'M. Berg'
p398
sg26
I30
sg12
Nsg27
Nsg28
S'Sweden'
p399
sg30
Nsba(i__main__
Player
p400
(dp401
g16
(dp402
g18
Nsg19
I79
sg20
Nsg21
Nsg22
Nsg23
Nsg24
Nssg5
S'V. Lindel\xc3\xb6f'
p403
sg26
I22
sg12
Nsg27
Nsg28
S'Sweden'
p404
sg30
Nsba(i__main__
Player
p405
(dp406
g16
(dp407
g18
Nsg19
I78
sg20
Nsg21
Nsg22
Nsg23
Nsg24
Nssg5
S'J. Guidetti'
p408
sg26
I25
sg12
Nsg27
Nsg28
S'Sweden'
p409
sg30
Nsba(i__main__
Player
p410
(dp411
g16
(dp412
g18
Nsg19
I78
sg20
Nsg21
Nsg22
Nsg23
Nsg24
Nssg5
S'J. Guidetti'
p413
sg26
I25
sg12
Nsg27
Nsg28
S'Sweden'
p414
sg30
Nsba(i__main__
Player
p415
(dp416
g16
(dp417
g18
Nsg19
I77
sg20
Nsg21
Nsg22
Nsg23
Nsg24
Nssg5
S'P. Jansson'
p418
sg26
I26
sg12
Nsg27
Nsg28
S'Sweden'
p419
sg30
Nsba(i__main__
Player
p420
(dp421
g16
(dp422
g18
Nsg19
I76
sg20
Nsg21
Nsg22
Nsg23
Nsg24
Nssg5
S'J. Olsson'
p423
sg26
I34
sg12
Nsg27
Nsg28
S'Sweden'
p424
sg30
Nsba(i__main__
Player
p425
(dp426
g16
(dp427
g18
Nsg19
I76
sg20
Nsg21
Nsg22
Nsg23
Nsg24
Nssg5
S'A. Ekdal'
p428
sg26
I27
sg12
Nsg27
Nsg28
S'Sweden'
p429
sg30
Nsba(i__main__
Player
p430
(dp431
g16
(dp432
g18
Nsg19
I76
sg20
Nsg21
Nsg22
Nsg23
Nsg24
Nssg5
S'S. Larsson'
p433
sg26
I24
sg12
Nsg27
Nsg28
S'Sweden'
p434
sg30
Nsba(i__main__
Player
p435
(dp436
g16
(dp437
g18
Nsg19
I75
sg20
Nsg21
Nsg22
Nsg23
Nsg24
Nssg5
S'J. Durmaz'
p438
sg26
I28
sg12
Nsg27
Nsg28
S'Sweden'
p439
sg30
Nsba(i__main__
Player
p440
(dp441
g16
(dp442
g18
Nsg19
I75
sg20
Nsg21
Nsg22
Nsg23
Nsg24
Nssg5
S'M. Olsson'
p443
sg26
I29
sg12
Nsg27
Nsg28
S'Sweden'
p444
sg30
Nsbasg81
I73
sg82
(lp445
(i__main__
Player
p446
(dp447
g16
(dp448
g18
Nsg19
I75
sg20
Nsg21
Nsg22
Nsg23
Nsg24
Nssg5
S'O. Toivonen'
p449
sg26
I30
sg12
Nsg27
Nsg28
S'Sweden'
p450
sg30
Nsba(i__main__
Player
p451
(dp452
g16
(dp453
g18
Nsg19
I75
sg20
Nsg21
Nsg22
Nsg23
Nsg24
Nssg5
S'K. Johnsson'
p454
sg26
I27
sg12
Nsg27
Nsg28
S'Sweden'
p455
sg30
Nsba(i__main__
Player
p456
(dp457
g16
(dp458
g18
Nsg19
I74
sg20
Nsg21
Nsg22
Nsg23
Nsg24
Nssg5
S'G. Svensson'
p459
sg26
I30
sg12
Nsg27
Nsg28
S'Sweden'
p460
sg30
Nsba(i__main__
Player
p461
(dp462
g16
(dp463
g18
Nsg19
I74
sg20
Nsg21
Nsg22
Nsg23
Nsg24
Nssg5
S'S. Larsson'
p464
sg26
I32
sg12
Nsg27
Nsg28
S'Sweden'
p465
sg30
Nsba(i__main__
Player
p466
(dp467
g16
(dp468
g18
Nsg19
I74
sg20
Nsg21
Nsg22
Nsg23
Nsg24
Nssg5
S'J. Johansson'
p469
sg26
I27
sg12
Nsg27
Nsg28
S'Sweden'
p470
sg30
Nsba(i__main__
Player
p471
(dp472
g16
(dp473
g18
Nsg19
I74
sg20
Nsg21
Nsg22
Nsg23
Nsg24
Nssg5
S'R. Olsen'
p474
sg26
I27
sg12
Nsg27
Nsg28
S'Sweden'
p475
sg30
Nsba(i__main__
Player
p476
(dp477
g16
(dp478
g18
Nsg19
I73
sg20
Nsg21
Nsg22
Nsg23
Nsg24
Nssg5
S'A. Johansson'
p479
sg26
I35
sg12
Nsg27
Nsg28
S'Sweden'
p480
sg30
Nsba(i__main__
Player
p481
(dp482
g16
(dp483
g18
Nsg19
I73
sg20
Nsg21
Nsg22
Nsg23
Nsg24
Nssg5
S'E. Krafth'
p484
sg26
I22
sg12
Nsg27
Nsg28
S'Sweden'
p485
sg30
Nsba(i__main__
Player
p486
(dp487
g16
(dp488
g18
Nsg19
I73
sg20
Nsg21
Nsg22
Nsg23
Nsg24
Nssg5
S'M. Lustig'
p489
sg26
I30
sg12
Nsg27
Nsg28
S'Sweden'
p490
sg30
Nsba(i__main__
Player
p491
(dp492
g16
(dp493
g18
Nsg19
I73
sg20
Nsg21
Nsg22
Nsg23
Nsg24
Nssg5
S'K. Nordfeldt'
p494
sg26
I28
sg12
Nsg27
Nsg28
S'Sweden'
p495
sg30
Nsba(i__main__
Player
p496
(dp497
g16
(dp498
g18
Nsg19
I73
sg20
Nsg21
Nsg22
Nsg23
Nsg24
Nssg5
S'N. Johansson'
p499
sg26
I37
sg12
Nsg27
Nsg28
S'Sweden'
p500
sg30
Nsba(i__main__
Player
p501
(dp502
g16
(dp503
g18
Nsg19
I73
sg20
Nsg21
Nsg22
Nsg23
Nsg24
Nssg5
S'O. Hiljemark'
p504
sg26
I25
sg12
Nsg27
Nsg28
S'Sweden'
p505
sg30
Nsbasg144
I2
sg145
F200.0
sba(i__main__
Team
p506
(dp507
g3
Nsg4
I3677439
sg5
S'Germany'
p508
sg7
F202.88550111111113
sg8
I86
sg9
I1
sg10
I1
sg11
I3
sg12
(lp509
(i__main__
Player
p510
(dp511
g16
(dp512
g18
Nsg19
I90
sg20
Nsg21
Nsg22
Nsg23
Nsg24
Nssg5
S'T. Kroos'
p513
sg26
I27
sg12
Nsg27
Nsg28
S'Germany'
p514
sg30
Nsba(i__main__
Player
p515
(dp516
g16
(dp517
g18
Nsg19
I88
sg20
Nsg21
Nsg22
Nsg23
Nsg24
Nssg5
S'J. Boateng'
p518
sg26
I28
sg12
Nsg27
Nsg28
S'Germany'
p519
sg30
Nsba(i__main__
Player
p520
(dp521
g16
(dp522
g18
Nsg19
I88
sg20
Nsg21
Nsg22
Nsg23
Nsg24
Nssg5
S'M. Hummels'
p523
sg26
I28
sg12
Nsg27
Nsg28
S'Germany'
p524
sg30
Nsba(i__main__
Player
p525
(dp526
g16
(dp527
g18
Nsg19
I88
sg20
Nsg21
Nsg22
Nsg23
Nsg24
Nssg5
S'M. \xc3\x96zil'
p528
sg26
I28
sg12
Nsg27
Nsg28
S'Germany'
p529
sg30
Nsba(i__main__
Player
p530
(dp531
g16
(dp532
g18
Nsg19
I86
sg20
Nsg21
Nsg22
Nsg23
Nsg24
Nssg5
S'T. M\xc3\xbcller'
p533
sg26
I27
sg12
Nsg27
Nsg28
S'Germany'
p534
sg30
Nsba(i__main__
Player
p535
(dp536
g16
(dp537
g18
Nsg19
I86
sg20
Nsg21
Nsg22
Nsg23
Nsg24
Nssg5
S'M. Reus'
p538
sg26
I28
sg12
Nsg27
Nsg28
S'Germany'
p539
sg30
Nsba(i__main__
Player
p540
(dp541
g16
(dp542
g18
Nsg19
I85
sg20
Nsg21
Nsg22
Nsg23
Nsg24
Nssg5
S'M. ter Stegen'
p543
sg26
I25
sg12
Nsg27
Nsg28
S'Germany'
p544
sg30
Nsba(i__main__
Player
p545
(dp546
g16
(dp547
g18
Nsg19
I85
sg20
Nsg21
Nsg22
Nsg23
Nsg24
Nssg5
S'I. G\xc3\xbcndo\xc4\x9fan'
p548
sg26
I26
sg12
Nsg27
Nsg28
S'Germany'
p549
sg30
Nsba(i__main__
Player
p550
(dp551
g16
(dp552
g18
Nsg19
I84
sg20
Nsg21
Nsg22
Nsg23
Nsg24
Nssg5
S'J. Draxler'
p553
sg26
I23
sg12
Nsg27
Nsg28
S'Germany'
p554
sg30
Nsba(i__main__
Player
p555
(dp556
g16
(dp557
g18
Nsg19
I84
sg20
Nsg21
Nsg22
Nsg23
Nsg24
Nssg5
S'S. Khedira'
p558
sg26
I30
sg12
Nsg27
Nsg28
S'Germany'
p559
sg30
Nsba(i__main__
Player
p560
(dp561
g16
(dp562
g18
Nsg19
I83
sg20
Nsg21
Nsg22
Nsg23
Nsg24
Nssg5
S'N. S\xc3\xbcle'
p563
sg26
I21
sg12
Nsg27
Nsg28
S'Germany'
p564
sg30
Nsbasg81
I80
sg82
(lp565
(i__main__
Player
p566
(dp567
g16
(dp568
g18
Nsg19
I82
sg20
Nsg21
Nsg22
Nsg23
Nsg24
Nssg5
S'T. Werner'
p569
sg26
I21
sg12
Nsg27
Nsg28
S'Germany'
p570
sg30
Nsba(i__main__
Player
p571
(dp572
g16
(dp573
g18
Nsg19
I82
sg20
Nsg21
Nsg22
Nsg23
Nsg24
Nssg5
S'L. Goretzka'
p574
sg26
I22
sg12
Nsg27
Nsg28
S'Germany'
p575
sg30
Nsba(i__main__
Player
p576
(dp577
g16
(dp578
g18
Nsg19
I82
sg20
Nsg21
Nsg22
Nsg23
Nsg24
Nssg5
S'A. R\xc3\xbcdiger'
p579
sg26
I24
sg12
Nsg27
Nsg28
S'Germany'
p580
sg30
Nsba(i__main__
Player
p581
(dp582
g16
(dp583
g18
Nsg19
I82
sg20
Nsg21
Nsg22
Nsg23
Nsg24
Nssg5
S'K. Trapp'
p584
sg26
I26
sg12
Nsg27
Nsg28
S'Germany'
p585
sg30
Nsba(i__main__
Player
p586
(dp587
g16
(dp588
g18
Nsg19
I82
sg20
Nsg21
Nsg22
Nsg23
Nsg24
Nssg5
S'M. G\xc3\xb3mez'
p589
sg26
I31
sg12
Nsg27
Nsg28
S'Germany'
p590
sg30
Nsba(i__main__
Player
p591
(dp592
g16
(dp593
g18
Nsg19
I81
sg20
Nsg21
Nsg22
Nsg23
Nsg24
Nssg5
S'J. Kimmich'
p594
sg26
I22
sg12
Nsg27
Nsg28
S'Germany'
p595
sg30
Nsba(i__main__
Player
p596
(dp597
g16
(dp598
g18
Nsg19
I81
sg20
Nsg21
Nsg22
Nsg23
Nsg24
Nssg5
S'S. Rudy'
p599
sg26
I27
sg12
Nsg27
Nsg28
S'Germany'
p600
sg30
Nsba(i__main__
Player
p601
(dp602
g16
(dp603
g18
Nsg19
I80
sg20
Nsg21
Nsg22
Nsg23
Nsg24
Nssg5
S'J. Brandt'
p604
sg26
I21
sg12
Nsg27
Nsg28
S'Germany'
p605
sg30
Nsba(i__main__
Player
p606
(dp607
g16
(dp608
g18
Nsg19
I80
sg20
Nsg21
Nsg22
Nsg23
Nsg24
Nssg5
S'J. Hector'
p609
sg26
I27
sg12
Nsg27
Nsg28
S'Germany'
p610
sg30
Nsba(i__main__
Player
p611
(dp612
g16
(dp613
g18
Nsg19
I78
sg20
Nsg21
Nsg22
Nsg23
Nsg24
Nssg5
S'M. Ginter'
p614
sg26
I23
sg12
Nsg27
Nsg28
S'Germany'
p615
sg30
Nsba(i__main__
Player
p616
(dp617
g16
(dp618
g18
Nsg19
I78
sg20
Nsg21
Nsg22
Nsg23
Nsg24
Nssg5
S'M. Ginter'
p619
sg26
I23
sg12
Nsg27
Nsg28
S'Germany'
p620
sg30
Nsba(i__main__
Player
p621
(dp622
g16
(dp623
g18
Nsg19
I73
sg20
Nsg21
Nsg22
Nsg23
Nsg24
Nssg5
S'F. Kroos'
p624
sg26
I26
sg12
Nsg27
Nsg28
S'Germany'
p625
sg30
Nsbasg144
I2
sg145
F9.0
sba(i__main__
Team
p626
(dp627
g3
Nsg4
I16375
sg5
S'Senegal'
p628
sg7
F150.17175
sg8
I79
sg9
I1
sg10
I23
sg11
I3
sg12
(lp629
(i__main__
Player
p630
(dp631
g16
(dp632
g18
Nsg19
I84
sg20
Nsg21
Nsg22
Nsg23
Nsg24
Nssg5
S'S. Man\xc3\xa9'
p633
sg26
I25
sg12
Nsg27
Nsg28
S'Senegal'
p634
sg30
Nsba(i__main__
Player
p635
(dp636
g16
(dp637
g18
Nsg19
I84
sg20
Nsg21
Nsg22
Nsg23
Nsg24
Nssg5
S'K. Koulibaly'
p638
sg26
I26
sg12
Nsg27
Nsg28
S'Senegal'
p639
sg30
Nsba(i__main__
Player
p640
(dp641
g16
(dp642
g18
Nsg19
I83
sg20
Nsg21
Nsg22
Nsg23
Nsg24
Nssg5
S'I. Gueye'
p643
sg26
I27
sg12
Nsg27
Nsg28
S'Senegal'
p644
sg30
Nsba(i__main__
Player
p645
(dp646
g16
(dp647
g18
Nsg19
I79
sg20
Nsg21
Nsg22
Nsg23
Nsg24
Nssg5
S'S. San\xc3\xa9'
p648
sg26
I26
sg12
Nsg27
Nsg28
S'Senegal'
p649
sg30
Nsba(i__main__
Player
p650
(dp651
g16
(dp652
g18
Nsg19
I78
sg20
Nsg21
Nsg22
Nsg23
Nsg24
Nssg5
S'K. Mbodj'
p653
sg26
I27
sg12
Nsg27
Nsg28
S'Senegal'
p654
sg30
Nsba(i__main__
Player
p655
(dp656
g16
(dp657
g18
Nsg19
I78
sg20
Nsg21
Nsg22
Nsg23
Nsg24
Nssg5
S'K. Mbodj'
p658
sg26
I27
sg12
Nsg27
Nsg28
S'Senegal'
p659
sg30
Nsba(i__main__
Player
p660
(dp661
g16
(dp662
g18
Nsg19
I78
sg20
Nsg21
Nsg22
Nsg23
Nsg24
Nssg5
S"A. N'Diaye"
p663
sg26
I27
sg12
Nsg27
Nsg28
S'Senegal'
p664
sg30
Nsba(i__main__
Player
p665
(dp666
g16
(dp667
g18
Nsg19
I77
sg20
Nsg21
Nsg22
Nsg23
Nsg24
Nssg5
S'Badou Ndiaye'
p668
sg26
I26
sg12
Nsg27
Nsg28
S'Senegal'
p669
sg30
Nsba(i__main__
Player
p670
(dp671
g16
(dp672
g18
Nsg19
I77
sg20
Nsg21
Nsg22
Nsg23
Nsg24
Nssg5
S'L. San\xc3\xa9'
p673
sg26
I30
sg12
Nsg27
Nsg28
S'Senegal'
p674
sg30
Nsba(i__main__
Player
p675
(dp676
g16
(dp677
g18
Nsg19
I77
sg20
Nsg21
Nsg22
Nsg23
Nsg24
Nssg5
S'M. Diouf'
p678
sg26
I29
sg12
Nsg27
Nsg28
S'Senegal'
p679
sg30
Nsba(i__main__
Player
p680
(dp681
g16
(dp682
g18
Nsg19
I76
sg20
Nsg21
Nsg22
Nsg23
Nsg24
Nssg5
S"C. N'Doye"
p683
sg26
I31
sg12
Nsg27
Nsg28
S'Senegal'
p684
sg30
Nsbasg81
I71
sg82
(lp685
(i__main__
Player
p686
(dp687
g16
(dp688
g18
Nsg19
I75
sg20
Nsg21
Nsg22
Nsg23
Nsg24
Nssg5
S'D. Sakho'
p689
sg26
I27
sg12
Nsg27
Nsg28
S'Senegal'
p690
sg30
Nsba(i__main__
Player
p691
(dp692
g16
(dp693
g18
Nsg19
I74
sg20
Nsg21
Nsg22
Nsg23
Nsg24
Nssg5
S'M. Konat\xc3\xa9'
p694
sg26
I24
sg12
Nsg27
Nsg28
S'Senegal'
p695
sg30
Nsba(i__main__
Player
p696
(dp697
g16
(dp698
g18
Nsg19
I73
sg20
Nsg21
Nsg22
Nsg23
Nsg24
Nssg5
S'I. Sarr'
p699
sg26
I19
sg12
Nsg27
Nsg28
S'Senegal'
p700
sg30
Nsba(i__main__
Player
p701
(dp702
g16
(dp703
g18
Nsg19
I73
sg20
Nsg21
Nsg22
Nsg23
Nsg24
Nssg5
S'A. Gomis'
p704
sg26
I23
sg12
Nsg27
Nsg28
S'Senegal'
p705
sg30
Nsba(i__main__
Player
p706
(dp707
g16
(dp708
g18
Nsg19
I72
sg20
Nsg21
Nsg22
Nsg23
Nsg24
Nssg5
S'M. Diallo'
p709
sg26
I31
sg12
Nsg27
Nsg28
S'Senegal'
p710
sg30
Nsba(i__main__
Player
p711
(dp712
g16
(dp713
g18
Nsg19
I71
sg20
Nsg21
Nsg22
Nsg23
Nsg24
Nssg5
S'B. Sarr'
p714
sg26
I26
sg12
Nsg27
Nsg28
S'Senegal'
p715
sg30
Nsba(i__main__
Player
p716
(dp717
g16
(dp718
g18
Nsg19
I71
sg20
Nsg21
Nsg22
Nsg23
Nsg24
Nssg5
S'P. San\xc3\xa9'
p719
sg26
I25
sg12
Nsg27
Nsg28
S'Senegal'
p720
sg30
Nsba(i__main__
Player
p721
(dp722
g16
(dp723
g18
Nsg19
I71
sg20
Nsg21
Nsg22
Nsg23
Nsg24
Nssg5
S"D. N'Doye"
p724
sg26
I32
sg12
Nsg27
Nsg28
S'Senegal'
p725
sg30
Nsba(i__main__
Player
p726
(dp727
g16
(dp728
g18
Nsg19
I71
sg20
Nsg21
Nsg22
Nsg23
Nsg24
Nssg5
S'I. Sarr'
p729
sg26
I30
sg12
Nsg27
Nsg28
S'Senegal'
p730
sg30
Nsba(i__main__
Player
p731
(dp732
g16
(dp733
g18
Nsg19
I70
sg20
Nsg21
Nsg22
Nsg23
Nsg24
Nssg5
S'A. Diallo'
p734
sg26
I25
sg12
Nsg27
Nsg28
S'Senegal'
p735
sg30
Nsba(i__main__
Player
p736
(dp737
g16
(dp738
g18
Nsg19
I70
sg20
Nsg21
Nsg22
Nsg23
Nsg24
Nssg5
S'V. San\xc3\xa9'
p739
sg26
I27
sg12
Nsg27
Nsg28
S'Senegal'
p740
sg30
Nsba(i__main__
Player
p741
(dp742
g16
(dp743
g18
Nsg19
I68
sg20
Nsg21
Nsg22
Nsg23
Nsg24
Nssg5
S'A. Mbengue'
p744
sg26
I25
sg12
Nsg27
Nsg28
S'Senegal'
p745
sg30
Nsbasg144
I2
sg145
F125.0
sba(i__main__
Team
p746
(dp747
g3
Nsg4
I1530751
sg5
S'South Korea'
p748
sg7
F145.30884333333333
sg8
I65
sg9
I1
sg10
I59
sg11
I3
sg12
(lp749
(i__main__
Player
p750
(dp751
g16
(dp752
g18
Nsg19
I65
sg20
Nsg21
Nsg22
Nsg23
Nsg24
Nssg5
S'Dummy boy'
p753
sg26
I25
sg12
Nsg27
Nsg28
g748
sg30
Nsba(i__main__
Player
p754
(dp755
g16
(dp756
g18
Nsg19
I65
sg20
Nsg21
Nsg22
Nsg23
Nsg24
Nssg5
S'Almost a dummy boy'
p757
sg26
I25
sg12
Nsg27
Nsg28
g748
sg30
Nsba(i__main__
Player
p758
(dp759
g16
(dp760
g18
Nsg19
I65
sg20
Nsg21
Nsg22
Nsg23
Nsg24
Nssg5
g757
sg26
I25
sg12
Nsg27
Nsg28
g748
sg30
Nsba(i__main__
Player
p761
(dp762
g16
(dp763
g18
Nsg19
I65
sg20
Nsg21
Nsg22
Nsg23
Nsg24
Nssg5
g757
sg26
I25
sg12
Nsg27
Nsg28
g748
sg30
Nsba(i__main__
Player
p764
(dp765
g16
(dp766
g18
Nsg19
I65
sg20
Nsg21
Nsg22
Nsg23
Nsg24
Nssg5
g757
sg26
I25
sg12
Nsg27
Nsg28
g748
sg30
Nsba(i__main__
Player
p767
(dp768
g16
(dp769
g18
Nsg19
I65
sg20
Nsg21
Nsg22
Nsg23
Nsg24
Nssg5
g757
sg26
I25
sg12
Nsg27
Nsg28
g748
sg30
Nsba(i__main__
Player
p770
(dp771
g16
(dp772
g18
Nsg19
I65
sg20
Nsg21
Nsg22
Nsg23
Nsg24
Nssg5
g757
sg26
I25
sg12
Nsg27
Nsg28
g748
sg30
Nsba(i__main__
Player
p773
(dp774
g16
(dp775
g18
Nsg19
I65
sg20
Nsg21
Nsg22
Nsg23
Nsg24
Nssg5
g757
sg26
I25
sg12
Nsg27
Nsg28
g748
sg30
Nsba(i__main__
Player
p776
(dp777
g16
(dp778
g18
Nsg19
I65
sg20
Nsg21
Nsg22
Nsg23
Nsg24
Nssg5
g757
sg26
I25
sg12
Nsg27
Nsg28
g748
sg30
Nsba(i__main__
Player
p779
(dp780
g16
(dp781
g18
Nsg19
I65
sg20
Nsg21
Nsg22
Nsg23
Nsg24
Nssg5
g757
sg26
I25
sg12
Nsg27
Nsg28
g748
sg30
Nsba(i__main__
Player
p782
(dp783
g16
(dp784
g18
Nsg19
I65
sg20
Nsg21
Nsg22
Nsg23
Nsg24
Nssg5
g757
sg26
I25
sg12
Nsg27
Nsg28
g748
sg30
Nsbasg81
I65
sg82
(lp785
(i__main__
Player
p786
(dp787
g16
(dp788
g18
Nsg19
I65
sg20
Nsg21
Nsg22
Nsg23
Nsg24
Nssg5
g757
sg26
I25
sg12
Nsg27
Nsg28
g748
sg30
Nsba(i__main__
Player
p789
(dp790
g16
(dp791
g18
Nsg19
I65
sg20
Nsg21
Nsg22
Nsg23
Nsg24
Nssg5
g757
sg26
I25
sg12
Nsg27
Nsg28
g748
sg30
Nsba(i__main__
Player
p792
(dp793
g16
(dp794
g18
Nsg19
I65
sg20
Nsg21
Nsg22
Nsg23
Nsg24
Nssg5
g757
sg26
I25
sg12
Nsg27
Nsg28
g748
sg30
Nsba(i__main__
Player
p795
(dp796
g16
(dp797
g18
Nsg19
I65
sg20
Nsg21
Nsg22
Nsg23
Nsg24
Nssg5
g757
sg26
I25
sg12
Nsg27
Nsg28
g748
sg30
Nsba(i__main__
Player
p798
(dp799
g16
(dp800
g18
Nsg19
I65
sg20
Nsg21
Nsg22
Nsg23
Nsg24
Nssg5
g757
sg26
I25
sg12
Nsg27
Nsg28
g748
sg30
Nsba(i__main__
Player
p801
(dp802
g16
(dp803
g18
Nsg19
I65
sg20
Nsg21
Nsg22
Nsg23
Nsg24
Nssg5
g757
sg26
I25
sg12
Nsg27
Nsg28
g748
sg30
Nsba(i__main__
Player
p804
(dp805
g16
(dp806
g18
Nsg19
I65
sg20
Nsg21
Nsg22
Nsg23
Nsg24
Nssg5
g757
sg26
I25
sg12
Nsg27
Nsg28
g748
sg30
Nsba(i__main__
Player
p807
(dp808
g16
(dp809
g18
Nsg19
I65
sg20
Nsg21
Nsg22
Nsg23
Nsg24
Nssg5
g757
sg26
I25
sg12
Nsg27
Nsg28
g748
sg30
Nsba(i__main__
Player
p810
(dp811
g16
(dp812
g18
Nsg19
I65
sg20
Nsg21
Nsg22
Nsg23
Nsg24
Nssg5
g757
sg26
I25
sg12
Nsg27
Nsg28
g748
sg30
Nsba(i__main__
Player
p813
(dp814
g16
(dp815
g18
Nsg19
I65
sg20
Nsg21
Nsg22
Nsg23
Nsg24
Nssg5
g757
sg26
I25
sg12
Nsg27
Nsg28
g748
sg30
Nsba(i__main__
Player
p816
(dp817
g16
(dp818
g18
Nsg19
I65
sg20
Nsg21
Nsg22
Nsg23
Nsg24
Nssg5
g757
sg26
I25
sg12
Nsg27
Nsg28
g748
sg30
Nsba(i__main__
Player
p819
(dp820
g16
(dp821
g18
Nsg19
I65
sg20
Nsg21
Nsg22
Nsg23
Nsg24
Nssg5
g757
sg26
I25
sg12
Nsg27
Nsg28
g748
sg30
Nsbasg144
I2
sg145
F750.0
sba(i__main__
Team
p822
(dp823
g3
Nsg4
I109139
sg5
S'Morocco'
p824
sg7
F148.09638999999999
sg8
I76
sg9
I1
sg10
I40
sg11
I3
sg12
(lp825
(i__main__
Player
p826
(dp827
g16
(dp828
g18
Nsg19
I81
sg20
Nsg21
Nsg22
Nsg23
Nsg24
Nssg5
S'H. Ziyech'
p829
sg26
I24
sg12
Nsg27
Nsg28
S'Morocco'
p830
sg30
Nsba(i__main__
Player
p831
(dp832
g16
(dp833
g18
Nsg19
I81
sg20
Nsg21
Nsg22
Nsg23
Nsg24
Nssg5
S'Y. Belhanda'
p834
sg26
I27
sg12
Nsg27
Nsg28
S'Morocco'
p835
sg30
Nsba(i__main__
Player
p836
(dp837
g16
(dp838
g18
Nsg19
I80
sg20
Nsg21
Nsg22
Nsg23
Nsg24
Nssg5
S'K. El Ahmadi'
p839
sg26
I32
sg12
Nsg27
Nsg28
S'Morocco'
p840
sg30
Nsba(i__main__
Player
p841
(dp842
g16
(dp843
g18
Nsg19
I79
sg20
Nsg21
Nsg22
Nsg23
Nsg24
Nssg5
S'N. Amrabat'
p844
sg26
I30
sg12
Nsg27
Nsg28
S'Morocco'
p845
sg30
Nsba(i__main__
Player
p846
(dp847
g16
(dp848
g18
Nsg19
I76
sg20
Nsg21
Nsg22
Nsg23
Nsg24
Nssg5
S'N. Dirar'
p849
sg26
I31
sg12
Nsg27
Nsg28
S'Morocco'
p850
sg30
Nsba(i__main__
Player
p851
(dp852
g16
(dp853
g18
Nsg19
I76
sg20
Nsg21
Nsg22
Nsg23
Nsg24
Nssg5
S'R. Sa\xc3\xafss'
p854
sg26
I27
sg12
Nsg27
Nsg28
S'Morocco'
p855
sg30
Nsba(i__main__
Player
p856
(dp857
g16
(dp858
g18
Nsg19
I75
sg20
Nsg21
Nsg22
Nsg23
Nsg24
Nssg5
S'F. Fajr'
p859
sg26
I28
sg12
Nsg27
Nsg28
S'Morocco'
p860
sg30
Nsba(i__main__
Player
p861
(dp862
g16
(dp863
g18
Nsg19
I74
sg20
Nsg21
Nsg22
Nsg23
Nsg24
Nssg5
S'S. Amrabat'
p864
sg26
I20
sg12
Nsg27
Nsg28
S'Morocco'
p865
sg30
Nsba(i__main__
Player
p866
(dp867
g16
(dp868
g18
Nsg19
I73
sg20
Nsg21
Nsg22
Nsg23
Nsg24
Nssg5
S'A. Bouhaddouz'
p869
sg26
I30
sg12
Nsg27
Nsg28
S'Morocco'
p870
sg30
Nsba(i__main__
Player
p871
(dp872
g16
(dp873
g18
Nsg19
I73
sg20
Nsg21
Nsg22
Nsg23
Nsg24
Nssg5
g757
sg26
I25
sg12
Nsg27
Nsg28
g824
sg30
Nsba(i__main__
Player
p874
(dp875
g16
(dp876
g18
Nsg19
I73
sg20
Nsg21
Nsg22
Nsg23
Nsg24
Nssg5
g757
sg26
I25
sg12
Nsg27
Nsg28
g824
sg30
Nsbasg81
I71
sg82
(lp877
(i__main__
Player
p878
(dp879
g16
(dp880
g18
Nsg19
I73
sg20
Nsg21
Nsg22
Nsg23
Nsg24
Nssg5
g757
sg26
I25
sg12
Nsg27
Nsg28
g824
sg30
Nsba(i__main__
Player
p881
(dp882
g16
(dp883
g18
Nsg19
I73
sg20
Nsg21
Nsg22
Nsg23
Nsg24
Nssg5
g757
sg26
I25
sg12
Nsg27
Nsg28
g824
sg30
Nsba(i__main__
Player
p884
(dp885
g16
(dp886
g18
Nsg19
I73
sg20
Nsg21
Nsg22
Nsg23
Nsg24
Nssg5
g757
sg26
I25
sg12
Nsg27
Nsg28
g824
sg30
Nsba(i__main__
Player
p887
(dp888
g16
(dp889
g18
Nsg19
I73
sg20
Nsg21
Nsg22
Nsg23
Nsg24
Nssg5
g757
sg26
I25
sg12
Nsg27
Nsg28
g824
sg30
Nsba(i__main__
Player
p890
(dp891
g16
(dp892
g18
Nsg19
I72
sg20
Nsg21
Nsg22
Nsg23
Nsg24
Nssg5
S'Manuel da Costa'
p893
sg26
I31
sg12
Nsg27
Nsg28
S'Morocco'
p894
sg30
Nsba(i__main__
Player
p895
(dp896
g16
(dp897
g18
Nsg19
I72
sg20
Nsg21
Nsg22
Nsg23
Nsg24
Nssg5
S'Y. Ait Bennasser'
p898
sg26
I20
sg12
Nsg27
Nsg28
S'Morocco'
p899
sg30
Nsba(i__main__
Player
p900
(dp901
g16
(dp902
g18
Nsg19
I71
sg20
Nsg21
Nsg22
Nsg23
Nsg24
Nssg5
S'K. Bouta\xc3\xafb'
p903
sg26
I30
sg12
Nsg27
Nsg28
S'Morocco'
p904
sg30
Nsba(i__main__
Player
p905
(dp906
g16
(dp907
g18
Nsg19
I71
sg20
Nsg21
Nsg22
Nsg23
Nsg24
Nssg5
S'Y. Bounou'
p908
sg26
I26
sg12
Nsg27
Nsg28
S'Morocco'
p909
sg30
Nsba(i__main__
Player
p910
(dp911
g16
(dp912
g18
Nsg19
I71
sg20
Nsg21
Nsg22
Nsg23
Nsg24
Nssg5
S'A. Harit'
p913
sg26
I20
sg12
Nsg27
Nsg28
S'Morocco'
p914
sg30
Nsba(i__main__
Player
p915
(dp916
g16
(dp917
g18
Nsg19
I71
sg20
Nsg21
Nsg22
Nsg23
Nsg24
Nssg5
S'A. Hakimi'
p918
sg26
I18
sg12
Nsg27
Nsg28
S'Morocco'
p919
sg30
Nsba(i__main__
Player
p920
(dp921
g16
(dp922
g18
Nsg19
I69
sg20
Nsg21
Nsg22
Nsg23
Nsg24
Nssg5
S'Y. En-Nesyri'
p923
sg26
I20
sg12
Nsg27
Nsg28
S'Morocco'
p924
sg30
Nsba(i__main__
Player
p925
(dp926
g16
(dp927
g18
Nsg19
I63
sg20
Nsg21
Nsg22
Nsg23
Nsg24
Nssg5
S'H. Mendyl'
p928
sg26
I19
sg12
Nsg27
Nsg28
S'Morocco'
p929
sg30
Nsbasg144
I2
sg145
F200.0
sba(i__main__
Team
p930
(dp931
g3
Nsg4
I235369
sg5
S'Egypt'
p932
sg7
F143.36369
sg8
I73
sg9
I1
sg10
I31
sg11
I3
sg12
(lp933
(i__main__
Player
p934
(dp935
g16
(dp936
g18
Nsg19
I83
sg20
Nsg21
Nsg22
Nsg23
Nsg24
Nssg5
S'M. Salah'
p937
sg26
I25
sg12
Nsg27
Nsg28
S'Egypt'
p938
sg30
Nsba(i__main__
Player
p939
(dp940
g16
(dp941
g18
Nsg19
I77
sg20
Nsg21
Nsg22
Nsg23
Nsg24
Nssg5
S'M. Elneny'
p942
sg26
I24
sg12
Nsg27
Nsg28
S'Egypt'
p943
sg30
Nsba(i__main__
Player
p944
(dp945
g16
(dp946
g18
Nsg19
I75
sg20
Nsg21
Nsg22
Nsg23
Nsg24
Nssg5
S'Kahraba'
p947
sg26
I23
sg12
Nsg27
Nsg28
S'Egypt'
p948
sg30
Nsba(i__main__
Player
p949
(dp950
g16
(dp951
g18
Nsg19
I74
sg20
Nsg21
Nsg22
Nsg23
Nsg24
Nssg5
S'R. Sobhi'
p952
sg26
I20
sg12
Nsg27
Nsg28
S'Egypt'
p953
sg30
Nsba(i__main__
Player
p954
(dp955
g16
(dp956
g18
Nsg19
I73
sg20
Nsg21
Nsg22
Nsg23
Nsg24
Nssg5
S'A. El-Shenawy'
p957
sg26
I26
sg12
Nsg27
Nsg28
S'Egypt'
p958
sg30
Nsba(i__main__
Player
p959
(dp960
g16
(dp961
g18
Nsg19
I72
sg20
Nsg21
Nsg22
Nsg23
Nsg24
Nssg5
S'A. Elmohamady'
p962
sg26
I29
sg12
Nsg27
Nsg28
S'Egypt'
p963
sg30
Nsba(i__main__
Player
p964
(dp965
g16
(dp966
g18
Nsg19
I71
sg20
Nsg21
Nsg22
Nsg23
Nsg24
Nssg5
S'A. Warda'
p967
sg26
I23
sg12
Nsg27
Nsg28
S'Egypt'
p968
sg30
Nsba(i__main__
Player
p969
(dp970
g16
(dp971
g18
Nsg19
I71
sg20
Nsg21
Nsg22
Nsg23
Nsg24
Nssg5
g757
sg26
I26
sg12
Nsg27
Nsg28
g932
sg30
Nsba(i__main__
Player
p972
(dp973
g16
(dp974
g18
Nsg19
I71
sg20
Nsg21
Nsg22
Nsg23
Nsg24
Nssg5
g757
sg26
I26
sg12
Nsg27
Nsg28
g932
sg30
Nsba(i__main__
Player
p975
(dp976
g16
(dp977
g18
Nsg19
I71
sg20
Nsg21
Nsg22
Nsg23
Nsg24
Nssg5
g757
sg26
I26
sg12
Nsg27
Nsg28
g932
sg30
Nsba(i__main__
Player
p978
(dp979
g16
(dp980
g18
Nsg19
I71
sg20
Nsg21
Nsg22
Nsg23
Nsg24
Nssg5
g757
sg26
I26
sg12
Nsg27
Nsg28
g932
sg30
Nsbasg81
I68
sg82
(lp981
(i__main__
Player
p982
(dp983
g16
(dp984
g18
Nsg19
I71
sg20
Nsg21
Nsg22
Nsg23
Nsg24
Nssg5
g757
sg26
I26
sg12
Nsg27
Nsg28
g932
sg30
Nsba(i__main__
Player
p985
(dp986
g16
(dp987
g18
Nsg19
I71
sg20
Nsg21
Nsg22
Nsg23
Nsg24
Nssg5
g757
sg26
I26
sg12
Nsg27
Nsg28
g932
sg30
Nsba(i__main__
Player
p988
(dp989
g16
(dp990
g18
Nsg19
I71
sg20
Nsg21
Nsg22
Nsg23
Nsg24
Nssg5
g757
sg26
I26
sg12
Nsg27
Nsg28
g932
sg30
Nsba(i__main__
Player
p991
(dp992
g16
(dp993
g18
Nsg19
I71
sg20
Nsg21
Nsg22
Nsg23
Nsg24
Nssg5
g757
sg26
I26
sg12
Nsg27
Nsg28
g932
sg30
Nsba(i__main__
Player
p994
(dp995
g16
(dp996
g18
Nsg19
I70
sg20
Nsg21
Nsg22
Nsg23
Nsg24
Nssg5
S'Shikabala'
p997
sg26
I31
sg12
Nsg27
Nsg28
S'Egypt'
p998
sg30
Nsba(i__main__
Player
p999
(dp1000
g16
(dp1001
g18
Nsg19
I69
sg20
Nsg21
Nsg22
Nsg23
Nsg24
Nssg5
S'O. Gaber'
p1002
sg26
I25
sg12
Nsg27
Nsg28
S'Egypt'
p1003
sg30
Nsba(i__main__
Player
p1004
(dp1005
g16
(dp1006
g18
Nsg19
I69
sg20
Nsg21
Nsg22
Nsg23
Nsg24
Nssg5
S'S. Ekramy'
p1007
sg26
I33
sg12
Nsg27
Nsg28
S'Egypt'
p1008
sg30
Nsba(i__main__
Player
p1009
(dp1010
g16
(dp1011
g18
Nsg19
I68
sg20
Nsg21
Nsg22
Nsg23
Nsg24
Nssg5
S'S. Morsy'
p1012
sg26
I25
sg12
Nsg27
Nsg28
S'Egypt'
p1013
sg30
Nsba(i__main__
Player
p1014
(dp1015
g16
(dp1016
g18
Nsg19
I67
sg20
Nsg21
Nsg22
Nsg23
Nsg24
Nssg5
S'A. Gabr'
p1017
sg26
I30
sg12
Nsg27
Nsg28
S'Egypt'
p1018
sg30
Nsba(i__main__
Player
p1019
(dp1020
g16
(dp1021
g18
Nsg19
I66
sg20
Nsg21
Nsg22
Nsg23
Nsg24
Nssg5
S'T. Hamed'
p1022
sg26
I28
sg12
Nsg27
Nsg28
S'Egypt'
p1023
sg30
Nsba(i__main__
Player
p1024
(dp1025
g16
(dp1026
g18
Nsg19
I66
sg20
Nsg21
Nsg22
Nsg23
Nsg24
Nssg5
S'I. Salah'
p1027
sg26
I30
sg12
Nsg27
Nsg28
S'Egypt'
p1028
sg30
Nsba(i__main__
Player
p1029
(dp1030
g16
(dp1031
g18
Nsg19
I65
sg20
Nsg21
Nsg22
Nsg23
Nsg24
Nssg5
S'M. Mohsen'
p1032
sg26
I28
sg12
Nsg27
Nsg28
S'Egypt'
p1033
sg30
Nsbasg144
I2
sg145
F100.0
sba(i__main__
Team
p1034
(dp1035
g3
Nsg4
I1323421
sg5
S'Australia'
p1036
sg7
F151.23521
sg8
I73
sg9
I1
sg10
I39
sg11
I3
sg12
(lp1037
(i__main__
Player
p1038
(dp1039
g16
(dp1040
g18
Nsg19
I77
sg20
Nsg21
Nsg22
Nsg23
Nsg24
Nssg5
S'M. Ryan'
p1041
sg26
I25
sg12
Nsg27
Nsg28
S'Australia'
p1042
sg30
Nsba(i__main__
Player
p1043
(dp1044
g16
(dp1045
g18
Nsg19
I77
sg20
Nsg21
Nsg22
Nsg23
Nsg24
Nssg5
S'B. Jones'
p1046
sg26
I35
sg12
Nsg27
Nsg28
S'Australia'
p1047
sg30
Nsba(i__main__
Player
p1048
(dp1049
g16
(dp1050
g18
Nsg19
I77
sg20
Nsg21
Nsg22
Nsg23
Nsg24
Nssg5
S'A. Mooy'
p1051
sg26
I26
sg12
Nsg27
Nsg28
S'Australia'
p1052
sg30
Nsba(i__main__
Player
p1053
(dp1054
g16
(dp1055
g18
Nsg19
I74
sg20
Nsg21
Nsg22
Nsg23
Nsg24
Nssg5
S'T. Sainsbury'
p1056
sg26
I25
sg12
Nsg27
Nsg28
S'Australia'
p1057
sg30
Nsba(i__main__
Player
p1058
(dp1059
g16
(dp1060
g18
Nsg19
I74
sg20
Nsg21
Nsg22
Nsg23
Nsg24
Nssg5
S'M. Milligan'
p1061
sg26
I31
sg12
Nsg27
Nsg28
S'Australia'
p1062
sg30
Nsba(i__main__
Player
p1063
(dp1064
g16
(dp1065
g18
Nsg19
I73
sg20
Nsg21
Nsg22
Nsg23
Nsg24
Nssg5
S'J. Maclaren'
p1066
sg26
I23
sg12
Nsg27
Nsg28
S'Australia'
p1067
sg30
Nsba(i__main__
Player
p1068
(dp1069
g16
(dp1070
g18
Nsg19
I73
sg20
Nsg21
Nsg22
Nsg23
Nsg24
Nssg5
S'A. Behich'
p1071
sg26
I26
sg12
Nsg27
Nsg28
S'Australia'
p1072
sg30
Nsba(i__main__
Player
p1073
(dp1074
g16
(dp1075
g18
Nsg19
I72
sg20
Nsg21
Nsg22
Nsg23
Nsg24
Nssg5
S'R. Kruse'
p1076
sg26
I28
sg12
Nsg27
Nsg28
S'Australia'
p1077
sg30
Nsba(i__main__
Player
p1078
(dp1079
g16
(dp1080
g18
Nsg19
I72
sg20
Nsg21
Nsg22
Nsg23
Nsg24
Nssg5
S'M. Leckie'
p1081
sg26
I26
sg12
Nsg27
Nsg28
S'Australia'
p1082
sg30
Nsba(i__main__
Player
p1083
(dp1084
g16
(dp1085
g18
Nsg19
I71
sg20
Nsg21
Nsg22
Nsg23
Nsg24
Nssg5
S'M. Luongo'
p1086
sg26
I24
sg12
Nsg27
Nsg28
S'Australia'
p1087
sg30
Nsba(i__main__
Player
p1088
(dp1089
g16
(dp1090
g18
Nsg19
I71
sg20
Nsg21
Nsg22
Nsg23
Nsg24
Nssg5
S'J. Irvine'
p1091
sg26
I24
sg12
Nsg27
Nsg28
S'Australia'
p1092
sg30
Nsbasg81
I65
sg82
(lp1093
(i__main__
Player
p1094
(dp1095
g16
(dp1096
g18
Nsg19
I70
sg20
Nsg21
Nsg22
Nsg23
Nsg24
Nssg5
S'J. Risdon'
p1097
sg26
I24
sg12
Nsg27
Nsg28
S'Australia'
p1098
sg30
Nsba(i__main__
Player
p1099
(dp1100
g16
(dp1101
g18
Nsg19
I70
sg20
Nsg21
Nsg22
Nsg23
Nsg24
Nssg5
S'M. Degenek'
p1102
sg26
I23
sg12
Nsg27
Nsg28
S'Australia'
p1103
sg30
Nsba(i__main__
Player
p1104
(dp1105
g16
(dp1106
g18
Nsg19
I70
sg20
Nsg21
Nsg22
Nsg23
Nsg24
Nssg5
S'T. Cahill'
p1107
sg26
I37
sg12
Nsg27
Nsg28
S'Australia'
p1108
sg30
Nsba(i__main__
Player
p1109
(dp1110
g16
(dp1111
g18
Nsg19
I70
sg20
Nsg21
Nsg22
Nsg23
Nsg24
Nssg5
S'D. Vukovic'
p1112
sg26
I32
sg12
Nsg27
Nsg28
S'Australia'
p1113
sg30
Nsba(i__main__
Player
p1114
(dp1115
g16
(dp1116
g18
Nsg19
I69
sg20
Nsg21
Nsg22
Nsg23
Nsg24
Nssg5
S'M. Jurman'
p1117
sg26
I27
sg12
Nsg27
Nsg28
S'Australia'
p1118
sg30
Nsba(i__main__
Player
p1119
(dp1120
g16
(dp1121
g18
Nsg19
I69
sg20
Nsg21
Nsg22
Nsg23
Nsg24
Nssg5
g757
sg26
I25
sg12
Nsg27
Nsg28
g1036
sg30
Nsba(i__main__
Player
p1122
(dp1123
g16
(dp1124
g18
Nsg19
I68
sg20
Nsg21
Nsg22
Nsg23
Nsg24
Nssg5
S'J. Meredith'
p1125
sg26
I29
sg12
Nsg27
Nsg28
S'Australia'
p1126
sg30
Nsba(i__main__
Player
p1127
(dp1128
g16
(dp1129
g18
Nsg19
I66
sg20
Nsg21
Nsg22
Nsg23
Nsg24
Nssg5
S'D. Petratos'
p1130
sg26
I24
sg12
Nsg27
Nsg28
S'Australia'
p1131
sg30
Nsba(i__main__
Player
p1132
(dp1133
g16
(dp1134
g18
Nsg19
I65
sg20
Nsg21
Nsg22
Nsg23
Nsg24
Nssg5
S'A. Nabbout'
p1135
sg26
I24
sg12
Nsg27
Nsg28
S'Australia'
p1136
sg30
Nsba(i__main__
Player
p1137
(dp1138
g16
(dp1139
g18
Nsg19
I59
sg20
Nsg21
Nsg22
Nsg23
Nsg24
Nssg5
S'D. Ryan'
p1140
sg26
I17
sg12
Nsg27
Nsg28
S'Australia'
p1141
sg30
Nsba(i__main__
Player
p1142
(dp1143
g16
(dp1144
g18
Nsg19
I58
sg20
Nsg21
Nsg22
Nsg23
Nsg24
Nssg5
S'D. Arzani'
p1145
sg26
I18
sg12
Nsg27
Nsg28
S'Australia'
p1146
sg30
Nsba(i__main__
Player
p1147
(dp1148
g16
(dp1149
g18
Nsg19
I57
sg20
Nsg21
Nsg22
Nsg23
Nsg24
Nssg5
S'K. Petratos'
p1150
sg26
I19
sg12
Nsg27
Nsg28
S'Australia'
p1151
sg30
Nsbasg144
I2
sg145
F1000.0
sba(i__main__
Team
p1152
(dp1153
g3
Nsg4
I524510
sg5
S'Poland'
p1154
sg7
F153.2501
sg8
I79
sg9
I1
sg10
I7
sg11
I3
sg12
(lp1155
(i__main__
Player
p1156
(dp1157
g16
(dp1158
g18
Nsg19
I85
sg20
Nsg21
Nsg22
Nsg23
Nsg24
Nssg5
S'K. Glik'
p1159
sg26
I29
sg12
Nsg27
Nsg28
S'Poland'
p1160
sg30
Nsba(i__main__
Player
p1161
(dp1162
g16
(dp1163
g18
Nsg19
I83
sg20
Nsg21
Nsg22
Nsg23
Nsg24
Nssg5
S'L. Piszczek'
p1164
sg26
I32
sg12
Nsg27
Nsg28
S'Poland'
p1165
sg30
Nsba(i__main__
Player
p1166
(dp1167
g16
(dp1168
g18
Nsg19
I82
sg20
Nsg21
Nsg22
Nsg23
Nsg24
Nssg5
S'W. Szcz\xc4\x99sny'
p1169
sg26
I27
sg12
Nsg27
Nsg28
S'Poland'
p1170
sg30
Nsba(i__main__
Player
p1171
(dp1172
g16
(dp1173
g18
Nsg19
I81
sg20
Nsg21
Nsg22
Nsg23
Nsg24
Nssg5
S'G. Krychowiak'
p1174
sg26
I27
sg12
Nsg27
Nsg28
S'Poland'
p1175
sg30
Nsba(i__main__
Player
p1176
(dp1177
g16
(dp1178
g18
Nsg19
I80
sg20
Nsg21
Nsg22
Nsg23
Nsg24
Nssg5
S'P. Zieli\xc5\x84ski'
p1179
sg26
I23
sg12
Nsg27
Nsg28
S'Poland'
p1180
sg30
Nsba(i__main__
Player
p1181
(dp1182
g16
(dp1183
g18
Nsg19
I80
sg20
Nsg21
Nsg22
Nsg23
Nsg24
Nssg5
S'L. Fabia\xc5\x84ski'
p1184
sg26
I32
sg12
Nsg27
Nsg28
S'Poland'
p1185
sg30
Nsba(i__main__
Player
p1186
(dp1187
g16
(dp1188
g18
Nsg19
I79
sg20
Nsg21
Nsg22
Nsg23
Nsg24
Nssg5
S'A. Milik'
p1189
sg26
I23
sg12
Nsg27
Nsg28
S'Poland'
p1190
sg30
Nsba(i__main__
Player
p1191
(dp1192
g16
(dp1193
g18
Nsg19
I78
sg20
Nsg21
Nsg22
Nsg23
Nsg24
Nssg5
S'L. Teodorczyk'
p1194
sg26
I26
sg12
Nsg27
Nsg28
S'Poland'
p1195
sg30
Nsba(i__main__
Player
p1196
(dp1197
g16
(dp1198
g18
Nsg19
I76
sg20
Nsg21
Nsg22
Nsg23
Nsg24
Nssg5
S'K. Grosicki'
p1199
sg26
I29
sg12
Nsg27
Nsg28
S'Poland'
p1200
sg30
Nsba(i__main__
Player
p1201
(dp1202
g16
(dp1203
g18
Nsg19
I76
sg20
Nsg21
Nsg22
Nsg23
Nsg24
Nssg5
S'J. B\xc5\x82aszczykowski'
p1204
sg26
I31
sg12
Nsg27
Nsg28
S'Poland'
p1205
sg30
Nsba(i__main__
Player
p1206
(dp1207
g16
(dp1208
g18
Nsg19
I76
sg20
Nsg21
Nsg22
Nsg23
Nsg24
Nssg5
S'M. Pazdan'
p1209
sg26
I29
sg12
Nsg27
Nsg28
S'Poland'
p1210
sg30
Nsbasg81
I69
sg82
(lp1211
(i__main__
Player
p1212
(dp1213
g16
(dp1214
g18
Nsg19
I75
sg20
Nsg21
Nsg22
Nsg23
Nsg24
Nssg5
S'K. Linetty'
p1215
sg26
I22
sg12
Nsg27
Nsg28
S'Poland'
p1216
sg30
Nsba(i__main__
Player
p1217
(dp1218
g16
(dp1219
g18
Nsg19
I74
sg20
Nsg21
Nsg22
Nsg23
Nsg24
Nssg5
S'B. Bia\xc5\x82kowski'
p1220
sg26
I29
sg12
Nsg27
Nsg28
S'Poland'
p1221
sg30
Nsba(i__main__
Player
p1222
(dp1223
g16
(dp1224
g18
Nsg19
I73
sg20
Nsg21
Nsg22
Nsg23
Nsg24
Nssg5
S'B. Bereszy\xc5\x84ski'
p1225
sg26
I24
sg12
Nsg27
Nsg28
S'Poland'
p1226
sg30
Nsba(i__main__
Player
p1227
(dp1228
g16
(dp1229
g18
Nsg19
I73
sg20
Nsg21
Nsg22
Nsg23
Nsg24
Nssg5
S'J. G\xc3\xb3ralski'
p1230
sg26
I24
sg12
Nsg27
Nsg28
S'Poland'
p1231
sg30
Nsba(i__main__
Player
p1232
(dp1233
g16
(dp1234
g18
Nsg19
I73
sg20
Nsg21
Nsg22
Nsg23
Nsg24
Nssg5
S'A. J\xc4\x99drzejczyk'
p1235
sg26
I29
sg12
Nsg27
Nsg28
S'Poland'
p1236
sg30
Nsba(i__main__
Player
p1237
(dp1238
g16
(dp1239
g18
Nsg19
I72
sg20
Nsg21
Nsg22
Nsg23
Nsg24
Nssg5
S'M. Rybus'
p1240
sg26
I27
sg12
Nsg27
Nsg28
S'Poland'
p1241
sg30
Nsba(i__main__
Player
p1242
(dp1243
g16
(dp1244
g18
Nsg19
I71
sg20
Nsg21
Nsg22
Nsg23
Nsg24
Nssg5
S'Thiago Cionek'
p1245
sg26
I31
sg12
Nsg27
Nsg28
S'Poland'
p1246
sg30
Nsba(i__main__
Player
p1247
(dp1248
g16
(dp1249
g18
Nsg19
I69
sg20
Nsg21
Nsg22
Nsg23
Nsg24
Nssg5
S'S. Peszko'
p1250
sg26
I32
sg12
Nsg27
Nsg28
S'Poland'
p1251
sg30
Nsba(i__main__
Player
p1252
(dp1253
g16
(dp1254
g18
Nsg19
I68
sg20
Nsg21
Nsg22
Nsg23
Nsg24
Nssg5
S'J. Bednarek'
p1255
sg26
I21
sg12
Nsg27
Nsg28
S'Poland'
p1256
sg30
Nsba(i__main__
Player
p1257
(dp1258
g16
(dp1259
g18
Nsg19
I68
sg20
Nsg21
Nsg22
Nsg23
Nsg24
Nssg5
S'D. Kownacki'
p1260
sg26
I20
sg12
Nsg27
Nsg28
S'Poland'
p1261
sg30
Nsba(i__main__
Player
p1262
(dp1263
g16
(dp1264
g18
Nsg19
I67
sg20
Nsg21
Nsg22
Nsg23
Nsg24
Nssg5
S'R. Kurzawa'
p1265
sg26
I24
sg12
Nsg27
Nsg28
S'Poland'
p1266
sg30
Nsba(i__main__
Player
p1267
(dp1268
g16
(dp1269
g18
Nsg19
I56
sg20
Nsg21
Nsg22
Nsg23
Nsg24
Nssg5
S'D. Zieli\xc5\x84ski'
p1270
sg26
I20
sg12
Nsg27
Nsg28
S'Poland'
p1271
sg30
Nsbasg144
I2
sg145
F200.0
sba(i__main__
Team
p1272
(dp1273
g3
Nsg4
I678887
sg5
S'Switzerland'
p1274
sg7
F157.79887
sg8
I79
sg9
I1
sg10
I8
sg11
I3
sg12
(lp1275
(i__main__
Player
p1276
(dp1277
g16
(dp1278
g18
Nsg19
I84
sg20
Nsg21
Nsg22
Nsg23
Nsg24
Nssg5
S'R. B\xc3\xbcrki'
p1279
sg26
I26
sg12
Nsg27
Nsg28
S'Switzerland'
p1280
sg30
Nsba(i__main__
Player
p1281
(dp1282
g16
(dp1283
g18
Nsg19
I83
sg20
Nsg21
Nsg22
Nsg23
Nsg24
Nssg5
S'Y. Sommer'
p1284
sg26
I28
sg12
Nsg27
Nsg28
S'Switzerland'
p1285
sg30
Nsba(i__main__
Player
p1286
(dp1287
g16
(dp1288
g18
Nsg19
I82
sg20
Nsg21
Nsg22
Nsg23
Nsg24
Nssg5
S'G. Xhaka'
p1289
sg26
I24
sg12
Nsg27
Nsg28
S'Switzerland'
p1290
sg30
Nsba(i__main__
Player
p1291
(dp1292
g16
(dp1293
g18
Nsg19
I82
sg20
Nsg21
Nsg22
Nsg23
Nsg24
Nssg5
S'X. Shaqiri'
p1294
sg26
I25
sg12
Nsg27
Nsg28
S'Switzerland'
p1295
sg30
Nsba(i__main__
Player
p1296
(dp1297
g16
(dp1298
g18
Nsg19
I81
sg20
Nsg21
Nsg22
Nsg23
Nsg24
Nssg5
S'R. Rodr\xc3\xadguez'
p1299
sg26
I24
sg12
Nsg27
Nsg28
S'Switzerland'
p1300
sg30
Nsba(i__main__
Player
p1301
(dp1302
g16
(dp1303
g18
Nsg19
I78
sg20
Nsg21
Nsg22
Nsg23
Nsg24
Nssg5
S'B. D\xc5\xbeemaili'
p1304
sg26
I31
sg12
Nsg27
Nsg28
S'Switzerland'
p1305
sg30
Nsba(i__main__
Player
p1306
(dp1307
g16
(dp1308
g18
Nsg19
I77
sg20
Nsg21
Nsg22
Nsg23
Nsg24
Nssg5
S'V. Behrami'
p1309
sg26
I32
sg12
Nsg27
Nsg28
S'Switzerland'
p1310
sg30
Nsba(i__main__
Player
p1311
(dp1312
g16
(dp1313
g18
Nsg19
I77
sg20
Nsg21
Nsg22
Nsg23
Nsg24
Nssg5
S'M. Lang'
p1314
sg26
I26
sg12
Nsg27
Nsg28
S'Switzerland'
p1315
sg30
Nsba(i__main__
Player
p1316
(dp1317
g16
(dp1318
g18
Nsg19
I76
sg20
Nsg21
Nsg22
Nsg23
Nsg24
Nssg5
S'B. Embolo'
p1319
sg26
I20
sg12
Nsg27
Nsg28
S'Switzerland'
p1320
sg30
Nsba(i__main__
Player
p1321
(dp1322
g16
(dp1323
g18
Nsg19
I76
sg20
Nsg21
Nsg22
Nsg23
Nsg24
Nssg5
S'Gelson Fernandes'
p1324
sg26
I30
sg12
Nsg27
Nsg28
S'Switzerland'
p1325
sg30
Nsba(i__main__
Player
p1326
(dp1327
g16
(dp1328
g18
Nsg19
I75
sg20
Nsg21
Nsg22
Nsg23
Nsg24
Nssg5
S'R. Freuler'
p1329
sg26
I25
sg12
Nsg27
Nsg28
S'Switzerland'
p1330
sg30
Nsbasg81
I72
sg82
(lp1331
(i__main__
Player
p1332
(dp1333
g16
(dp1334
g18
Nsg19
I75
sg20
Nsg21
Nsg22
Nsg23
Nsg24
Nssg5
S'S. Zuber'
p1335
sg26
I25
sg12
Nsg27
Nsg28
S'Switzerland'
p1336
sg30
Nsba(i__main__
Player
p1337
(dp1338
g16
(dp1339
g18
Nsg19
I75
sg20
Nsg21
Nsg22
Nsg23
Nsg24
Nssg5
S'F. Sch\xc3\xa4r'
p1340
sg26
I25
sg12
Nsg27
Nsg28
S'Switzerland'
p1341
sg30
Nsba(i__main__
Player
p1342
(dp1343
g16
(dp1344
g18
Nsg19
I75
sg20
Nsg21
Nsg22
Nsg23
Nsg24
Nssg5
S'Y. Mvogo'
p1345
sg26
I23
sg12
Nsg27
Nsg28
S'Switzerland'
p1346
sg30
Nsba(i__main__
Player
p1347
(dp1348
g16
(dp1349
g18
Nsg19
I74
sg20
Nsg21
Nsg22
Nsg23
Nsg24
Nssg5
S'N. Elvedi'
p1350
sg26
I20
sg12
Nsg27
Nsg28
S'Switzerland'
p1351
sg30
Nsba(i__main__
Player
p1352
(dp1353
g16
(dp1354
g18
Nsg19
I74
sg20
Nsg21
Nsg22
Nsg23
Nsg24
Nssg5
S'J. Drmi\xc4\x87'
p1355
sg26
I24
sg12
Nsg27
Nsg28
S'Switzerland'
p1356
sg30
Nsba(i__main__
Player
p1357
(dp1358
g16
(dp1359
g18
Nsg19
I74
sg20
Nsg21
Nsg22
Nsg23
Nsg24
Nssg5
S'H. Seferovi\xc4\x87'
p1360
sg26
I25
sg12
Nsg27
Nsg28
S'Switzerland'
p1361
sg30
Nsba(i__main__
Player
p1362
(dp1363
g16
(dp1364
g18
Nsg19
I74
sg20
Nsg21
Nsg22
Nsg23
Nsg24
Nssg5
S'F. Moubandje'
p1365
sg26
I27
sg12
Nsg27
Nsg28
S'Switzerland'
p1366
sg30
Nsba(i__main__
Player
p1367
(dp1368
g16
(dp1369
g18
Nsg19
I73
sg20
Nsg21
Nsg22
Nsg23
Nsg24
Nssg5
S'J. Djourou'
p1370
sg26
I30
sg12
Nsg27
Nsg28
S'Switzerland'
p1371
sg30
Nsba(i__main__
Player
p1372
(dp1373
g16
(dp1374
g18
Nsg19
I72
sg20
Nsg21
Nsg22
Nsg23
Nsg24
Nssg5
S'M. Akanji'
p1375
sg26
I21
sg12
Nsg27
Nsg28
S'Switzerland'
p1376
sg30
Nsba(i__main__
Player
p1377
(dp1378
g16
(dp1379
g18
Nsg19
I72
sg20
Nsg21
Nsg22
Nsg23
Nsg24
Nssg5
S'D. Zakaria'
p1380
sg26
I20
sg12
Nsg27
Nsg28
S'Switzerland'
p1381
sg30
Nsba(i__main__
Player
p1382
(dp1383
g16
(dp1384
g18
Nsg19
I69
sg20
Nsg21
Nsg22
Nsg23
Nsg24
Nssg5
S'E. Fernandes'
p1385
sg26
I21
sg12
Nsg27
Nsg28
S'Switzerland'
p1386
sg30
Nsba(i__main__
Player
p1387
(dp1388
g16
(dp1389
g18
Nsg19
I68
sg20
Nsg21
Nsg22
Nsg23
Nsg24
Nssg5
S'F. Rodr\xc3\xadguez'
p1390
sg26
I21
sg12
Nsg27
Nsg28
S'Switzerland'
p1391
sg30
Nsbasg144
I2
sg145
F100.0
sba(i__main__
Team
p1392
(dp1393
g3
Nsg4
I492681
sg5
S'Belgium'
p1394
sg7
F170.0379211111111
sg8
I86
sg9
I1
sg10
I5
sg11
I3
sg12
(lp1395
(i__main__
Player
p1396
(dp1397
g16
(dp1398
g18
Nsg19
I90
sg20
Nsg21
Nsg22
Nsg23
Nsg24
Nssg5
S'E. Hazard'
p1399
sg26
I26
sg12
Nsg27
Nsg28
S'Belgium'
p1400
sg30
Nsba(i__main__
Player
p1401
(dp1402
g16
(dp1403
g18
Nsg19
I89
sg20
Nsg21
Nsg22
Nsg23
Nsg24
Nssg5
S'K. De Bruyne'
p1404
sg26
I26
sg12
Nsg27
Nsg28
S'Belgium'
p1405
sg30
Nsba(i__main__
Player
p1406
(dp1407
g16
(dp1408
g18
Nsg19
I89
sg20
Nsg21
Nsg22
Nsg23
Nsg24
Nssg5
S'T. Courtois'
p1409
sg26
I25
sg12
Nsg27
Nsg28
S'Belgium'
p1410
sg30
Nsba(i__main__
Player
p1411
(dp1412
g16
(dp1413
g18
Nsg19
I86
sg20
Nsg21
Nsg22
Nsg23
Nsg24
Nssg5
S'R. Lukaku'
p1414
sg26
I24
sg12
Nsg27
Nsg28
S'Belgium'
p1415
sg30
Nsba(i__main__
Player
p1416
(dp1417
g16
(dp1418
g18
Nsg19
I86
sg20
Nsg21
Nsg22
Nsg23
Nsg24
Nssg5
S'T. Alderweireld'
p1419
sg26
I28
sg12
Nsg27
Nsg28
S'Belgium'
p1420
sg30
Nsba(i__main__
Player
p1421
(dp1422
g16
(dp1423
g18
Nsg19
I86
sg20
Nsg21
Nsg22
Nsg23
Nsg24
Nssg5
S'D. Mertens'
p1424
sg26
I30
sg12
Nsg27
Nsg28
S'Belgium'
p1425
sg30
Nsba(i__main__
Player
p1426
(dp1427
g16
(dp1428
g18
Nsg19
I85
sg20
Nsg21
Nsg22
Nsg23
Nsg24
Nssg5
S'Y. Carrasco'
p1429
sg26
I23
sg12
Nsg27
Nsg28
S'Belgium'
p1430
sg30
Nsba(i__main__
Player
p1431
(dp1432
g16
(dp1433
g18
Nsg19
I85
sg20
Nsg21
Nsg22
Nsg23
Nsg24
Nssg5
S'J. Vertonghen'
p1434
sg26
I30
sg12
Nsg27
Nsg28
S'Belgium'
p1435
sg30
Nsba(i__main__
Player
p1436
(dp1437
g16
(dp1438
g18
Nsg19
I85
sg20
Nsg21
Nsg22
Nsg23
Nsg24
Nssg5
S'V. Kompany'
p1439
sg26
I31
sg12
Nsg27
Nsg28
S'Belgium'
p1440
sg30
Nsba(i__main__
Player
p1441
(dp1442
g16
(dp1443
g18
Nsg19
I83
sg20
Nsg21
Nsg22
Nsg23
Nsg24
Nssg5
S'M. Demb\xc3\xa9l\xc3\xa9'
p1444
sg26
I29
sg12
Nsg27
Nsg28
S'Belgium'
p1445
sg30
Nsba(i__main__
Player
p1446
(dp1447
g16
(dp1448
g18
Nsg19
I82
sg20
Nsg21
Nsg22
Nsg23
Nsg24
Nssg5
S'A. Witsel'
p1449
sg26
I28
sg12
Nsg27
Nsg28
S'Belgium'
p1450
sg30
Nsbasg81
I79
sg82
(lp1451
(i__main__
Player
p1452
(dp1453
g16
(dp1454
g18
Nsg19
I81
sg20
Nsg21
Nsg22
Nsg23
Nsg24
Nssg5
S'T. Meunier'
p1455
sg26
I25
sg12
Nsg27
Nsg28
S'Belgium'
p1456
sg30
Nsba(i__main__
Player
p1457
(dp1458
g16
(dp1459
g18
Nsg19
I81
sg20
Nsg21
Nsg22
Nsg23
Nsg24
Nssg5
S'S. Mignolet'
p1460
sg26
I29
sg12
Nsg27
Nsg28
S'Belgium'
p1461
sg30
Nsba(i__main__
Player
p1462
(dp1463
g16
(dp1464
g18
Nsg19
I80
sg20
Nsg21
Nsg22
Nsg23
Nsg24
Nssg5
S'Y. Tielemans'
p1465
sg26
I20
sg12
Nsg27
Nsg28
S'Belgium'
p1466
sg30
Nsba(i__main__
Player
p1467
(dp1468
g16
(dp1469
g18
Nsg19
I80
sg20
Nsg21
Nsg22
Nsg23
Nsg24
Nssg5
S'M. Batshuayi'
p1470
sg26
I23
sg12
Nsg27
Nsg28
S'Belgium'
p1471
sg30
Nsba(i__main__
Player
p1472
(dp1473
g16
(dp1474
g18
Nsg19
I80
sg20
Nsg21
Nsg22
Nsg23
Nsg24
Nssg5
S'T. Hazard'
p1475
sg26
I24
sg12
Nsg27
Nsg28
S'Belgium'
p1476
sg30
Nsba(i__main__
Player
p1477
(dp1478
g16
(dp1479
g18
Nsg19
I79
sg20
Nsg21
Nsg22
Nsg23
Nsg24
Nssg5
S'L. Dendoncker'
p1480
sg26
I22
sg12
Nsg27
Nsg28
S'Belgium'
p1481
sg30
Nsba(i__main__
Player
p1482
(dp1483
g16
(dp1484
g18
Nsg19
I79
sg20
Nsg21
Nsg22
Nsg23
Nsg24
Nssg5
S'M. Fellaini'
p1485
sg26
I29
sg12
Nsg27
Nsg28
S'Belgium'
p1486
sg30
Nsba(i__main__
Player
p1487
(dp1488
g16
(dp1489
g18
Nsg19
I78
sg20
Nsg21
Nsg22
Nsg23
Nsg24
Nssg5
S'N. Chadli'
p1490
sg26
I27
sg12
Nsg27
Nsg28
S'Belgium'
p1491
sg30
Nsba(i__main__
Player
p1492
(dp1493
g16
(dp1494
g18
Nsg19
I78
sg20
Nsg21
Nsg22
Nsg23
Nsg24
Nssg5
S'T. Vermaelen'
p1495
sg26
I31
sg12
Nsg27
Nsg28
S'Belgium'
p1496
sg30
Nsba(i__main__
Player
p1497
(dp1498
g16
(dp1499
g18
Nsg19
I78
sg20
Nsg21
Nsg22
Nsg23
Nsg24
Nssg5
S'K. Casteels'
p1500
sg26
I25
sg12
Nsg27
Nsg28
S'Belgium'
p1501
sg30
Nsba(i__main__
Player
p1502
(dp1503
g16
(dp1504
g18
Nsg19
I77
sg20
Nsg21
Nsg22
Nsg23
Nsg24
Nssg5
S'J. Lukaku'
p1505
sg26
I22
sg12
Nsg27
Nsg28
S'Belgium'
p1506
sg30
Nsba(i__main__
Player
p1507
(dp1508
g16
(dp1509
g18
Nsg19
I77
sg20
Nsg21
Nsg22
Nsg23
Nsg24
Nssg5
S'A. Januzaj'
p1510
sg26
I22
sg12
Nsg27
Nsg28
S'Belgium'
p1511
sg30
Nsbasg144
I2
sg145
F9.0
sba(i__main__
Team
p1512
(dp1513
g3
Nsg4
I61838
sg5
S'Panama'
p1514
sg7
F132.61938
sg8
I67
sg9
I1
sg10
I56
sg11
I3
sg12
(lp1515
(i__main__
Player
p1516
(dp1517
g16
(dp1518
g18
Nsg19
I71
sg20
Nsg21
Nsg22
Nsg23
Nsg24
Nssg5
S'A. Machado'
p1519
sg26
I32
sg12
Nsg27
Nsg28
S'Panama'
p1520
sg30
Nsba(i__main__
Player
p1521
(dp1522
g16
(dp1523
g18
Nsg19
I71
sg20
Nsg21
Nsg22
Nsg23
Nsg24
Nssg5
S'A. Godoy'
p1524
sg26
I27
sg12
Nsg27
Nsg28
S'Panama'
p1525
sg30
Nsba(i__main__
Player
p1526
(dp1527
g16
(dp1528
g18
Nsg19
I70
sg20
Nsg21
Nsg22
Nsg23
Nsg24
Nssg5
S'G. G\xc3\xb3mez'
p1529
sg26
I33
sg12
Nsg27
Nsg28
S'Panama'
p1530
sg30
Nsba(i__main__
Player
p1531
(dp1532
g16
(dp1533
g18
Nsg19
I70
sg20
Nsg21
Nsg22
Nsg23
Nsg24
Nssg5
S'R. Torres'
p1534
sg26
I31
sg12
Nsg27
Nsg28
S'Panama'
p1535
sg30
Nsba(i__main__
Player
p1536
(dp1537
g16
(dp1538
g18
Nsg19
I68
sg20
Nsg21
Nsg22
Nsg23
Nsg24
Nssg5
S'G. Torres'
p1539
sg26
I28
sg12
Nsg27
Nsg28
S'Panama'
p1540
sg30
Nsba(i__main__
Player
p1541
(dp1542
g16
(dp1543
g18
Nsg19
I67
sg20
Nsg21
Nsg22
Nsg23
Nsg24
Nssg5
S'A. Cooper'
p1544
sg26
I29
sg12
Nsg27
Nsg28
S'Panama'
p1545
sg30
Nsba(i__main__
Player
p1546
(dp1547
g16
(dp1548
g18
Nsg19
I66
sg20
Nsg21
Nsg22
Nsg23
Nsg24
Nssg5
S'H. Cummings'
p1549
sg26
I25
sg12
Nsg27
Nsg28
S'Panama'
p1550
sg30
Nsba(i__main__
Player
p1551
(dp1552
g16
(dp1553
g18
Nsg19
I66
sg20
Nsg21
Nsg22
Nsg23
Nsg24
Nssg5
g757
sg26
I27
sg12
Nsg27
Nsg28
g1514
sg30
Nsba(i__main__
Player
p1554
(dp1555
g16
(dp1556
g18
Nsg19
I66
sg20
Nsg21
Nsg22
Nsg23
Nsg24
Nssg5
g757
sg26
I27
sg12
Nsg27
Nsg28
g1514
sg30
Nsba(i__main__
Player
p1557
(dp1558
g16
(dp1559
g18
Nsg19
I66
sg20
Nsg21
Nsg22
Nsg23
Nsg24
Nssg5
g757
sg26
I27
sg12
Nsg27
Nsg28
g1514
sg30
Nsba(i__main__
Player
p1560
(dp1561
g16
(dp1562
g18
Nsg19
I66
sg20
Nsg21
Nsg22
Nsg23
Nsg24
Nssg5
g757
sg26
I27
sg12
Nsg27
Nsg28
g1514
sg30
Nsbasg81
I65
sg82
(lp1563
(i__main__
Player
p1564
(dp1565
g16
(dp1566
g18
Nsg19
I66
sg20
Nsg21
Nsg22
Nsg23
Nsg24
Nssg5
g757
sg26
I27
sg12
Nsg27
Nsg28
g1514
sg30
Nsba(i__main__
Player
p1567
(dp1568
g16
(dp1569
g18
Nsg19
I66
sg20
Nsg21
Nsg22
Nsg23
Nsg24
Nssg5
g757
sg26
I27
sg12
Nsg27
Nsg28
g1514
sg30
Nsba(i__main__
Player
p1570
(dp1571
g16
(dp1572
g18
Nsg19
I66
sg20
Nsg21
Nsg22
Nsg23
Nsg24
Nssg5
g757
sg26
I27
sg12
Nsg27
Nsg28
g1514
sg30
Nsba(i__main__
Player
p1573
(dp1574
g16
(dp1575
g18
Nsg19
I66
sg20
Nsg21
Nsg22
Nsg23
Nsg24
Nssg5
g757
sg26
I27
sg12
Nsg27
Nsg28
g1514
sg30
Nsba(i__main__
Player
p1576
(dp1577
g16
(dp1578
g18
Nsg19
I66
sg20
Nsg21
Nsg22
Nsg23
Nsg24
Nssg5
g757
sg26
I27
sg12
Nsg27
Nsg28
g1514
sg30
Nsba(i__main__
Player
p1579
(dp1580
g16
(dp1581
g18
Nsg19
I66
sg20
Nsg21
Nsg22
Nsg23
Nsg24
Nssg5
g757
sg26
I27
sg12
Nsg27
Nsg28
g1514
sg30
Nsba(i__main__
Player
p1582
(dp1583
g16
(dp1584
g18
Nsg19
I66
sg20
Nsg21
Nsg22
Nsg23
Nsg24
Nssg5
g757
sg26
I27
sg12
Nsg27
Nsg28
g1514
sg30
Nsba(i__main__
Player
p1585
(dp1586
g16
(dp1587
g18
Nsg19
I66
sg20
Nsg21
Nsg22
Nsg23
Nsg24
Nssg5
g757
sg26
I27
sg12
Nsg27
Nsg28
g1514
sg30
Nsba(i__main__
Player
p1588
(dp1589
g16
(dp1590
g18
Nsg19
I66
sg20
Nsg21
Nsg22
Nsg23
Nsg24
Nssg5
g757
sg26
I27
sg12
Nsg27
Nsg28
g1514
sg30
Nsba(i__main__
Player
p1591
(dp1592
g16
(dp1593
g18
Nsg19
I65
sg20
Nsg21
Nsg22
Nsg23
Nsg24
Nssg5
S'F. Escobar'
p1594
sg26
I22
sg12
Nsg27
Nsg28
S'Panama'
p1595
sg30
Nsba(i__main__
Player
p1596
(dp1597
g16
(dp1598
g18
Nsg19
I64
sg20
Nsg21
Nsg22
Nsg23
Nsg24
Nssg5
S'M. Murillo'
p1599
sg26
I21
sg12
Nsg27
Nsg28
S'Panama'
p1600
sg30
Nsba(i__main__
Player
p1601
(dp1602
g16
(dp1603
g18
Nsg19
I57
sg20
Nsg21
Nsg22
Nsg23
Nsg24
Nssg5
S'L. Ovalle'
p1604
sg26
I28
sg12
Nsg27
Nsg28
S'Panama'
p1605
sg30
Nsbasg144
I2
sg145
F1000.0
sba(i__main__
Team
p1606
(dp1607
g3
Nsg4
I2622434
sg5
S'England'
p1608
sg7
F182.30767333333336
sg8
I81
sg9
I1
sg10
I15
sg11
I3
sg12
(lp1609
(i__main__
Player
p1610
(dp1611
g16
(dp1612
g18
Nsg19
I84
sg20
Nsg21
Nsg22
Nsg23
Nsg24
Nssg5
S'D. Alli'
p1613
sg26
I21
sg12
Nsg27
Nsg28
S'England'
p1614
sg30
Nsba(i__main__
Player
p1615
(dp1616
g16
(dp1617
g18
Nsg19
I84
sg20
Nsg21
Nsg22
Nsg23
Nsg24
Nssg5
S'G. Cahill'
p1618
sg26
I31
sg12
Nsg27
Nsg28
S'England'
p1619
sg30
Nsba(i__main__
Player
p1620
(dp1621
g16
(dp1622
g18
Nsg19
I83
sg20
Nsg21
Nsg22
Nsg23
Nsg24
Nssg5
S'K. Walker'
p1623
sg26
I27
sg12
Nsg27
Nsg28
S'England'
p1624
sg30
Nsba(i__main__
Player
p1625
(dp1626
g16
(dp1627
g18
Nsg19
I82
sg20
Nsg21
Nsg22
Nsg23
Nsg24
Nssg5
S'R. Sterling'
p1628
sg26
I22
sg12
Nsg27
Nsg28
S'England'
p1629
sg30
Nsba(i__main__
Player
p1630
(dp1631
g16
(dp1632
g18
Nsg19
I82
sg20
Nsg21
Nsg22
Nsg23
Nsg24
Nssg5
S'E. Dier'
p1633
sg26
I23
sg12
Nsg27
Nsg28
S'England'
p1634
sg30
Nsba(i__main__
Player
p1635
(dp1636
g16
(dp1637
g18
Nsg19
I82
sg20
Nsg21
Nsg22
Nsg23
Nsg24
Nssg5
S'J. Henderson'
p1638
sg26
I27
sg12
Nsg27
Nsg28
S'England'
p1639
sg30
Nsba(i__main__
Player
p1640
(dp1641
g16
(dp1642
g18
Nsg19
I82
sg20
Nsg21
Nsg22
Nsg23
Nsg24
Nssg5
S'D. Rose'
p1643
sg26
I26
sg12
Nsg27
Nsg28
S'England'
p1644
sg30
Nsba(i__main__
Player
p1645
(dp1646
g16
(dp1647
g18
Nsg19
I81
sg20
Nsg21
Nsg22
Nsg23
Nsg24
Nssg5
S'J. Vardy'
p1648
sg26
I30
sg12
Nsg27
Nsg28
S'England'
p1649
sg30
Nsba(i__main__
Player
p1650
(dp1651
g16
(dp1652
g18
Nsg19
I81
sg20
Nsg21
Nsg22
Nsg23
Nsg24
Nssg5
S'J. Butland'
p1653
sg26
I24
sg12
Nsg27
Nsg28
S'England'
p1654
sg30
Nsba(i__main__
Player
p1655
(dp1656
g16
(dp1657
g18
Nsg19
I80
sg20
Nsg21
Nsg22
Nsg23
Nsg24
Nssg5
S'M. Rashford'
p1658
sg26
I19
sg12
Nsg27
Nsg28
S'England'
p1659
sg30
Nsba(i__main__
Player
p1660
(dp1661
g16
(dp1662
g18
Nsg19
I80
sg20
Nsg21
Nsg22
Nsg23
Nsg24
Nssg5
S'D. Welbeck'
p1663
sg26
I26
sg12
Nsg27
Nsg28
S'England'
p1664
sg30
Nsbasg81
I75
sg82
(lp1665
(i__main__
Player
p1666
(dp1667
g16
(dp1668
g18
Nsg19
I79
sg20
Nsg21
Nsg22
Nsg23
Nsg24
Nssg5
S'J. Stones'
p1669
sg26
I23
sg12
Nsg27
Nsg28
S'England'
p1670
sg30
Nsba(i__main__
Player
p1671
(dp1672
g16
(dp1673
g18
Nsg19
I79
sg20
Nsg21
Nsg22
Nsg23
Nsg24
Nssg5
S'P. Jones'
p1674
sg26
I25
sg12
Nsg27
Nsg28
S'England'
p1675
sg30
Nsba(i__main__
Player
p1676
(dp1677
g16
(dp1678
g18
Nsg19
I78
sg20
Nsg21
Nsg22
Nsg23
Nsg24
Nssg5
S'J. Lingard'
p1679
sg26
I24
sg12
Nsg27
Nsg28
S'England'
p1680
sg30
Nsba(i__main__
Player
p1681
(dp1682
g16
(dp1683
g18
Nsg19
I78
sg20
Nsg21
Nsg22
Nsg23
Nsg24
Nssg5
S'J. Lingard'
p1684
sg26
I24
sg12
Nsg27
Nsg28
S'England'
p1685
sg30
Nsba(i__main__
Player
p1686
(dp1687
g16
(dp1688
g18
Nsg19
I78
sg20
Nsg21
Nsg22
Nsg23
Nsg24
Nssg5
S'K. Trippier'
p1689
sg26
I26
sg12
Nsg27
Nsg28
S'England'
p1690
sg30
Nsba(i__main__
Player
p1691
(dp1692
g16
(dp1693
g18
Nsg19
I77
sg20
Nsg21
Nsg22
Nsg23
Nsg24
Nssg5
S'F. Delph'
p1694
sg26
I27
sg12
Nsg27
Nsg28
S'England'
p1695
sg30
Nsba(i__main__
Player
p1696
(dp1697
g16
(dp1698
g18
Nsg19
I77
sg20
Nsg21
Nsg22
Nsg23
Nsg24
Nssg5
S'J. Pickford'
p1699
sg26
I23
sg12
Nsg27
Nsg28
S'England'
p1700
sg30
Nsba(i__main__
Player
p1701
(dp1702
g16
(dp1703
g18
Nsg19
I77
sg20
Nsg21
Nsg22
Nsg23
Nsg24
Nssg5
S'H. Maguire'
p1704
sg26
I24
sg12
Nsg27
Nsg28
S'England'
p1705
sg30
Nsba(i__main__
Player
p1706
(dp1707
g16
(dp1708
g18
Nsg19
I75
sg20
Nsg21
Nsg22
Nsg23
Nsg24
Nssg5
S'A. Young'
p1709
sg26
I31
sg12
Nsg27
Nsg28
S'England'
p1710
sg30
Nsba(i__main__
Player
p1711
(dp1712
g16
(dp1713
g18
Nsg19
I71
sg20
Nsg21
Nsg22
Nsg23
Nsg24
Nssg5
S'D. Jones'
p1714
sg26
I32
sg12
Nsg27
Nsg28
S'England'
p1715
sg30
Nsba(i__main__
Player
p1716
(dp1717
g16
(dp1718
g18
Nsg19
I71
sg20
Nsg21
Nsg22
Nsg23
Nsg24
Nssg5
S'B. Jones'
p1719
sg26
I30
sg12
Nsg27
Nsg28
S'England'
p1720
sg30
Nsba(i__main__
Player
p1721
(dp1722
g16
(dp1723
g18
Nsg19
I70
sg20
Nsg21
Nsg22
Nsg23
Nsg24
Nssg5
S'R. Loftus-Cheek'
p1724
sg26
I21
sg12
Nsg27
Nsg28
S'England'
p1725
sg30
Nsbasg144
I2
sg145
F12.0
sba(i__main__
Team
p1726
(dp1727
g3
Nsg4
I40257
sg5
S'Tunisia'
p1728
sg7
F137.40357
sg8
I70
sg9
I1
sg10
I27
sg11
I3
sg12
(lp1729
(i__main__
Player
p1730
(dp1731
g16
(dp1732
g18
Nsg19
I75
sg20
Nsg21
Nsg22
Nsg23
Nsg24
Nssg5
S'Y. Benalouane'
p1733
sg26
I30
sg12
Nsg27
Nsg28
S'Tunisia'
p1734
sg30
Nsba(i__main__
Player
p1735
(dp1736
g16
(dp1737
g18
Nsg19
I74
sg20
Nsg21
Nsg22
Nsg23
Nsg24
Nssg5
S'E. Skhiri'
p1738
sg26
I22
sg12
Nsg27
Nsg28
S'Tunisia'
p1739
sg30
Nsba(i__main__
Player
p1740
(dp1741
g16
(dp1742
g18
Nsg19
I72
sg20
Nsg21
Nsg22
Nsg23
Nsg24
Nssg5
S'S. Ben Youssef'
p1743
sg26
I28
sg12
Nsg27
Nsg28
S'Tunisia'
p1744
sg30
Nsba(i__main__
Player
p1745
(dp1746
g16
(dp1747
g18
Nsg19
I72
sg20
Nsg21
Nsg22
Nsg23
Nsg24
Nssg5
S'N. Sliti'
p1748
sg26
I24
sg12
Nsg27
Nsg28
S'Tunisia'
p1749
sg30
Nsba(i__main__
Player
p1750
(dp1751
g16
(dp1752
g18
Nsg19
I69
sg20
Nsg21
Nsg22
Nsg23
Nsg24
Nssg5
g757
sg26
I24
sg12
Nsg27
Nsg28
g1728
sg30
Nsba(i__main__
Player
p1753
(dp1754
g16
(dp1755
g18
Nsg19
I69
sg20
Nsg21
Nsg22
Nsg23
Nsg24
Nssg5
g757
sg26
I24
sg12
Nsg27
Nsg28
g1728
sg30
Nsba(i__main__
Player
p1756
(dp1757
g16
(dp1758
g18
Nsg19
I69
sg20
Nsg21
Nsg22
Nsg23
Nsg24
Nssg5
g757
sg26
I24
sg12
Nsg27
Nsg28
g1728
sg30
Nsba(i__main__
Player
p1759
(dp1760
g16
(dp1761
g18
Nsg19
I69
sg20
Nsg21
Nsg22
Nsg23
Nsg24
Nssg5
g757
sg26
I24
sg12
Nsg27
Nsg28
g1728
sg30
Nsba(i__main__
Player
p1762
(dp1763
g16
(dp1764
g18
Nsg19
I69
sg20
Nsg21
Nsg22
Nsg23
Nsg24
Nssg5
g757
sg26
I24
sg12
Nsg27
Nsg28
g1728
sg30
Nsba(i__main__
Player
p1765
(dp1766
g16
(dp1767
g18
Nsg19
I69
sg20
Nsg21
Nsg22
Nsg23
Nsg24
Nssg5
g757
sg26
I24
sg12
Nsg27
Nsg28
g1728
sg30
Nsba(i__main__
Player
p1768
(dp1769
g16
(dp1770
g18
Nsg19
I69
sg20
Nsg21
Nsg22
Nsg23
Nsg24
Nssg5
g757
sg26
I24
sg12
Nsg27
Nsg28
g1728
sg30
Nsbasg81
I67
sg82
(lp1771
(i__main__
Player
p1772
(dp1773
g16
(dp1774
g18
Nsg19
I69
sg20
Nsg21
Nsg22
Nsg23
Nsg24
Nssg5
g757
sg26
I24
sg12
Nsg27
Nsg28
g1728
sg30
Nsba(i__main__
Player
p1775
(dp1776
g16
(dp1777
g18
Nsg19
I69
sg20
Nsg21
Nsg22
Nsg23
Nsg24
Nssg5
g757
sg26
I24
sg12
Nsg27
Nsg28
g1728
sg30
Nsba(i__main__
Player
p1778
(dp1779
g16
(dp1780
g18
Nsg19
I69
sg20
Nsg21
Nsg22
Nsg23
Nsg24
Nssg5
g757
sg26
I24
sg12
Nsg27
Nsg28
g1728
sg30
Nsba(i__main__
Player
p1781
(dp1782
g16
(dp1783
g18
Nsg19
I69
sg20
Nsg21
Nsg22
Nsg23
Nsg24
Nssg5
g757
sg26
I24
sg12
Nsg27
Nsg28
g1728
sg30
Nsba(i__main__
Player
p1784
(dp1785
g16
(dp1786
g18
Nsg19
I69
sg20
Nsg21
Nsg22
Nsg23
Nsg24
Nssg5
g757
sg26
I24
sg12
Nsg27
Nsg28
g1728
sg30
Nsba(i__main__
Player
p1787
(dp1788
g16
(dp1789
g18
Nsg19
I69
sg20
Nsg21
Nsg22
Nsg23
Nsg24
Nssg5
g757
sg26
I24
sg12
Nsg27
Nsg28
g1728
sg30
Nsba(i__main__
Player
p1790
(dp1791
g16
(dp1792
g18
Nsg19
I69
sg20
Nsg21
Nsg22
Nsg23
Nsg24
Nssg5
g757
sg26
I24
sg12
Nsg27
Nsg28
g1728
sg30
Nsba(i__main__
Player
p1793
(dp1794
g16
(dp1795
g18
Nsg19
I69
sg20
Nsg21
Nsg22
Nsg23
Nsg24
Nssg5
g757
sg26
I24
sg12
Nsg27
Nsg28
g1728
sg30
Nsba(i__main__
Player
p1796
(dp1797
g16
(dp1798
g18
Nsg19
I68
sg20
Nsg21
Nsg22
Nsg23
Nsg24
Nssg5
S'B. Srarfi'
p1799
sg26
I20
sg12
Nsg27
Nsg28
S'Tunisia'
p1800
sg30
Nsba(i__main__
Player
p1801
(dp1802
g16
(dp1803
g18
Nsg19
I66
sg20
Nsg21
Nsg22
Nsg23
Nsg24
Nssg5
S'O. Haddadi'
p1804
sg26
I25
sg12
Nsg27
Nsg28
S'Tunisia'
p1805
sg30
Nsba(i__main__
Player
p1806
(dp1807
g16
(dp1808
g18
Nsg19
I65
sg20
Nsg21
Nsg22
Nsg23
Nsg24
Nssg5
S'D. Bronn'
p1809
sg26
I22
sg12
Nsg27
Nsg28
S'Tunisia'
p1810
sg30
Nsba(i__main__
Player
p1811
(dp1812
g16
(dp1813
g18
Nsg19
I63
sg20
Nsg21
Nsg22
Nsg23
Nsg24
Nssg5
S'F. Ben Mustapha'
p1814
sg26
I28
sg12
Nsg27
Nsg28
S'Tunisia'
p1815
sg30
Nsbasg144
I2
sg145
F1000.0
sba(i__main__
Team
p1816
(dp1817
g3
Nsg4
I57057
sg5
S'Costa Rica'
p1818
sg7
F144.57190333333332
sg8
I74
sg9
I1
sg10
I26
sg11
I3
sg12
(lp1819
(i__main__
Player
p1820
(dp1821
g16
(dp1822
g18
Nsg19
I85
sg20
Nsg21
Nsg22
Nsg23
Nsg24
Nssg5
S'K. Navas'
p1823
sg26
I30
sg12
Nsg27
Nsg28
S'Costa Rica'
p1824
sg30
Nsba(i__main__
Player
p1825
(dp1826
g16
(dp1827
g18
Nsg19
I77
sg20
Nsg21
Nsg22
Nsg23
Nsg24
Nssg5
S'O. Duarte'
p1828
sg26
I28
sg12
Nsg27
Nsg28
S'Costa Rica'
p1829
sg30
Nsba(i__main__
Player
p1830
(dp1831
g16
(dp1832
g18
Nsg19
I77
sg20
Nsg21
Nsg22
Nsg23
Nsg24
Nssg5
S'J. Campbell'
p1833
sg26
I25
sg12
Nsg27
Nsg28
S'Costa Rica'
p1834
sg30
Nsba(i__main__
Player
p1835
(dp1836
g16
(dp1837
g18
Nsg19
I75
sg20
Nsg21
Nsg22
Nsg23
Nsg24
Nssg5
S'G. Gonz\xc3\xa1lez'
p1838
sg26
I29
sg12
Nsg27
Nsg28
S'Costa Rica'
p1839
sg30
Nsba(i__main__
Player
p1840
(dp1841
g16
(dp1842
g18
Nsg19
I74
sg20
Nsg21
Nsg22
Nsg23
Nsg24
Nssg5
S'K. Waston'
p1843
sg26
I29
sg12
Nsg27
Nsg28
S'Costa Rica'
p1844
sg30
Nsba(i__main__
Player
p1845
(dp1846
g16
(dp1847
g18
Nsg19
I72
sg20
Nsg21
Nsg22
Nsg23
Nsg24
Nssg5
S'C. Gamboa'
p1848
sg26
I27
sg12
Nsg27
Nsg28
S'Costa Rica'
p1849
sg30
Nsba(i__main__
Player
p1850
(dp1851
g16
(dp1852
g18
Nsg19
I72
sg20
Nsg21
Nsg22
Nsg23
Nsg24
Nssg5
S'B. Oviedo'
p1853
sg26
I27
sg12
Nsg27
Nsg28
S'Costa Rica'
p1854
sg30
Nsba(i__main__
Player
p1855
(dp1856
g16
(dp1857
g18
Nsg19
I72
sg20
Nsg21
Nsg22
Nsg23
Nsg24
Nssg5
g757
sg26
I27
sg12
Nsg27
Nsg28
g1818
sg30
Nsba(i__main__
Player
p1858
(dp1859
g16
(dp1860
g18
Nsg19
I72
sg20
Nsg21
Nsg22
Nsg23
Nsg24
Nssg5
g757
sg26
I27
sg12
Nsg27
Nsg28
g1818
sg30
Nsba(i__main__
Player
p1861
(dp1862
g16
(dp1863
g18
Nsg19
I72
sg20
Nsg21
Nsg22
Nsg23
Nsg24
Nssg5
g757
sg26
I27
sg12
Nsg27
Nsg28
g1818
sg30
Nsba(i__main__
Player
p1864
(dp1865
g16
(dp1866
g18
Nsg19
I72
sg20
Nsg21
Nsg22
Nsg23
Nsg24
Nssg5
g757
sg26
I27
sg12
Nsg27
Nsg28
g1818
sg30
Nsbasg81
I70
sg82
(lp1867
(i__main__
Player
p1868
(dp1869
g16
(dp1870
g18
Nsg19
I72
sg20
Nsg21
Nsg22
Nsg23
Nsg24
Nssg5
g757
sg26
I27
sg12
Nsg27
Nsg28
g1818
sg30
Nsba(i__main__
Player
p1871
(dp1872
g16
(dp1873
g18
Nsg19
I72
sg20
Nsg21
Nsg22
Nsg23
Nsg24
Nssg5
g757
sg26
I27
sg12
Nsg27
Nsg28
g1818
sg30
Nsba(i__main__
Player
p1874
(dp1875
g16
(dp1876
g18
Nsg19
I72
sg20
Nsg21
Nsg22
Nsg23
Nsg24
Nssg5
g757
sg26
I27
sg12
Nsg27
Nsg28
g1818
sg30
Nsba(i__main__
Player
p1877
(dp1878
g16
(dp1879
g18
Nsg19
I72
sg20
Nsg21
Nsg22
Nsg23
Nsg24
Nssg5
g757
sg26
I27
sg12
Nsg27
Nsg28
g1818
sg30
Nsba(i__main__
Player
p1880
(dp1881
g16
(dp1882
g18
Nsg19
I72
sg20
Nsg21
Nsg22
Nsg23
Nsg24
Nssg5
g757
sg26
I27
sg12
Nsg27
Nsg28
g1818
sg30
Nsba(i__main__
Player
p1883
(dp1884
g16
(dp1885
g18
Nsg19
I71
sg20
Nsg21
Nsg22
Nsg23
Nsg24
Nssg5
S'B. Acosta'
p1886
sg26
I30
sg12
Nsg27
Nsg28
S'Costa Rica'
p1887
sg30
Nsba(i__main__
Player
p1888
(dp1889
g16
(dp1890
g18
Nsg19
I71
sg20
Nsg21
Nsg22
Nsg23
Nsg24
Nssg5
S'F. Calvo'
p1891
sg26
I24
sg12
Nsg27
Nsg28
S'Costa Rica'
p1892
sg30
Nsba(i__main__
Player
p1893
(dp1894
g16
(dp1895
g18
Nsg19
I71
sg20
Nsg21
Nsg22
Nsg23
Nsg24
Nssg5
S'C. Bola\xc3\xb1os'
p1896
sg26
I33
sg12
Nsg27
Nsg28
S'Costa Rica'
p1897
sg30
Nsba(i__main__
Player
p1898
(dp1899
g16
(dp1900
g18
Nsg19
I68
sg20
Nsg21
Nsg22
Nsg23
Nsg24
Nssg5
S'Y. Tejeda'
p1901
sg26
I25
sg12
Nsg27
Nsg28
S'Costa Rica'
p1902
sg30
Nsba(i__main__
Player
p1903
(dp1904
g16
(dp1905
g18
Nsg19
I68
sg20
Nsg21
Nsg22
Nsg23
Nsg24
Nssg5
S'R. Wallace'
p1906
sg26
I29
sg12
Nsg27
Nsg28
S'Costa Rica'
p1907
sg30
Nsba(i__main__
Player
p1908
(dp1909
g16
(dp1910
g18
Nsg19
I68
sg20
Nsg21
Nsg22
Nsg23
Nsg24
Nssg5
S'M. Ure\xc3\xb1a'
p1911
sg26
I27
sg12
Nsg27
Nsg28
S'Costa Rica'
p1912
sg30
Nsba(i__main__
Player
p1913
(dp1914
g16
(dp1915
g18
Nsg19
I67
sg20
Nsg21
Nsg22
Nsg23
Nsg24
Nssg5
S'J. Venegas'
p1916
sg26
I28
sg12
Nsg27
Nsg28
S'Costa Rica'
p1917
sg30
Nsbasg144
I2
sg145
F750.0
sba(i__main__
Team
p1918
(dp1919
g3
Nsg4
I2582501
sg5
S'France'
p1920
sg7
F187.95001
sg8
I84
sg9
I1
sg10
I9
sg11
I3
sg12
(lp1921
(i__main__
Player
p1922
(dp1923
g16
(dp1924
g18
Nsg19
I88
sg20
Nsg21
Nsg22
Nsg23
Nsg24
Nssg5
S'A. Griezmann'
p1925
sg26
I26
sg12
Nsg27
Nsg28
S'France'
p1926
sg30
Nsba(i__main__
Player
p1927
(dp1928
g16
(dp1929
g18
Nsg19
I87
sg20
Nsg21
Nsg22
Nsg23
Nsg24
Nssg5
S'N. Kant\xc3\xa9'
p1930
sg26
I26
sg12
Nsg27
Nsg28
S'France'
p1931
sg30
Nsba(i__main__
Player
p1932
(dp1933
g16
(dp1934
g18
Nsg19
I87
sg20
Nsg21
Nsg22
Nsg23
Nsg24
Nssg5
S'P. Pogba'
p1935
sg26
I24
sg12
Nsg27
Nsg28
S'France'
p1936
sg30
Nsba(i__main__
Player
p1937
(dp1938
g16
(dp1939
g18
Nsg19
I85
sg20
Nsg21
Nsg22
Nsg23
Nsg24
Nssg5
S'R. Varane'
p1940
sg26
I24
sg12
Nsg27
Nsg28
S'France'
p1941
sg30
Nsba(i__main__
Player
p1942
(dp1943
g16
(dp1944
g18
Nsg19
I85
sg20
Nsg21
Nsg22
Nsg23
Nsg24
Nssg5
S'B. Matuidi'
p1945
sg26
I30
sg12
Nsg27
Nsg28
S'France'
p1946
sg30
Nsba(i__main__
Player
p1947
(dp1948
g16
(dp1949
g18
Nsg19
I83
sg20
Nsg21
Nsg22
Nsg23
Nsg24
Nssg5
S'K. Mbapp\xc3\xa9'
p1950
sg26
I18
sg12
Nsg27
Nsg28
S'France'
p1951
sg30
Nsba(i__main__
Player
p1952
(dp1953
g16
(dp1954
g18
Nsg19
I83
sg20
Nsg21
Nsg22
Nsg23
Nsg24
Nssg5
S'O. Demb\xc3\xa9l\xc3\xa9'
p1955
sg26
I20
sg12
Nsg27
Nsg28
S'France'
p1956
sg30
Nsba(i__main__
Player
p1957
(dp1958
g16
(dp1959
g18
Nsg19
I83
sg20
Nsg21
Nsg22
Nsg23
Nsg24
Nssg5
S'T. Lemar'
p1960
sg26
I21
sg12
Nsg27
Nsg28
S'France'
p1961
sg30
Nsba(i__main__
Player
p1962
(dp1963
g16
(dp1964
g18
Nsg19
I83
sg20
Nsg21
Nsg22
Nsg23
Nsg24
Nssg5
S'S. Umtiti'
p1965
sg26
I23
sg12
Nsg27
Nsg28
S'France'
p1966
sg30
Nsba(i__main__
Player
p1967
(dp1968
g16
(dp1969
g18
Nsg19
I82
sg20
Nsg21
Nsg22
Nsg23
Nsg24
Nssg5
S'C. Tolisso'
p1970
sg26
I22
sg12
Nsg27
Nsg28
S'France'
p1971
sg30
Nsba(i__main__
Player
p1972
(dp1973
g16
(dp1974
g18
Nsg19
I82
sg20
Nsg21
Nsg22
Nsg23
Nsg24
Nssg5
S'N. Fekir'
p1975
sg26
I23
sg12
Nsg27
Nsg28
S'France'
p1976
sg30
Nsbasg81
I78
sg82
(lp1977
(i__main__
Player
p1978
(dp1979
g16
(dp1980
g18
Nsg19
I82
sg20
Nsg21
Nsg22
Nsg23
Nsg24
Nssg5
S'F. Thauvin'
p1981
sg26
I24
sg12
Nsg27
Nsg28
S'France'
p1982
sg30
Nsba(i__main__
Player
p1983
(dp1984
g16
(dp1985
g18
Nsg19
I82
sg20
Nsg21
Nsg22
Nsg23
Nsg24
Nssg5
S'O. Giroud'
p1986
sg26
I30
sg12
Nsg27
Nsg28
S'France'
p1987
sg30
Nsba(i__main__
Player
p1988
(dp1989
g16
(dp1990
g18
Nsg19
I82
sg20
Nsg21
Nsg22
Nsg23
Nsg24
Nssg5
S'S. Mandanda'
p1991
sg26
I32
sg12
Nsg27
Nsg28
S'France'
p1992
sg30
Nsba(i__main__
Player
p1993
(dp1994
g16
(dp1995
g18
Nsg19
I81
sg20
Nsg21
Nsg22
Nsg23
Nsg24
Nssg5
S'A. Rami'
p1996
sg26
I31
sg12
Nsg27
Nsg28
S'France'
p1997
sg30
Nsba(i__main__
Player
p1998
(dp1999
g16
(dp2000
g18
Nsg19
I79
sg20
Nsg21
Nsg22
Nsg23
Nsg24
Nssg5
S'D. Sidib\xc3\xa9'
p2001
sg26
I24
sg12
Nsg27
Nsg28
S'France'
p2002
sg30
Nsba(i__main__
Player
p2003
(dp2004
g16
(dp2005
g18
Nsg19
I79
sg20
Nsg21
Nsg22
Nsg23
Nsg24
Nssg5
S'A. Areola'
p2006
sg26
I24
sg12
Nsg27
Nsg28
S'France'
p2007
sg30
Nsba(i__main__
Player
p2008
(dp2009
g16
(dp2010
g18
Nsg19
I78
sg20
Nsg21
Nsg22
Nsg23
Nsg24
Nssg5
S'B. Mendy'
p2011
sg26
I22
sg12
Nsg27
Nsg28
S'France'
p2012
sg30
Nsba(i__main__
Player
p2013
(dp2014
g16
(dp2015
g18
Nsg19
I77
sg20
Nsg21
Nsg22
Nsg23
Nsg24
Nssg5
S'P. Kimpembe'
p2016
sg26
I21
sg12
Nsg27
Nsg28
S'France'
p2017
sg30
Nsba(i__main__
Player
p2018
(dp2019
g16
(dp2020
g18
Nsg19
I77
sg20
Nsg21
Nsg22
Nsg23
Nsg24
Nssg5
S'L. Hern\xc3\xa1ndez'
p2021
sg26
I21
sg12
Nsg27
Nsg28
S'France'
p2022
sg30
Nsba(i__main__
Player
p2023
(dp2024
g16
(dp2025
g18
Nsg19
I76
sg20
Nsg21
Nsg22
Nsg23
Nsg24
Nssg5
S'N. Mendy'
p2026
sg26
I25
sg12
Nsg27
Nsg28
S'France'
p2027
sg30
Nsba(i__main__
Player
p2028
(dp2029
g16
(dp2030
g18
Nsg19
I75
sg20
Nsg21
Nsg22
Nsg23
Nsg24
Nssg5
S'M. Demb\xc3\xa9l\xc3\xa9'
p2031
sg26
I20
sg12
Nsg27
Nsg28
S'France'
p2032
sg30
Nsba(i__main__
Player
p2033
(dp2034
g16
(dp2035
g18
Nsg19
I75
sg20
Nsg21
Nsg22
Nsg23
Nsg24
Nssg5
S'T. Hern\xc3\xa1ndez'
p2036
sg26
I19
sg12
Nsg27
Nsg28
S'France'
p2037
sg30
Nsbasg144
I2
sg145
F8.0
sba(i__main__
Team
p2038
(dp2039
g3
Nsg4
I375771
sg5
S'Nigeria'
p2040
sg7
F147.75904333333332
sg8
I74
sg9
I1
sg10
I50
sg11
I3
sg12
(lp2041
(i__main__
Player
p2042
(dp2043
g16
(dp2044
g18
Nsg19
I79
sg20
Nsg21
Nsg22
Nsg23
Nsg24
Nssg5
S'V. Moses'
p2045
sg26
I26
sg12
Nsg27
Nsg28
S'Nigeria'
p2046
sg30
Nsba(i__main__
Player
p2047
(dp2048
g16
(dp2049
g18
Nsg19
I77
sg20
Nsg21
Nsg22
Nsg23
Nsg24
Nssg5
S'O. Ndidi'
p2050
sg26
I20
sg12
Nsg27
Nsg28
S'Nigeria'
p2051
sg30
Nsba(i__main__
Player
p2052
(dp2053
g16
(dp2054
g18
Nsg19
I76
sg20
Nsg21
Nsg22
Nsg23
Nsg24
Nssg5
S'A. Musa'
p2055
sg26
I24
sg12
Nsg27
Nsg28
S'Nigeria'
p2056
sg30
Nsba(i__main__
Player
p2057
(dp2058
g16
(dp2059
g18
Nsg19
I75
sg20
Nsg21
Nsg22
Nsg23
Nsg24
Nssg5
S'L. Balogun'
p2060
sg26
I29
sg12
Nsg27
Nsg28
S'Nigeria'
p2061
sg30
Nsba(i__main__
Player
p2062
(dp2063
g16
(dp2064
g18
Nsg19
I75
sg20
Nsg21
Nsg22
Nsg23
Nsg24
Nssg5
S'K. Iheanacho'
p2065
sg26
I20
sg12
Nsg27
Nsg28
S'Nigeria'
p2066
sg30
Nsba(i__main__
Player
p2067
(dp2068
g16
(dp2069
g18
Nsg19
I74
sg20
Nsg21
Nsg22
Nsg23
Nsg24
Nssg5
S'A. Iwobi'
p2070
sg26
I21
sg12
Nsg27
Nsg28
S'Nigeria'
p2071
sg30
Nsba(i__main__
Player
p2072
(dp2073
g16
(dp2074
g18
Nsg19
I74
sg20
Nsg21
Nsg22
Nsg23
Nsg24
Nssg5
S'O. Onazi'
p2075
sg26
I24
sg12
Nsg27
Nsg28
S'Nigeria'
p2076
sg30
Nsba(i__main__
Player
p2077
(dp2078
g16
(dp2079
g18
Nsg19
I73
sg20
Nsg21
Nsg22
Nsg23
Nsg24
Nssg5
S'J. Obi'
p2080
sg26
I26
sg12
Nsg27
Nsg28
S'Nigeria'
p2081
sg30
Nsba(i__main__
Player
p2082
(dp2083
g16
(dp2084
g18
Nsg19
I73
sg20
Nsg21
Nsg22
Nsg23
Nsg24
Nssg5
S'P. Etebo'
p2085
sg26
I21
sg12
Nsg27
Nsg28
S'Nigeria'
p2086
sg30
Nsba(i__main__
Player
p2087
(dp2088
g16
(dp2089
g18
Nsg19
I72
sg20
Nsg21
Nsg22
Nsg23
Nsg24
Nssg5
S'K. Omeruo'
p2090
sg26
I23
sg12
Nsg27
Nsg28
S'Nigeria'
p2091
sg30
Nsba(i__main__
Player
p2092
(dp2093
g16
(dp2094
g18
Nsg19
I72
sg20
Nsg21
Nsg22
Nsg23
Nsg24
Nssg5
g757
sg26
I22
sg12
Nsg27
Nsg28
g2040
sg30
Nsbasg81
I70
sg82
(lp2095
(i__main__
Player
p2096
(dp2097
g16
(dp2098
g18
Nsg19
I72
sg20
Nsg21
Nsg22
Nsg23
Nsg24
Nssg5
g757
sg26
I22
sg12
Nsg27
Nsg28
g2040
sg30
Nsba(i__main__
Player
p2099
(dp2100
g16
(dp2101
g18
Nsg19
I72
sg20
Nsg21
Nsg22
Nsg23
Nsg24
Nssg5
g757
sg26
I22
sg12
Nsg27
Nsg28
g2040
sg30
Nsba(i__main__
Player
p2102
(dp2103
g16
(dp2104
g18
Nsg19
I72
sg20
Nsg21
Nsg22
Nsg23
Nsg24
Nssg5
g757
sg26
I22
sg12
Nsg27
Nsg28
g2040
sg30
Nsba(i__main__
Player
p2105
(dp2106
g16
(dp2107
g18
Nsg19
I72
sg20
Nsg21
Nsg22
Nsg23
Nsg24
Nssg5
g757
sg26
I22
sg12
Nsg27
Nsg28
g2040
sg30
Nsba(i__main__
Player
p2108
(dp2109
g16
(dp2110
g18
Nsg19
I72
sg20
Nsg21
Nsg22
Nsg23
Nsg24
Nssg5
g757
sg26
I22
sg12
Nsg27
Nsg28
g2040
sg30
Nsba(i__main__
Player
p2111
(dp2112
g16
(dp2113
g18
Nsg19
I72
sg20
Nsg21
Nsg22
Nsg23
Nsg24
Nssg5
g757
sg26
I22
sg12
Nsg27
Nsg28
g2040
sg30
Nsba(i__main__
Player
p2114
(dp2115
g16
(dp2116
g18
Nsg19
I71
sg20
Nsg21
Nsg22
Nsg23
Nsg24
Nssg5
S'W. Troost-Ekong'
p2117
sg26
I23
sg12
Nsg27
Nsg28
S'Nigeria'
p2118
sg30
Nsba(i__main__
Player
p2119
(dp2120
g16
(dp2121
g18
Nsg19
I71
sg20
Nsg21
Nsg22
Nsg23
Nsg24
Nssg5
S'C. Awaziem'
p2122
sg26
I20
sg12
Nsg27
Nsg28
S'Nigeria'
p2123
sg30
Nsba(i__main__
Player
p2124
(dp2125
g16
(dp2126
g18
Nsg19
I71
sg20
Nsg21
Nsg22
Nsg23
Nsg24
Nssg5
S'E. Echi\xc3\xa9jil\xc3\xa9'
p2127
sg26
I29
sg12
Nsg27
Nsg28
S'Nigeria'
p2128
sg30
Nsba(i__main__
Player
p2129
(dp2130
g16
(dp2131
g18
Nsg19
I69
sg20
Nsg21
Nsg22
Nsg23
Nsg24
Nssg5
S'S. Abdullahi'
p2132
sg26
I20
sg12
Nsg27
Nsg28
S'Nigeria'
p2133
sg30
Nsba(i__main__
Player
p2134
(dp2135
g16
(dp2136
g18
Nsg19
I66
sg20
Nsg21
Nsg22
Nsg23
Nsg24
Nssg5
S'T. Ebuehi'
p2137
sg26
I21
sg12
Nsg27
Nsg28
S'Nigeria'
p2138
sg30
Nsba(i__main__
Player
p2139
(dp2140
g16
(dp2141
g18
Nsg19
I64
sg20
Nsg21
Nsg22
Nsg23
Nsg24
Nssg5
S'I. Abdullahi'
p2142
sg26
I20
sg12
Nsg27
Nsg28
S'Nigeria'
p2143
sg30
Nsbasg144
I2
sg145
F750.0
sba(i__main__
Team
p2144
(dp2145
g3
Nsg4
I211389
sg5
S'Peru'
p2146
sg7
F141.11489
sg8
I73
sg9
I1
sg10
I11
sg11
I3
sg12
(lp2147
(i__main__
Player
p2148
(dp2149
g16
(dp2150
g18
Nsg19
I78
sg20
Nsg21
Nsg22
Nsg23
Nsg24
Nssg5
S'J. Farf\xc3\xa1n'
p2151
sg26
I32
sg12
Nsg27
Nsg28
S'Peru'
p2152
sg30
Nsba(i__main__
Player
p2153
(dp2154
g16
(dp2155
g18
Nsg19
I77
sg20
Nsg21
Nsg22
Nsg23
Nsg24
Nssg5
S'A. Carrillo'
p2156
sg26
I26
sg12
Nsg27
Nsg28
S'Peru'
p2157
sg30
Nsba(i__main__
Player
p2158
(dp2159
g16
(dp2160
g18
Nsg19
I76
sg20
Nsg21
Nsg22
Nsg23
Nsg24
Nssg5
S'P. Hurtado'
p2161
sg26
I26
sg12
Nsg27
Nsg28
S'Peru'
p2162
sg30
Nsba(i__main__
Player
p2163
(dp2164
g16
(dp2165
g18
Nsg19
I76
sg20
Nsg21
Nsg22
Nsg23
Nsg24
Nssg5
S'R. Ruid\xc3\xadaz'
p2166
sg26
I26
sg12
Nsg27
Nsg28
S'Peru'
p2167
sg30
Nsba(i__main__
Player
p2168
(dp2169
g16
(dp2170
g18
Nsg19
I74
sg20
Nsg21
Nsg22
Nsg23
Nsg24
Nssg5
S'P. Gallese'
p2171
sg26
I27
sg12
Nsg27
Nsg28
S'Peru'
p2172
sg30
Nsba(i__main__
Player
p2173
(dp2174
g16
(dp2175
g18
Nsg19
I73
sg20
Nsg21
Nsg22
Nsg23
Nsg24
Nssg5
S'A. Rodr\xc3\xadguez'
p2176
sg26
I33
sg12
Nsg27
Nsg28
S'Peru'
p2177
sg30
Nsba(i__main__
Player
p2178
(dp2179
g16
(dp2180
g18
Nsg19
I72
sg20
Nsg21
Nsg22
Nsg23
Nsg24
Nssg5
S'R. Tapia'
p2181
sg26
I21
sg12
Nsg27
Nsg28
S'Peru'
p2182
sg30
Nsba(i__main__
Player
p2183
(dp2184
g16
(dp2185
g18
Nsg19
I72
sg20
Nsg21
Nsg22
Nsg23
Nsg24
Nssg5
S'L. Adv\xc3\xadncula'
p2186
sg26
I27
sg12
Nsg27
Nsg28
S'Peru'
p2187
sg30
Nsba(i__main__
Player
p2188
(dp2189
g16
(dp2190
g18
Nsg19
I71
sg20
Nsg21
Nsg22
Nsg23
Nsg24
Nssg5
S'Y. Yot\xc3\xban'
p2191
sg26
I27
sg12
Nsg27
Nsg28
S'Peru'
p2192
sg30
Nsba(i__main__
Player
p2193
(dp2194
g16
(dp2195
g18
Nsg19
I70
sg20
Nsg21
Nsg22
Nsg23
Nsg24
Nssg5
g757
sg26
I25
sg12
Nsg27
Nsg28
g2146
sg30
Nsba(i__main__
Player
p2196
(dp2197
g16
(dp2198
g18
Nsg19
I70
sg20
Nsg21
Nsg22
Nsg23
Nsg24
Nssg5
g757
sg26
I25
sg12
Nsg27
Nsg28
g2146
sg30
Nsbasg81
I66
sg82
(lp2199
(i__main__
Player
p2200
(dp2201
g16
(dp2202
g18
Nsg19
I70
sg20
Nsg21
Nsg22
Nsg23
Nsg24
Nssg5
g757
sg26
I25
sg12
Nsg27
Nsg28
g2146
sg30
Nsba(i__main__
Player
p2203
(dp2204
g16
(dp2205
g18
Nsg19
I70
sg20
Nsg21
Nsg22
Nsg23
Nsg24
Nssg5
g757
sg26
I25
sg12
Nsg27
Nsg28
g2146
sg30
Nsba(i__main__
Player
p2206
(dp2207
g16
(dp2208
g18
Nsg19
I70
sg20
Nsg21
Nsg22
Nsg23
Nsg24
Nssg5
g757
sg26
I25
sg12
Nsg27
Nsg28
g2146
sg30
Nsba(i__main__
Player
p2209
(dp2210
g16
(dp2211
g18
Nsg19
I69
sg20
Nsg21
Nsg22
Nsg23
Nsg24
Nssg5
S'A. Polo'
p2212
sg26
I22
sg12
Nsg27
Nsg28
S'Peru'
p2213
sg30
Nsba(i__main__
Player
p2214
(dp2215
g16
(dp2216
g18
Nsg19
I68
sg20
Nsg21
Nsg22
Nsg23
Nsg24
Nssg5
S'J. Carvallo'
p2217
sg26
I31
sg12
Nsg27
Nsg28
S'Peru'
p2218
sg30
Nsba(i__main__
Player
p2219
(dp2220
g16
(dp2221
g18
Nsg19
I67
sg20
Nsg21
Nsg22
Nsg23
Nsg24
Nssg5
S'C. Ramos'
p2222
sg26
I28
sg12
Nsg27
Nsg28
S'Peru'
p2223
sg30
Nsba(i__main__
Player
p2224
(dp2225
g16
(dp2226
g18
Nsg19
I67
sg20
Nsg21
Nsg22
Nsg23
Nsg24
Nssg5
S'M. Araujo'
p2227
sg26
I22
sg12
Nsg27
Nsg28
S'Peru'
p2228
sg30
Nsba(i__main__
Player
p2229
(dp2230
g16
(dp2231
g18
Nsg19
I65
sg20
Nsg21
Nsg22
Nsg23
Nsg24
Nssg5
S'P. Aquino'
p2232
sg26
I22
sg12
Nsg27
Nsg28
S'Peru'
p2233
sg30
Nsba(i__main__
Player
p2234
(dp2235
g16
(dp2236
g18
Nsg19
I65
sg20
Nsg21
Nsg22
Nsg23
Nsg24
Nssg5
S'A. Corzo'
p2237
sg26
I28
sg12
Nsg27
Nsg28
S'Peru'
p2238
sg30
Nsba(i__main__
Player
p2239
(dp2240
g16
(dp2241
g18
Nsg19
I64
sg20
Nsg21
Nsg22
Nsg23
Nsg24
Nssg5
S'W. Cartagena'
p2242
sg26
I22
sg12
Nsg27
Nsg28
S'Peru'
p2243
sg30
Nsba(i__main__
Player
p2244
(dp2245
g16
(dp2246
g18
Nsg19
I63
sg20
Nsg21
Nsg22
Nsg23
Nsg24
Nssg5
S'N. Loyola'
p2247
sg26
I22
sg12
Nsg27
Nsg28
S'Peru'
p2248
sg30
Nsba(i__main__
Player
p2249
(dp2250
g16
(dp2251
g18
Nsg19
I63
sg20
Nsg21
Nsg22
Nsg23
Nsg24
Nssg5
S'E. Flores'
p2252
sg26
I23
sg12
Nsg27
Nsg28
S'Peru'
p2253
sg30
Nsbasg144
I2
sg145
F1000.0
sba(i__main__
Team
p2254
(dp2255
g3
Nsg4
I637590
sg5
S'Argentina'
p2256
sg7
F166.40923333333333
sg8
I84
sg9
I1
sg10
I4
sg11
I3
sg12
(lp2257
(i__main__
Player
p2258
(dp2259
g16
(dp2260
g18
Nsg19
I90
sg20
Nsg21
Nsg22
Nsg23
Nsg24
Nssg5
S'G. Higua\xc3\xadn'
p2261
sg26
I29
sg12
Nsg27
Nsg28
S'Argentina'
p2262
sg30
Nsba(i__main__
Player
p2263
(dp2264
g16
(dp2265
g18
Nsg19
I89
sg20
Nsg21
Nsg22
Nsg23
Nsg24
Nssg5
S'S. Ag\xc3\xbcero'
p2266
sg26
I29
sg12
Nsg27
Nsg28
S'Argentina'
p2267
sg30
Nsba(i__main__
Player
p2268
(dp2269
g16
(dp2270
g18
Nsg19
I88
sg20
Nsg21
Nsg22
Nsg23
Nsg24
Nssg5
S'P. Dybala'
p2271
sg26
I23
sg12
Nsg27
Nsg28
S'Argentina'
p2272
sg30
Nsba(i__main__
Player
p2273
(dp2274
g16
(dp2275
g18
Nsg19
I85
sg20
Nsg21
Nsg22
Nsg23
Nsg24
Nssg5
S'A. Di Mar\xc3\xada'
p2276
sg26
I29
sg12
Nsg27
Nsg28
S'Argentina'
p2277
sg30
Nsba(i__main__
Player
p2278
(dp2279
g16
(dp2280
g18
Nsg19
I83
sg20
Nsg21
Nsg22
Nsg23
Nsg24
Nssg5
S'N. Otamendi'
p2281
sg26
I29
sg12
Nsg27
Nsg28
S'Argentina'
p2282
sg30
Nsba(i__main__
Player
p2283
(dp2284
g16
(dp2285
g18
Nsg19
I83
sg20
Nsg21
Nsg22
Nsg23
Nsg24
Nssg5
S'E. Banega'
p2286
sg26
I29
sg12
Nsg27
Nsg28
S'Argentina'
p2287
sg30
Nsba(i__main__
Player
p2288
(dp2289
g16
(dp2290
g18
Nsg19
I83
sg20
Nsg21
Nsg22
Nsg23
Nsg24
Nssg5
S'L. Biglia'
p2291
sg26
I31
sg12
Nsg27
Nsg28
S'Argentina'
p2292
sg30
Nsba(i__main__
Player
p2293
(dp2294
g16
(dp2295
g18
Nsg19
I83
sg20
Nsg21
Nsg22
Nsg23
Nsg24
Nssg5
S'J. Mascherano'
p2296
sg26
I33
sg12
Nsg27
Nsg28
S'Argentina'
p2297
sg30
Nsba(i__main__
Player
p2298
(dp2299
g16
(dp2300
g18
Nsg19
I82
sg20
Nsg21
Nsg22
Nsg23
Nsg24
Nssg5
S'M. Rojo'
p2301
sg26
I27
sg12
Nsg27
Nsg28
S'Argentina'
p2302
sg30
Nsba(i__main__
Player
p2303
(dp2304
g16
(dp2305
g18
Nsg19
I82
sg20
Nsg21
Nsg22
Nsg23
Nsg24
Nssg5
S'F. Fazio'
p2306
sg26
I30
sg12
Nsg27
Nsg28
S'Argentina'
p2307
sg30
Nsba(i__main__
Player
p2308
(dp2309
g16
(dp2310
g18
Nsg19
I80
sg20
Nsg21
Nsg22
Nsg23
Nsg24
Nssg5
S'E. Salvio'
p2311
sg26
I26
sg12
Nsg27
Nsg28
S'Argentina'
p2312
sg30
Nsbasg81
I76
sg82
(lp2313
(i__main__
Player
p2314
(dp2315
g16
(dp2316
g18
Nsg19
I79
sg20
Nsg21
Nsg22
Nsg23
Nsg24
Nssg5
S'M. Acu\xc3\xb1a'
p2317
sg26
I25
sg12
Nsg27
Nsg28
S'Argentina'
p2318
sg30
Nsba(i__main__
Player
p2319
(dp2320
g16
(dp2321
g18
Nsg19
I79
sg20
Nsg21
Nsg22
Nsg23
Nsg24
Nssg5
S'N. Tagliafico'
p2322
sg26
I24
sg12
Nsg27
Nsg28
S'Argentina'
p2323
sg30
Nsba(i__main__
Player
p2324
(dp2325
g16
(dp2326
g18
Nsg19
I79
sg20
Nsg21
Nsg22
Nsg23
Nsg24
Nssg5
S'C. Ansaldi'
p2327
sg26
I30
sg12
Nsg27
Nsg28
S'Argentina'
p2328
sg30
Nsba(i__main__
Player
p2329
(dp2330
g16
(dp2331
g18
Nsg19
I79
sg20
Nsg21
Nsg22
Nsg23
Nsg24
Nssg5
S'W. Caballero'
p2332
sg26
I35
sg12
Nsg27
Nsg28
S'Argentina'
p2333
sg30
Nsba(i__main__
Player
p2334
(dp2335
g16
(dp2336
g18
Nsg19
I78
sg20
Nsg21
Nsg22
Nsg23
Nsg24
Nssg5
S'E. P\xc3\xa9rez'
p2337
sg26
I31
sg12
Nsg27
Nsg28
S'Argentina'
p2338
sg30
Nsba(i__main__
Player
p2339
(dp2340
g16
(dp2341
g18
Nsg19
I77
sg20
Nsg21
Nsg22
Nsg23
Nsg24
Nssg5
S'P. P\xc3\xa9rez'
p2342
sg26
I31
sg12
Nsg27
Nsg28
S'Argentina'
p2343
sg30
Nsba(i__main__
Player
p2344
(dp2345
g16
(dp2346
g18
Nsg19
I77
sg20
Nsg21
Nsg22
Nsg23
Nsg24
Nssg5
S'F. Armani'
p2347
sg26
I30
sg12
Nsg27
Nsg28
S'Argentina'
p2348
sg30
Nsba(i__main__
Player
p2349
(dp2350
g16
(dp2351
g18
Nsg19
I77
sg20
Nsg21
Nsg22
Nsg23
Nsg24
Nssg5
S'F. Higua\xc3\xadn'
p2352
sg26
I32
sg12
Nsg27
Nsg28
S'Argentina'
p2353
sg30
Nsba(i__main__
Player
p2354
(dp2355
g16
(dp2356
g18
Nsg19
I76
sg20
Nsg21
Nsg22
Nsg23
Nsg24
Nssg5
S'G. Mercado'
p2357
sg26
I30
sg12
Nsg27
Nsg28
S'Argentina'
p2358
sg30
Nsba(i__main__
Player
p2359
(dp2360
g16
(dp2361
g18
Nsg19
I75
sg20
Nsg21
Nsg22
Nsg23
Nsg24
Nssg5
S'C. Pav\xc3\xb3n'
p2362
sg26
I21
sg12
Nsg27
Nsg28
S'Argentina'
p2363
sg30
Nsba(i__main__
Player
p2364
(dp2365
g16
(dp2366
g18
Nsg19
I74
sg20
Nsg21
Nsg22
Nsg23
Nsg24
Nssg5
S'G. Lo Celso'
p2367
sg26
I21
sg12
Nsg27
Nsg28
S'Argentina'
p2368
sg30
Nsba(i__main__
Player
p2369
(dp2370
g16
(dp2371
g18
Nsg19
I73
sg20
Nsg21
Nsg22
Nsg23
Nsg24
Nssg5
S'D. P\xc3\xa9rez'
p2372
sg26
I28
sg12
Nsg27
Nsg28
S'Argentina'
p2373
sg30
Nsbasg144
I2
sg145
F30.0
sba(i__main__
Team
p2374
(dp2375
g3
Nsg4
I309191
sg5
S'Colombia'
p2376
sg7
F156.10191
sg8
I79
sg9
I1
sg10
I13
sg11
I3
sg12
(lp2377
(i__main__
Player
p2378
(dp2379
g16
(dp2380
g18
Nsg19
I86
sg20
Nsg21
Nsg22
Nsg23
Nsg24
Nssg5
S'J. Rodr\xc3\xadguez'
p2381
sg26
I25
sg12
Nsg27
Nsg28
S'Colombia'
p2382
sg30
Nsba(i__main__
Player
p2383
(dp2384
g16
(dp2385
g18
Nsg19
I82
sg20
Nsg21
Nsg22
Nsg23
Nsg24
Nssg5
S'C. Bacca'
p2386
sg26
I30
sg12
Nsg27
Nsg28
S'Colombia'
p2387
sg30
Nsba(i__main__
Player
p2388
(dp2389
g16
(dp2390
g18
Nsg19
I82
sg20
Nsg21
Nsg22
Nsg23
Nsg24
Nssg5
S'J. Cuadrado'
p2391
sg26
I29
sg12
Nsg27
Nsg28
S'Colombia'
p2392
sg30
Nsba(i__main__
Player
p2393
(dp2394
g16
(dp2395
g18
Nsg19
I81
sg20
Nsg21
Nsg22
Nsg23
Nsg24
Nssg5
S'D. S\xc3\xa1nchez'
p2396
sg26
I21
sg12
Nsg27
Nsg28
S'Colombia'
p2397
sg30
Nsba(i__main__
Player
p2398
(dp2399
g16
(dp2400
g18
Nsg19
I80
sg20
Nsg21
Nsg22
Nsg23
Nsg24
Nssg5
S'L. Muriel'
p2401
sg26
I26
sg12
Nsg27
Nsg28
S'Colombia'
p2402
sg30
Nsba(i__main__
Player
p2403
(dp2404
g16
(dp2405
g18
Nsg19
I79
sg20
Nsg21
Nsg22
Nsg23
Nsg24
Nssg5
S'J. Murillo'
p2406
sg26
I25
sg12
Nsg27
Nsg28
S'Colombia'
p2407
sg30
Nsba(i__main__
Player
p2408
(dp2409
g16
(dp2410
g18
Nsg19
I79
sg20
Nsg21
Nsg22
Nsg23
Nsg24
Nssg5
S'D. Ospina'
p2411
sg26
I28
sg12
Nsg27
Nsg28
S'Colombia'
p2412
sg30
Nsba(i__main__
Player
p2413
(dp2414
g16
(dp2415
g18
Nsg19
I78
sg20
Nsg21
Nsg22
Nsg23
Nsg24
Nssg5
S'J. Izquierdo'
p2416
sg26
I24
sg12
Nsg27
Nsg28
S'Colombia'
p2417
sg30
Nsba(i__main__
Player
p2418
(dp2419
g16
(dp2420
g18
Nsg19
I78
sg20
Nsg21
Nsg22
Nsg23
Nsg24
Nssg5
S'D. Zapata'
p2421
sg26
I26
sg12
Nsg27
Nsg28
S'Colombia'
p2422
sg30
Nsba(i__main__
Player
p2423
(dp2424
g16
(dp2425
g18
Nsg19
I77
sg20
Nsg21
Nsg22
Nsg23
Nsg24
Nssg5
S'J. Quintero'
p2426
sg26
I24
sg12
Nsg27
Nsg28
S'Colombia'
p2427
sg30
Nsba(i__main__
Player
p2428
(dp2429
g16
(dp2430
g18
Nsg19
I77
sg20
Nsg21
Nsg22
Nsg23
Nsg24
Nssg5
S'C. S\xc3\xa1nchez'
p2431
sg26
I31
sg12
Nsg27
Nsg28
S'Colombia'
p2432
sg30
Nsbasg81
I74
sg82
(lp2433
(i__main__
Player
p2434
(dp2435
g16
(dp2436
g18
Nsg19
I77
sg20
Nsg21
Nsg22
Nsg23
Nsg24
Nssg5
S'S. Arias'
p2437
sg26
I25
sg12
Nsg27
Nsg28
S'Colombia'
p2438
sg30
Nsba(i__main__
Player
p2439
(dp2440
g16
(dp2441
g18
Nsg19
I76
sg20
Nsg21
Nsg22
Nsg23
Nsg24
Nssg5
S'O. Murillo'
p2442
sg26
I29
sg12
Nsg27
Nsg28
S'Colombia'
p2443
sg30
Nsba(i__main__
Player
p2444
(dp2445
g16
(dp2446
g18
Nsg19
I75
sg20
Nsg21
Nsg22
Nsg23
Nsg24
Nssg5
S'A. Aguilar'
p2447
sg26
I32
sg12
Nsg27
Nsg28
S'Colombia'
p2448
sg30
Nsba(i__main__
Player
p2449
(dp2450
g16
(dp2451
g18
Nsg19
I75
sg20
Nsg21
Nsg22
Nsg23
Nsg24
Nssg5
S'C. Vargas'
p2452
sg26
I28
sg12
Nsg27
Nsg28
S'Colombia'
p2453
sg30
Nsba(i__main__
Player
p2454
(dp2455
g16
(dp2456
g18
Nsg19
I75
sg20
Nsg21
Nsg22
Nsg23
Nsg24
Nssg5
S'J. Lerma'
p2457
sg26
I22
sg12
Nsg27
Nsg28
S'Colombia'
p2458
sg30
Nsba(i__main__
Player
p2459
(dp2460
g16
(dp2461
g18
Nsg19
I74
sg20
Nsg21
Nsg22
Nsg23
Nsg24
Nssg5
S'J. Cuadrado'
p2462
sg26
I32
sg12
Nsg27
Nsg28
S'Colombia'
p2463
sg30
Nsba(i__main__
Player
p2464
(dp2465
g16
(dp2466
g18
Nsg19
I74
sg20
Nsg21
Nsg22
Nsg23
Nsg24
Nssg5
S'W. Barrios'
p2467
sg26
I23
sg12
Nsg27
Nsg28
S'Colombia'
p2468
sg30
Nsba(i__main__
Player
p2469
(dp2470
g16
(dp2471
g18
Nsg19
I74
sg20
Nsg21
Nsg22
Nsg23
Nsg24
Nssg5
S'F. Uribe'
p2472
sg26
I29
sg12
Nsg27
Nsg28
S'Colombia'
p2473
sg30
Nsba(i__main__
Player
p2474
(dp2475
g16
(dp2476
g18
Nsg19
I73
sg20
Nsg21
Nsg22
Nsg23
Nsg24
Nssg5
S'M. Uribe'
p2477
sg26
I26
sg12
Nsg27
Nsg28
S'Colombia'
p2478
sg30
Nsba(i__main__
Player
p2479
(dp2480
g16
(dp2481
g18
Nsg19
I73
sg20
Nsg21
Nsg22
Nsg23
Nsg24
Nssg5
S'F. D\xc3\xadaz'
p2482
sg26
I33
sg12
Nsg27
Nsg28
S'Colombia'
p2483
sg30
Nsba(i__main__
Player
p2484
(dp2485
g16
(dp2486
g18
Nsg19
I73
sg20
Nsg21
Nsg22
Nsg23
Nsg24
Nssg5
S'A. Rodr\xc3\xadguez'
p2487
sg26
I28
sg12
Nsg27
Nsg28
S'Colombia'
p2488
sg30
Nsba(i__main__
Player
p2489
(dp2490
g16
(dp2491
g18
Nsg19
I73
sg20
Nsg21
Nsg22
Nsg23
Nsg24
Nssg5
S'M. Barrios'
p2492
sg26
I26
sg12
Nsg27
Nsg28
S'Colombia'
p2493
sg30
Nsbasg144
I2
sg145
F100.0
sba(i__main__
Team
p2494
(dp2495
g3
Nsg4
I23909
sg5
S'Iceland'
p2496
sg7
F138.24409
sg8
I73
sg9
I1
sg10
I22
sg11
I3
sg12
(lp2497
(i__main__
Player
p2498
(dp2499
g16
(dp2500
g18
Nsg19
I82
sg20
Nsg21
Nsg22
Nsg23
Nsg24
Nssg5
S'G. Sigur\xc3\xb0sson'
p2501
sg26
I27
sg12
Nsg27
Nsg28
S'Iceland'
p2502
sg30
Nsba(i__main__
Player
p2503
(dp2504
g16
(dp2505
g18
Nsg19
I76
sg20
Nsg21
Nsg22
Nsg23
Nsg24
Nssg5
S'A. Finnbogason'
p2506
sg26
I28
sg12
Nsg27
Nsg28
S'Iceland'
p2507
sg30
Nsba(i__main__
Player
p2508
(dp2509
g16
(dp2510
g18
Nsg19
I75
sg20
Nsg21
Nsg22
Nsg23
Nsg24
Nssg5
S'E. Hallfre\xc3\xb0sson'
p2511
sg26
I33
sg12
Nsg27
Nsg28
S'Iceland'
p2512
sg30
Nsba(i__main__
Player
p2513
(dp2514
g16
(dp2515
g18
Nsg19
I73
sg20
Nsg21
Nsg22
Nsg23
Nsg24
Nssg5
S'J. Gu\xc3\xb0mundsson'
p2516
sg26
I26
sg12
Nsg27
Nsg28
S'Iceland'
p2517
sg30
Nsba(i__main__
Player
p2518
(dp2519
g16
(dp2520
g18
Nsg19
I73
sg20
Nsg21
Nsg22
Nsg23
Nsg24
Nssg5
S'B. Bjarnason'
p2521
sg26
I29
sg12
Nsg27
Nsg28
S'Iceland'
p2522
sg30
Nsba(i__main__
Player
p2523
(dp2524
g16
(dp2525
g18
Nsg19
I73
sg20
Nsg21
Nsg22
Nsg23
Nsg24
Nssg5
S'B. Sigur\xc3\xb0arson'
p2526
sg26
I25
sg12
Nsg27
Nsg28
S'Iceland'
p2527
sg30
Nsba(i__main__
Player
p2528
(dp2529
g16
(dp2530
g18
Nsg19
I72
sg20
Nsg21
Nsg22
Nsg23
Nsg24
Nssg5
S'R. Sigur\xc3\xb0sson'
p2531
sg26
I31
sg12
Nsg27
Nsg28
S'Iceland'
p2532
sg30
Nsba(i__main__
Player
p2533
(dp2534
g16
(dp2535
g18
Nsg19
I72
sg20
Nsg21
Nsg22
Nsg23
Nsg24
Nssg5
S'S. Ingason'
p2536
sg26
I23
sg12
Nsg27
Nsg28
S'Iceland'
p2537
sg30
Nsba(i__main__
Player
p2538
(dp2539
g16
(dp2540
g18
Nsg19
I70
sg20
Nsg21
Nsg22
Nsg23
Nsg24
Nssg5
S'O. Sk\xc3\xbalason'
p2541
sg26
I34
sg12
Nsg27
Nsg28
S'Iceland'
p2542
sg30
Nsba(i__main__
Player
p2543
(dp2544
g16
(dp2545
g18
Nsg19
I70
sg20
Nsg21
Nsg22
Nsg23
Nsg24
Nssg5
S'K. \xc3\x81rnason'
p2546
sg26
I34
sg12
Nsg27
Nsg28
S'Iceland'
p2547
sg30
Nsba(i__main__
Player
p2548
(dp2549
g16
(dp2550
g18
Nsg19
I70
sg20
Nsg21
Nsg22
Nsg23
Nsg24
Nssg5
S'A. Traustason'
p2551
sg26
I24
sg12
Nsg27
Nsg28
S'Iceland'
p2552
sg30
Nsbasg81
I65
sg82
(lp2553
(i__main__
Player
p2554
(dp2555
g16
(dp2556
g18
Nsg19
I69
sg20
Nsg21
Nsg22
Nsg23
Nsg24
Nssg5
S'J. B\xc3\xb6\xc3\xb0varsson'
p2557
sg26
I25
sg12
Nsg27
Nsg28
S'Iceland'
p2558
sg30
Nsba(i__main__
Player
p2559
(dp2560
g16
(dp2561
g18
Nsg19
I68
sg20
Nsg21
Nsg22
Nsg23
Nsg24
Nssg5
S'R. G\xc3\xadslason'
p2562
sg26
I29
sg12
Nsg27
Nsg28
S'Iceland'
p2563
sg30
Nsba(i__main__
Player
p2564
(dp2565
g16
(dp2566
g18
Nsg19
I68
sg20
Nsg21
Nsg22
Nsg23
Nsg24
Nssg5
S'H. Magn\xc3\xbasson'
p2567
sg26
I24
sg12
Nsg27
Nsg28
S'Iceland'
p2568
sg30
Nsba(i__main__
Player
p2569
(dp2570
g16
(dp2571
g18
Nsg19
I68
sg20
Nsg21
Nsg22
Nsg23
Nsg24
Nssg5
S'A. Sk\xc3\xbalason'
p2572
sg26
I30
sg12
Nsg27
Nsg28
S'Iceland'
p2573
sg30
Nsba(i__main__
Player
p2574
(dp2575
g16
(dp2576
g18
Nsg19
I67
sg20
Nsg21
Nsg22
Nsg23
Nsg24
Nssg5
S'H. Halld\xc3\xb3rsson'
p2577
sg26
I33
sg12
Nsg27
Nsg28
S'Iceland'
p2578
sg30
Nsba(i__main__
Player
p2579
(dp2580
g16
(dp2581
g18
Nsg19
I66
sg20
Nsg21
Nsg22
Nsg23
Nsg24
Nssg5
S'B. S\xc3\xa6varsson'
p2582
sg26
I32
sg12
Nsg27
Nsg28
S'Iceland'
p2583
sg30
Nsba(i__main__
Player
p2584
(dp2585
g16
(dp2586
g18
Nsg19
I66
sg20
Nsg21
Nsg22
Nsg23
Nsg24
Nssg5
S'A. Gu\xc3\xb0mundsson'
p2587
sg26
I20
sg12
Nsg27
Nsg28
S'Iceland'
p2588
sg30
Nsba(i__main__
Player
p2589
(dp2590
g16
(dp2591
g18
Nsg19
I66
sg20
Nsg21
Nsg22
Nsg23
Nsg24
Nssg5
S'A. Sigur\xc3\xb0arson'
p2592
sg26
I23
sg12
Nsg27
Nsg28
S'Iceland'
p2593
sg30
Nsba(i__main__
Player
p2594
(dp2595
g16
(dp2596
g18
Nsg19
I65
sg20
Nsg21
Nsg22
Nsg23
Nsg24
Nssg5
S'K. Finnbogason'
p2597
sg26
I30
sg12
Nsg27
Nsg28
S'Iceland'
p2598
sg30
Nsba(i__main__
Player
p2599
(dp2600
g16
(dp2601
g18
Nsg19
I64
sg20
Nsg21
Nsg22
Nsg23
Nsg24
Nssg5
S'R. R\xc3\xbanarsson'
p2602
sg26
I22
sg12
Nsg27
Nsg28
S'Iceland'
p2603
sg30
Nsba(i__main__
Player
p2604
(dp2605
g16
(dp2606
g18
Nsg19
I62
sg20
Nsg21
Nsg22
Nsg23
Nsg24
Nssg5
S'K. Sigur\xc3\xb0sson'
p2607
sg26
I25
sg12
Nsg27
Nsg28
S'Iceland'
p2608
sg30
Nsba(i__main__
Player
p2609
(dp2610
g16
(dp2611
g18
Nsg19
I53
sg20
Nsg21
Nsg22
Nsg23
Nsg24
Nssg5
S'A. Sigur\xc3\xb0sson'
p2612
sg26
I18
sg12
Nsg27
Nsg28
S'Iceland'
p2613
sg30
Nsbasg144
I2
sg145
F200.0
sba(i__main__
Team
p2614
(dp2615
g3
Nsg4
I1577524
sg5
S'Russia'
p2616
sg7
F166.80024
sg8
I78
sg9
I1
sg10
I65
sg11
I3
sg12
(lp2617
(i__main__
Player
p2618
(dp2619
g16
(dp2620
g18
Nsg19
I81
sg20
Nsg21
Nsg22
Nsg23
Nsg24
Nssg5
S'M\xc3\xa1rio Fernandes'
p2621
sg26
I26
sg12
Nsg27
Nsg28
S'Russia'
p2622
sg30
Nsba(i__main__
Player
p2623
(dp2624
g16
(dp2625
g18
Nsg19
I80
sg20
Nsg21
Nsg22
Nsg23
Nsg24
Nssg5
S'A. Dzagoev'
p2626
sg26
I27
sg12
Nsg27
Nsg28
S'Russia'
p2627
sg30
Nsba(i__main__
Player
p2628
(dp2629
g16
(dp2630
g18
Nsg19
I80
sg20
Nsg21
Nsg22
Nsg23
Nsg24
Nssg5
S'F. Smolov'
p2631
sg26
I27
sg12
Nsg27
Nsg28
S'Russia'
p2632
sg30
Nsba(i__main__
Player
p2633
(dp2634
g16
(dp2635
g18
Nsg19
I79
sg20
Nsg21
Nsg22
Nsg23
Nsg24
Nssg5
S'I. Smolnikov'
p2636
sg26
I28
sg12
Nsg27
Nsg28
S'Russia'
p2637
sg30
Nsba(i__main__
Player
p2638
(dp2639
g16
(dp2640
g18
Nsg19
I79
sg20
Nsg21
Nsg22
Nsg23
Nsg24
Nssg5
S'A. Samedov'
p2641
sg26
I32
sg12
Nsg27
Nsg28
S'Russia'
p2642
sg30
Nsba(i__main__
Player
p2643
(dp2644
g16
(dp2645
g18
Nsg19
I78
sg20
Nsg21
Nsg22
Nsg23
Nsg24
Nssg5
S'D. Cheryshev'
p2646
sg26
I26
sg12
Nsg27
Nsg28
S'Russia'
p2647
sg30
Nsba(i__main__
Player
p2648
(dp2649
g16
(dp2650
g18
Nsg19
I78
sg20
Nsg21
Nsg22
Nsg23
Nsg24
Nssg5
S'D. Cheryshev'
p2651
sg26
I26
sg12
Nsg27
Nsg28
S'Russia'
p2652
sg30
Nsba(i__main__
Player
p2653
(dp2654
g16
(dp2655
g18
Nsg19
I78
sg20
Nsg21
Nsg22
Nsg23
Nsg24
Nssg5
S'S. Ignashevich'
p2656
sg26
I37
sg12
Nsg27
Nsg28
S'Russia'
p2657
sg30
Nsba(i__main__
Player
p2658
(dp2659
g16
(dp2660
g18
Nsg19
I78
sg20
Nsg21
Nsg22
Nsg23
Nsg24
Nssg5
S'A. Dzyuba'
p2661
sg26
I28
sg12
Nsg27
Nsg28
S'Russia'
p2662
sg30
Nsba(i__main__
Player
p2663
(dp2664
g16
(dp2665
g18
Nsg19
I77
sg20
Nsg21
Nsg22
Nsg23
Nsg24
Nssg5
S'R. Zobnin'
p2666
sg26
I23
sg12
Nsg27
Nsg28
S'Russia'
p2667
sg30
Nsba(i__main__
Player
p2668
(dp2669
g16
(dp2670
g18
Nsg19
I76
sg20
Nsg21
Nsg22
Nsg23
Nsg24
Nssg5
S'Y. Zhirkov'
p2671
sg26
I33
sg12
Nsg27
Nsg28
S'Russia'
p2672
sg30
Nsbasg81
I73
sg82
(lp2673
(i__main__
Player
p2674
(dp2675
g16
(dp2676
g18
Nsg19
I76
sg20
Nsg21
Nsg22
Nsg23
Nsg24
Nssg5
S'A. Golovin'
p2677
sg26
I21
sg12
Nsg27
Nsg28
S'Russia'
p2678
sg30
Nsba(i__main__
Player
p2679
(dp2680
g16
(dp2681
g18
Nsg19
I75
sg20
Nsg21
Nsg22
Nsg23
Nsg24
Nssg5
S'Y. Gazinskiy'
p2682
sg26
I27
sg12
Nsg27
Nsg28
S'Russia'
p2683
sg30
Nsba(i__main__
Player
p2684
(dp2685
g16
(dp2686
g18
Nsg19
I75
sg20
Nsg21
Nsg22
Nsg23
Nsg24
Nssg5
g757
sg26
I27
sg12
Nsg27
Nsg28
g2616
sg30
Nsba(i__main__
Player
p2687
(dp2688
g16
(dp2689
g18
Nsg19
I75
sg20
Nsg21
Nsg22
Nsg23
Nsg24
Nssg5
g757
sg26
I27
sg12
Nsg27
Nsg28
g2616
sg30
Nsba(i__main__
Player
p2690
(dp2691
g16
(dp2692
g18
Nsg19
I74
sg20
Nsg21
Nsg22
Nsg23
Nsg24
Nssg5
S'V. Gabulov'
p2693
sg26
I33
sg12
Nsg27
Nsg28
S'Russia'
p2694
sg30
Nsba(i__main__
Player
p2695
(dp2696
g16
(dp2697
g18
Nsg19
I74
sg20
Nsg21
Nsg22
Nsg23
Nsg24
Nssg5
S'A. Miranchuk'
p2698
sg26
I21
sg12
Nsg27
Nsg28
S'Russia'
p2699
sg30
Nsba(i__main__
Player
p2700
(dp2701
g16
(dp2702
g18
Nsg19
I74
sg20
Nsg21
Nsg22
Nsg23
Nsg24
Nssg5
S'D. Kuzyaev'
p2703
sg26
I24
sg12
Nsg27
Nsg28
S'Russia'
p2704
sg30
Nsba(i__main__
Player
p2705
(dp2706
g16
(dp2707
g18
Nsg19
I73
sg20
Nsg21
Nsg22
Nsg23
Nsg24
Nssg5
S'F. Kudryashov'
p2708
sg26
I30
sg12
Nsg27
Nsg28
S'Russia'
p2709
sg30
Nsba(i__main__
Player
p2710
(dp2711
g16
(dp2712
g18
Nsg19
I73
sg20
Nsg21
Nsg22
Nsg23
Nsg24
Nssg5
S'I. Kutepov'
p2713
sg26
I23
sg12
Nsg27
Nsg28
S'Russia'
p2714
sg30
Nsba(i__main__
Player
p2715
(dp2716
g16
(dp2717
g18
Nsg19
I72
sg20
Nsg21
Nsg22
Nsg23
Nsg24
Nssg5
S'V. Granat'
p2718
sg26
I30
sg12
Nsg27
Nsg28
S'Russia'
p2719
sg30
Nsba(i__main__
Player
p2720
(dp2721
g16
(dp2722
g18
Nsg19
I68
sg20
Nsg21
Nsg22
Nsg23
Nsg24
Nssg5
S'A. Miranchuk'
p2723
sg26
I21
sg12
Nsg27
Nsg28
S'Russia'
p2724
sg30
Nsba(i__main__
Player
p2725
(dp2726
g16
(dp2727
g18
Nsg19
I67
sg20
Nsg21
Nsg22
Nsg23
Nsg24
Nssg5
S'G. Gabulov'
p2728
sg26
I28
sg12
Nsg27
Nsg28
S'Russia'
p2729
sg30
Nsbasg144
I2
sg145
F40.0
sba(i__main__
Team
p2730
(dp2731
g3
Nsg4
I217571
sg5
S'Portugal'
p2732
sg7
F163.23126555555555
sg8
I83
sg9
I1
sg10
I3
sg11
I3
sg12
(lp2733
(i__main__
Player
p2734
(dp2735
g16
(dp2736
g18
Nsg19
I86
sg20
Nsg21
Nsg22
Nsg23
Nsg24
Nssg5
S'Pepe'
p2737
sg26
I34
sg12
Nsg27
Nsg28
S'Portugal'
p2738
sg30
Nsba(i__main__
Player
p2739
(dp2740
g16
(dp2741
g18
Nsg19
I84
sg20
Nsg21
Nsg22
Nsg23
Nsg24
Nssg5
S'Bernardo Silva'
p2742
sg26
I22
sg12
Nsg27
Nsg28
S'Portugal'
p2743
sg30
Nsba(i__main__
Player
p2744
(dp2745
g16
(dp2746
g18
Nsg19
I83
sg20
Nsg21
Nsg22
Nsg23
Nsg24
Nssg5
S'Jo\xc3\xa3o M\xc3\xa1rio'
p2747
sg26
I24
sg12
Nsg27
Nsg28
S'Portugal'
p2748
sg30
Nsba(i__main__
Player
p2749
(dp2750
g16
(dp2751
g18
Nsg19
I83
sg20
Nsg21
Nsg22
Nsg23
Nsg24
Nssg5
S'William Carvalho'
p2752
sg26
I25
sg12
Nsg27
Nsg28
S'Portugal'
p2753
sg30
Nsba(i__main__
Player
p2754
(dp2755
g16
(dp2756
g18
Nsg19
I83
sg20
Nsg21
Nsg22
Nsg23
Nsg24
Nssg5
S'Danilo Pereira'
p2757
sg26
I25
sg12
Nsg27
Nsg28
S'Portugal'
p2758
sg30
Nsba(i__main__
Player
p2759
(dp2760
g16
(dp2761
g18
Nsg19
I83
sg20
Nsg21
Nsg22
Nsg23
Nsg24
Nssg5
S'A. Lopes'
p2762
sg26
I26
sg12
Nsg27
Nsg28
S'Portugal'
p2763
sg30
Nsba(i__main__
Player
p2764
(dp2765
g16
(dp2766
g18
Nsg19
I83
sg20
Nsg21
Nsg22
Nsg23
Nsg24
Nssg5
S'Adrien Silva'
p2767
sg26
I28
sg12
Nsg27
Nsg28
S'Portugal'
p2768
sg30
Nsba(i__main__
Player
p2769
(dp2770
g16
(dp2771
g18
Nsg19
I83
sg20
Nsg21
Nsg22
Nsg23
Nsg24
Nssg5
S'Rui Patr\xc3\xadcio'
p2772
sg26
I29
sg12
Nsg27
Nsg28
S'Portugal'
p2773
sg30
Nsba(i__main__
Player
p2774
(dp2775
g16
(dp2776
g18
Nsg19
I83
sg20
Nsg21
Nsg22
Nsg23
Nsg24
Nssg5
S'Quaresma'
p2777
sg26
I33
sg12
Nsg27
Nsg28
S'Portugal'
p2778
sg30
Nsba(i__main__
Player
p2779
(dp2780
g16
(dp2781
g18
Nsg19
I82
sg20
Nsg21
Nsg22
Nsg23
Nsg24
Nssg5
S'Jo\xc3\xa3o Moutinho'
p2782
sg26
I30
sg12
Nsg27
Nsg28
S'Portugal'
p2783
sg30
Nsba(i__main__
Player
p2784
(dp2785
g16
(dp2786
g18
Nsg19
I81
sg20
Nsg21
Nsg22
Nsg23
Nsg24
Nssg5
S'Gelson Martins'
p2787
sg26
I22
sg12
Nsg27
Nsg28
S'Portugal'
p2788
sg30
Nsbasg81
I78
sg82
(lp2789
(i__main__
Player
p2790
(dp2791
g16
(dp2792
g18
Nsg19
I81
sg20
Nsg21
Nsg22
Nsg23
Nsg24
Nssg5
S'R. Guerreiro'
p2793
sg26
I23
sg12
Nsg27
Nsg28
S'Portugal'
p2794
sg30
Nsba(i__main__
Player
p2795
(dp2796
g16
(dp2797
g18
Nsg19
I80
sg20
Nsg21
Nsg22
Nsg23
Nsg24
Nssg5
S'Ricardo Pereira'
p2798
sg26
I23
sg12
Nsg27
Nsg28
S'Portugal'
p2799
sg30
Nsba(i__main__
Player
p2800
(dp2801
g16
(dp2802
g18
Nsg19
I80
sg20
Nsg21
Nsg22
Nsg23
Nsg24
Nssg5
S'Manuel Fernandes'
p2803
sg26
I31
sg12
Nsg27
Nsg28
S'Portugal'
p2804
sg30
Nsba(i__main__
Player
p2805
(dp2806
g16
(dp2807
g18
Nsg19
I79
sg20
Nsg21
Nsg22
Nsg23
Nsg24
Nssg5
S'C\xc3\xa9dric'
p2808
sg26
I25
sg12
Nsg27
Nsg28
S'Portugal'
p2809
sg30
Nsba(i__main__
Player
p2810
(dp2811
g16
(dp2812
g18
Nsg19
I79
sg20
Nsg21
Nsg22
Nsg23
Nsg24
Nssg5
S'Jos\xc3\xa9 Fonte'
p2813
sg26
I33
sg12
Nsg27
Nsg28
S'Portugal'
p2814
sg30
Nsba(i__main__
Player
p2815
(dp2816
g16
(dp2817
g18
Nsg19
I78
sg20
Nsg21
Nsg22
Nsg23
Nsg24
Nssg5
S'Andr\xc3\xa9 Silva'
p2818
sg26
I21
sg12
Nsg27
Nsg28
S'Portugal'
p2819
sg30
Nsba(i__main__
Player
p2820
(dp2821
g16
(dp2822
g18
Nsg19
I78
sg20
Nsg21
Nsg22
Nsg23
Nsg24
Nssg5
S'Bruno Fernandes'
p2823
sg26
I22
sg12
Nsg27
Nsg28
S'Portugal'
p2824
sg30
Nsba(i__main__
Player
p2825
(dp2826
g16
(dp2827
g18
Nsg19
I78
sg20
Nsg21
Nsg22
Nsg23
Nsg24
Nssg5
S'Bruno Alves'
p2828
sg26
I35
sg12
Nsg27
Nsg28
S'Portugal'
p2829
sg30
Nsba(i__main__
Player
p2830
(dp2831
g16
(dp2832
g18
Nsg19
I78
sg20
Nsg21
Nsg22
Nsg23
Nsg24
Nssg5
S'Miguel Lopes'
p2833
sg26
I30
sg12
Nsg27
Nsg28
S'Portugal'
p2834
sg30
Nsba(i__main__
Player
p2835
(dp2836
g16
(dp2837
g18
Nsg19
I78
sg20
Nsg21
Nsg22
Nsg23
Nsg24
Nssg5
S'Bruno Fernandes'
p2838
sg26
I22
sg12
Nsg27
Nsg28
S'Portugal'
p2839
sg30
Nsba(i__main__
Player
p2840
(dp2841
g16
(dp2842
g18
Nsg19
I77
sg20
Nsg21
Nsg22
Nsg23
Nsg24
Nssg5
S'M\xc3\xa1rio Rui'
p2843
sg26
I26
sg12
Nsg27
Nsg28
S'Portugal'
p2844
sg30
Nsba(i__main__
Player
p2845
(dp2846
g16
(dp2847
g18
Nsg19
I77
sg20
Nsg21
Nsg22
Nsg23
Nsg24
Nssg5
S'Rony Lopes'
p2848
sg26
I21
sg12
Nsg27
Nsg28
S'Portugal'
p2849
sg30
Nsbasg144
I2
sg145
F18.0
sba(i__main__
Team
p2850
(dp2851
g3
Nsg4
I324872
sg5
S'Denmark'
p2852
sg7
F153.2620533333333
sg8
I79
sg9
I1
sg10
I12
sg11
I3
sg12
(lp2853
(i__main__
Player
p2854
(dp2855
g16
(dp2856
g18
Nsg19
I87
sg20
Nsg21
Nsg22
Nsg23
Nsg24
Nssg5
S'C. Eriksen'
p2857
sg26
I25
sg12
Nsg27
Nsg28
S'Denmark'
p2858
sg30
Nsba(i__main__
Player
p2859
(dp2860
g16
(dp2861
g18
Nsg19
I83
sg20
Nsg21
Nsg22
Nsg23
Nsg24
Nssg5
S'K. Schmeichel'
p2862
sg26
I30
sg12
Nsg27
Nsg28
S'Denmark'
p2863
sg30
Nsba(i__main__
Player
p2864
(dp2865
g16
(dp2866
g18
Nsg19
I81
sg20
Nsg21
Nsg22
Nsg23
Nsg24
Nssg5
S'A. Christensen'
p2867
sg26
I21
sg12
Nsg27
Nsg28
S'Denmark'
p2868
sg30
Nsba(i__main__
Player
p2869
(dp2870
g16
(dp2871
g18
Nsg19
I79
sg20
Nsg21
Nsg22
Nsg23
Nsg24
Nssg5
S'J. Vestergaard'
p2872
sg26
I24
sg12
Nsg27
Nsg28
S'Denmark'
p2873
sg30
Nsba(i__main__
Player
p2874
(dp2875
g16
(dp2876
g18
Nsg19
I79
sg20
Nsg21
Nsg22
Nsg23
Nsg24
Nssg5
S'N. J\xc3\xb8rgensen'
p2877
sg26
I26
sg12
Nsg27
Nsg28
S'Denmark'
p2878
sg30
Nsba(i__main__
Player
p2879
(dp2880
g16
(dp2881
g18
Nsg19
I79
sg20
Nsg21
Nsg22
Nsg23
Nsg24
Nssg5
S'M. Krohn-Dehli'
p2882
sg26
I34
sg12
Nsg27
Nsg28
S'Denmark'
p2883
sg30
Nsba(i__main__
Player
p2884
(dp2885
g16
(dp2886
g18
Nsg19
I78
sg20
Nsg21
Nsg22
Nsg23
Nsg24
Nssg5
S'K. Dolberg'
p2887
sg26
I19
sg12
Nsg27
Nsg28
S'Denmark'
p2888
sg30
Nsba(i__main__
Player
p2889
(dp2890
g16
(dp2891
g18
Nsg19
I77
sg20
Nsg21
Nsg22
Nsg23
Nsg24
Nssg5
S'M. Braithwaite'
p2892
sg26
I26
sg12
Nsg27
Nsg28
S'Denmark'
p2893
sg30
Nsba(i__main__
Player
p2894
(dp2895
g16
(dp2896
g18
Nsg19
I76
sg20
Nsg21
Nsg22
Nsg23
Nsg24
Nssg5
S'Y. Poulsen'
p2897
sg26
I23
sg12
Nsg27
Nsg28
S'Denmark'
p2898
sg30
Nsba(i__main__
Player
p2899
(dp2900
g16
(dp2901
g18
Nsg19
I75
sg20
Nsg21
Nsg22
Nsg23
Nsg24
Nssg5
S'L. Lerager'
p2902
sg26
I23
sg12
Nsg27
Nsg28
S'Denmark'
p2903
sg30
Nsba(i__main__
Player
p2904
(dp2905
g16
(dp2906
g18
Nsg19
I75
sg20
Nsg21
Nsg22
Nsg23
Nsg24
Nssg5
S'J. L\xc3\xb6ssl'
p2907
sg26
I28
sg12
Nsg27
Nsg28
S'Denmark'
p2908
sg30
Nsbasg81
I71
sg82
(lp2909
(i__main__
Player
p2910
(dp2911
g16
(dp2912
g18
Nsg19
I75
sg20
Nsg21
Nsg22
Nsg23
Nsg24
Nssg5
S'V. Fischer'
p2913
sg26
I23
sg12
Nsg27
Nsg28
S'Denmark'
p2914
sg30
Nsba(i__main__
Player
p2915
(dp2916
g16
(dp2917
g18
Nsg19
I75
sg20
Nsg21
Nsg22
Nsg23
Nsg24
Nssg5
S'M. J\xc3\xb8rgensen'
p2918
sg26
I27
sg12
Nsg27
Nsg28
S'Denmark'
p2919
sg30
Nsba(i__main__
Player
p2920
(dp2921
g16
(dp2922
g18
Nsg19
I74
sg20
Nsg21
Nsg22
Nsg23
Nsg24
Nssg5
S'P. Sisto'
p2923
sg26
I22
sg12
Nsg27
Nsg28
S'Denmark'
p2924
sg30
Nsba(i__main__
Player
p2925
(dp2926
g16
(dp2927
g18
Nsg19
I73
sg20
Nsg21
Nsg22
Nsg23
Nsg24
Nssg5
S'F. R\xc3\xb8nnow'
p2928
sg26
I24
sg12
Nsg27
Nsg28
S'Denmark'
p2929
sg30
Nsba(i__main__
Player
p2930
(dp2931
g16
(dp2932
g18
Nsg19
I73
sg20
Nsg21
Nsg22
Nsg23
Nsg24
Nssg5
S'A. Cornelius'
p2933
sg26
I24
sg12
Nsg27
Nsg28
S'Denmark'
p2934
sg30
Nsba(i__main__
Player
p2935
(dp2936
g16
(dp2937
g18
Nsg19
I71
sg20
Nsg21
Nsg22
Nsg23
Nsg24
Nssg5
S'J. Poulsen'
p2938
sg26
I33
sg12
Nsg27
Nsg28
S'Denmark'
p2939
sg30
Nsba(i__main__
Player
p2940
(dp2941
g16
(dp2942
g18
Nsg19
I71
sg20
Nsg21
Nsg22
Nsg23
Nsg24
Nssg5
S'H. Dalsgaard'
p2943
sg26
I27
sg12
Nsg27
Nsg28
S'Denmark'
p2944
sg30
Nsba(i__main__
Player
p2945
(dp2946
g16
(dp2947
g18
Nsg19
I70
sg20
Nsg21
Nsg22
Nsg23
Nsg24
Nssg5
S'W. Kvist'
p2948
sg26
I32
sg12
Nsg27
Nsg28
S'Denmark'
p2949
sg30
Nsba(i__main__
Player
p2950
(dp2951
g16
(dp2952
g18
Nsg19
I70
sg20
Nsg21
Nsg22
Nsg23
Nsg24
Nssg5
S'K. Larsen'
p2953
sg26
I24
sg12
Nsg27
Nsg28
S'Denmark'
p2954
sg30
Nsba(i__main__
Player
p2955
(dp2956
g16
(dp2957
g18
Nsg19
I69
sg20
Nsg21
Nsg22
Nsg23
Nsg24
Nssg5
S'J. Knudsen'
p2958
sg26
I24
sg12
Nsg27
Nsg28
S'Denmark'
p2959
sg30
Nsba(i__main__
Player
p2960
(dp2961
g16
(dp2962
g18
Nsg19
I69
sg20
Nsg21
Nsg22
Nsg23
Nsg24
Nssg5
S'J. Stryger Larsen'
p2963
sg26
I26
sg12
Nsg27
Nsg28
S'Denmark'
p2964
sg30
Nsba(i__main__
Player
p2965
(dp2966
g16
(dp2967
g18
Nsg19
I68
sg20
Nsg21
Nsg22
Nsg23
Nsg24
Nssg5
S'L. Christensen'
p2968
sg26
I22
sg12
Nsg27
Nsg28
S'Denmark'
p2969
sg30
Nsbasg144
I2
sg145
F75.0
sba(i__main__
Team
p2970
(dp2971
g3
Nsg4
I1311320
sg5
S'Spain'
p2972
sg7
F179.2950181818182
sg8
I86
sg9
I1
sg10
I6
sg11
I3
sg12
(lp2973
(i__main__
Player
p2974
(dp2975
g16
(dp2976
g18
Nsg19
I90
sg20
Nsg21
Nsg22
Nsg23
Nsg24
Nssg5
S'De Gea'
p2977
sg26
I26
sg12
Nsg27
Nsg28
S'Spain'
p2978
sg30
Nsba(i__main__
Player
p2979
(dp2980
g16
(dp2981
g18
Nsg19
I88
sg20
Nsg21
Nsg22
Nsg23
Nsg24
Nssg5
S'Thiago'
p2982
sg26
I26
sg12
Nsg27
Nsg28
S'Spain'
p2983
sg30
Nsba(i__main__
Player
p2984
(dp2985
g16
(dp2986
g18
Nsg19
I87
sg20
Nsg21
Nsg22
Nsg23
Nsg24
Nssg5
S'David Silva'
p2987
sg26
I31
sg12
Nsg27
Nsg28
S'Spain'
p2988
sg30
Nsba(i__main__
Player
p2989
(dp2990
g16
(dp2991
g18
Nsg19
I87
sg20
Nsg21
Nsg22
Nsg23
Nsg24
Nssg5
S'Piqu\xc3\xa9'
p2992
sg26
I30
sg12
Nsg27
Nsg28
S'Spain'
p2993
sg30
Nsba(i__main__
Player
p2994
(dp2995
g16
(dp2996
g18
Nsg19
I87
sg20
Nsg21
Nsg22
Nsg23
Nsg24
Nssg5
S'Iniesta'
p2997
sg26
I33
sg12
Nsg27
Nsg28
S'Spain'
p2998
sg30
Nsba(i__main__
Player
p2999
(dp3000
g16
(dp3001
g18
Nsg19
I86
sg20
Nsg21
Nsg22
Nsg23
Nsg24
Nssg5
S'Isco'
p3002
sg26
I25
sg12
Nsg27
Nsg28
S'Spain'
p3003
sg30
Nsba(i__main__
Player
p3004
(dp3005
g16
(dp3006
g18
Nsg19
I86
sg20
Nsg21
Nsg22
Nsg23
Nsg24
Nssg5
S'Sergio Busquets'
p3007
sg26
I28
sg12
Nsg27
Nsg28
S'Spain'
p3008
sg30
Nsba(i__main__
Player
p3009
(dp3010
g16
(dp3011
g18
Nsg19
I86
sg20
Nsg21
Nsg22
Nsg23
Nsg24
Nssg5
S'Diego Costa'
p3012
sg26
I28
sg12
Nsg27
Nsg28
S'Spain'
p3013
sg30
Nsba(i__main__
Player
p3014
(dp3015
g16
(dp3016
g18
Nsg19
I85
sg20
Nsg21
Nsg22
Nsg23
Nsg24
Nssg5
S'Jordi Alba'
p3017
sg26
I28
sg12
Nsg27
Nsg28
S'Spain'
p3018
sg30
Nsba(i__main__
Player
p3019
(dp3020
g16
(dp3021
g18
Nsg19
I85
sg20
Nsg21
Nsg22
Nsg23
Nsg24
Nssg5
S'Azpilicueta'
p3022
sg26
I27
sg12
Nsg27
Nsg28
S'Spain'
p3023
sg30
Nsba(i__main__
Player
p3024
(dp3025
g16
(dp3026
g18
Nsg19
I84
sg20
Nsg21
Nsg22
Nsg23
Nsg24
Nssg5
S'Marco Asensio'
p3027
sg26
I21
sg12
Nsg27
Nsg28
S'Spain'
p3028
sg30
Nsbasg81
I80
sg82
(lp3029
(i__main__
Player
p3030
(dp3031
g16
(dp3032
g18
Nsg19
I84
sg20
Nsg21
Nsg22
Nsg23
Nsg24
Nssg5
S'Carvajal'
p3033
sg26
I25
sg12
Nsg27
Nsg28
S'Spain'
p3034
sg30
Nsba(i__main__
Player
p3035
(dp3036
g16
(dp3037
g18
Nsg19
I84
sg20
Nsg21
Nsg22
Nsg23
Nsg24
Nssg5
S'Koke'
p3038
sg26
I25
sg12
Nsg27
Nsg28
S'Spain'
p3039
sg30
Nsba(i__main__
Player
p3040
(dp3041
g16
(dp3042
g18
Nsg19
I83
sg20
Nsg21
Nsg22
Nsg23
Nsg24
Nssg5
S'Iago Aspas'
p3043
sg26
I29
sg12
Nsg27
Nsg28
S'Spain'
p3044
sg30
Nsba(i__main__
Player
p3045
(dp3046
g16
(dp3047
g18
Nsg19
I83
sg20
Nsg21
Nsg22
Nsg23
Nsg24
Nssg5
S'Jos\xc3\xa9 Reina'
p3048
sg26
I34
sg12
Nsg27
Nsg28
S'Spain'
p3049
sg30
Nsba(i__main__
Player
p3050
(dp3051
g16
(dp3052
g18
Nsg19
I82
sg20
Nsg21
Nsg22
Nsg23
Nsg24
Nssg5
S'Lucas V\xc3\xa1zquez'
p3053
sg26
I26
sg12
Nsg27
Nsg28
S'Spain'
p3054
sg30
Nsba(i__main__
Player
p3055
(dp3056
g16
(dp3057
g18
Nsg19
I82
sg20
Nsg21
Nsg22
Nsg23
Nsg24
Nssg5
S'Sa\xc3\xbal'
p3058
sg26
I22
sg12
Nsg27
Nsg28
S'Spain'
p3059
sg30
Nsba(i__main__
Player
p3060
(dp3061
g16
(dp3062
g18
Nsg19
I80
sg20
Nsg21
Nsg22
Nsg23
Nsg24
Nssg5
S'Arrizabalaga'
p3063
sg26
I22
sg12
Nsg27
Nsg28
S'Spain'
p3064
sg30
Nsba(i__main__
Player
p3065
(dp3066
g16
(dp3067
g18
Nsg19
I80
sg20
Nsg21
Nsg22
Nsg23
Nsg24
Nssg5
S'Nacho Monreal'
p3068
sg26
I31
sg12
Nsg27
Nsg28
S'Spain'
p3069
sg30
Nsba(i__main__
Player
p3070
(dp3071
g16
(dp3072
g18
Nsg19
I79
sg20
Nsg21
Nsg22
Nsg23
Nsg24
Nssg5
S'Jaume Costa'
p3073
sg26
I29
sg12
Nsg27
Nsg28
S'Spain'
p3074
sg30
Nsba(i__main__
Player
p3075
(dp3076
g16
(dp3077
g18
Nsg19
I78
sg20
Nsg21
Nsg22
Nsg23
Nsg24
Nssg5
S'Rodrigo'
p3078
sg26
I26
sg12
Nsg27
Nsg28
S'Spain'
p3079
sg30
Nsba(i__main__
Player
p3080
(dp3081
g16
(dp3082
g18
Nsg19
I78
sg20
Nsg21
Nsg22
Nsg23
Nsg24
Nssg5
S'Rodrigo'
p3083
sg26
I26
sg12
Nsg27
Nsg28
S'Spain'
p3084
sg30
Nsba(i__main__
Player
p3085
(dp3086
g16
(dp3087
g18
Nsg19
I76
sg20
Nsg21
Nsg22
Nsg23
Nsg24
Nssg5
S'V\xc3\xadctor V\xc3\xa1zquez'
p3088
sg26
I30
sg12
Nsg27
Nsg28
S'Spain'
p3089
sg30
Nsbasg144
I2
sg145
F5.5
sba(i__main__
Team
p3090
(dp3091
g3
Nsg4
I1149919
sg5
S'Mexico'
p3092
sg7
F165.52419
sg8
I79
sg9
I1
sg10
I16
sg11
I3
sg12
(lp3093
(i__main__
Player
p3094
(dp3095
g16
(dp3096
g18
Nsg19
I82
sg20
Nsg21
Nsg22
Nsg23
Nsg24
Nssg5
S'J. Hern\xc3\xa1ndez'
p3097
sg26
I29
sg12
Nsg27
Nsg28
S'Mexico'
p3098
sg30
Nsba(i__main__
Player
p3099
(dp3100
g16
(dp3101
g18
Nsg19
I82
sg20
Nsg21
Nsg22
Nsg23
Nsg24
Nssg5
S'C. Vela'
p3102
sg26
I28
sg12
Nsg27
Nsg28
S'Mexico'
p3103
sg30
Nsba(i__main__
Player
p3104
(dp3105
g16
(dp3106
g18
Nsg19
I81
sg20
Nsg21
Nsg22
Nsg23
Nsg24
Nssg5
S'J. Corona'
p3107
sg26
I24
sg12
Nsg27
Nsg28
S'Mexico'
p3108
sg30
Nsba(i__main__
Player
p3109
(dp3110
g16
(dp3111
g18
Nsg19
I80
sg20
Nsg21
Nsg22
Nsg23
Nsg24
Nssg5
S'H. Moreno'
p3112
sg26
I29
sg12
Nsg27
Nsg28
S'Mexico'
p3113
sg30
Nsba(i__main__
Player
p3114
(dp3115
g16
(dp3116
g18
Nsg19
I80
sg20
Nsg21
Nsg22
Nsg23
Nsg24
Nssg5
S'A. Guardado'
p3117
sg26
I30
sg12
Nsg27
Nsg28
S'Mexico'
p3118
sg30
Nsba(i__main__
Player
p3119
(dp3120
g16
(dp3121
g18
Nsg19
I80
sg20
Nsg21
Nsg22
Nsg23
Nsg24
Nssg5
S'J. dos Santos'
p3122
sg26
I27
sg12
Nsg27
Nsg28
S'Mexico'
p3123
sg30
Nsba(i__main__
Player
p3124
(dp3125
g16
(dp3126
g18
Nsg19
I79
sg20
Nsg21
Nsg22
Nsg23
Nsg24
Nssg5
S'M. Fabi\xc3\xa1n'
p3127
sg26
I27
sg12
Nsg27
Nsg28
S'Mexico'
p3128
sg30
Nsba(i__main__
Player
p3129
(dp3130
g16
(dp3131
g18
Nsg19
I79
sg20
Nsg21
Nsg22
Nsg23
Nsg24
Nssg5
S'G. dos Santos'
p3132
sg26
I28
sg12
Nsg27
Nsg28
S'Mexico'
p3133
sg30
Nsba(i__main__
Player
p3134
(dp3135
g16
(dp3136
g18
Nsg19
I79
sg20
Nsg21
Nsg22
Nsg23
Nsg24
Nssg5
S'H. Herrera'
p3137
sg26
I27
sg12
Nsg27
Nsg28
S'Mexico'
p3138
sg30
Nsba(i__main__
Player
p3139
(dp3140
g16
(dp3141
g18
Nsg19
I79
sg20
Nsg21
Nsg22
Nsg23
Nsg24
Nssg5
S'G. Ochoa'
p3142
sg26
I31
sg12
Nsg27
Nsg28
S'Mexico'
p3143
sg30
Nsba(i__main__
Player
p3144
(dp3145
g16
(dp3146
g18
Nsg19
I78
sg20
Nsg21
Nsg22
Nsg23
Nsg24
Nssg5
S'H. Lozano'
p3147
sg26
I21
sg12
Nsg27
Nsg28
S'Mexico'
p3148
sg30
Nsbasg81
I75
sg82
(lp3149
(i__main__
Player
p3150
(dp3151
g16
(dp3152
g18
Nsg19
I78
sg20
Nsg21
Nsg22
Nsg23
Nsg24
Nssg5
S'R. Jim\xc3\xa9nez'
p3153
sg26
I26
sg12
Nsg27
Nsg28
S'Mexico'
p3154
sg30
Nsba(i__main__
Player
p3155
(dp3156
g16
(dp3157
g18
Nsg19
I78
sg20
Nsg21
Nsg22
Nsg23
Nsg24
Nssg5
S'M. Lay\xc3\xban'
p3158
sg26
I29
sg12
Nsg27
Nsg28
S'Mexico'
p3159
sg30
Nsba(i__main__
Player
p3160
(dp3161
g16
(dp3162
g18
Nsg19
I77
sg20
Nsg21
Nsg22
Nsg23
Nsg24
Nssg5
S'J. Aquino'
p3163
sg26
I27
sg12
Nsg27
Nsg28
S'Mexico'
p3164
sg30
Nsba(i__main__
Player
p3165
(dp3166
g16
(dp3167
g18
Nsg19
I77
sg20
Nsg21
Nsg22
Nsg23
Nsg24
Nssg5
S'E. Hern\xc3\xa1ndez'
p3168
sg26
I29
sg12
Nsg27
Nsg28
S'Mexico'
p3169
sg30
Nsba(i__main__
Player
p3170
(dp3171
g16
(dp3172
g18
Nsg19
I76
sg20
Nsg21
Nsg22
Nsg23
Nsg24
Nssg5
S'O. Peralta'
p3173
sg26
I33
sg12
Nsg27
Nsg28
S'Mexico'
p3174
sg30
Nsba(i__main__
Player
p3175
(dp3176
g16
(dp3177
g18
Nsg19
I76
sg20
Nsg21
Nsg22
Nsg23
Nsg24
Nssg5
S'E. Guti\xc3\xa9rrez'
p3178
sg26
I22
sg12
Nsg27
Nsg28
S'Mexico'
p3179
sg30
Nsba(i__main__
Player
p3180
(dp3181
g16
(dp3182
g18
Nsg19
I76
sg20
Nsg21
Nsg22
Nsg23
Nsg24
Nssg5
S'J. Corona'
p3183
sg26
I36
sg12
Nsg27
Nsg28
S'Mexico'
p3184
sg30
Nsba(i__main__
Player
p3185
(dp3186
g16
(dp3187
g18
Nsg19
I75
sg20
Nsg21
Nsg22
Nsg23
Nsg24
Nssg5
S'J. Hern\xc3\xa1ndez'
p3188
sg26
I28
sg12
Nsg27
Nsg28
S'Mexico'
p3189
sg30
Nsba(i__main__
Player
p3190
(dp3191
g16
(dp3192
g18
Nsg19
I75
sg20
Nsg21
Nsg22
Nsg23
Nsg24
Nssg5
S'H. Ayala'
p3193
sg26
I30
sg12
Nsg27
Nsg28
S'Mexico'
p3194
sg30
Nsba(i__main__
Player
p3195
(dp3196
g16
(dp3197
g18
Nsg19
I74
sg20
Nsg21
Nsg22
Nsg23
Nsg24
Nssg5
S'C. Salcedo'
p3198
sg26
I23
sg12
Nsg27
Nsg28
S'Mexico'
p3199
sg30
Nsba(i__main__
Player
p3200
(dp3201
g16
(dp3202
g18
Nsg19
I72
sg20
Nsg21
Nsg22
Nsg23
Nsg24
Nssg5
S'E. Hern\xc3\xa1ndez'
p3203
sg26
I30
sg12
Nsg27
Nsg28
S'Mexico'
p3204
sg30
Nsba(i__main__
Player
p3205
(dp3206
g16
(dp3207
g18
Nsg19
I72
sg20
Nsg21
Nsg22
Nsg23
Nsg24
Nssg5
S'I. Jim\xc3\xa9nez'
p3208
sg26
I27
sg12
Nsg27
Nsg28
S'Mexico'
p3209
sg30
Nsbasg144
I2
sg145
F40.0
sba(i__main__
Team
p3210
(dp3211
g3
Nsg4
I54849
sg5
S'Croatia'
p3212
sg7
F154.61515666666665
sg8
I82
sg9
I1
sg10
I17
sg11
I3
sg12
(lp3213
(i__main__
Player
p3214
(dp3215
g16
(dp3216
g18
Nsg19
I87
sg20
Nsg21
Nsg22
Nsg23
Nsg24
Nssg5
S'I. Rakiti\xc4\x87'
p3217
sg26
I29
sg12
Nsg27
Nsg28
S'Croatia'
p3218
sg30
Nsba(i__main__
Player
p3219
(dp3220
g16
(dp3221
g18
Nsg19
I85
sg20
Nsg21
Nsg22
Nsg23
Nsg24
Nssg5
S'D. Suba\xc5\xa1i\xc4\x87'
p3222
sg26
I32
sg12
Nsg27
Nsg28
S'Croatia'
p3223
sg30
Nsba(i__main__
Player
p3224
(dp3225
g16
(dp3226
g18
Nsg19
I84
sg20
Nsg21
Nsg22
Nsg23
Nsg24
Nssg5
S'I. Peri\xc5\xa1i\xc4\x87'
p3227
sg26
I28
sg12
Nsg27
Nsg28
S'Croatia'
p3228
sg30
Nsba(i__main__
Player
p3229
(dp3230
g16
(dp3231
g18
Nsg19
I83
sg20
Nsg21
Nsg22
Nsg23
Nsg24
Nssg5
S'M. Mand\xc5\xbeuki\xc4\x87'
p3232
sg26
I31
sg12
Nsg27
Nsg28
S'Croatia'
p3233
sg30
Nsba(i__main__
Player
p3234
(dp3235
g16
(dp3236
g18
Nsg19
I82
sg20
Nsg21
Nsg22
Nsg23
Nsg24
Nssg5
S'M. Kova\xc4\x8di\xc4\x87'
p3237
sg26
I23
sg12
Nsg27
Nsg28
S'Croatia'
p3238
sg30
Nsba(i__main__
Player
p3239
(dp3240
g16
(dp3241
g18
Nsg19
I82
sg20
Nsg21
Nsg22
Nsg23
Nsg24
Nssg5
S'V. \xc4\x86orluka'
p3242
sg26
I31
sg12
Nsg27
Nsg28
S'Croatia'
p3243
sg30
Nsba(i__main__
Player
p3244
(dp3245
g16
(dp3246
g18
Nsg19
I81
sg20
Nsg21
Nsg22
Nsg23
Nsg24
Nssg5
S'A. Kramari\xc4\x87'
p3247
sg26
I26
sg12
Nsg27
Nsg28
S'Croatia'
p3248
sg30
Nsba(i__main__
Player
p3249
(dp3250
g16
(dp3251
g18
Nsg19
I81
sg20
Nsg21
Nsg22
Nsg23
Nsg24
Nssg5
S'M. Brozovi\xc4\x87'
p3252
sg26
I24
sg12
Nsg27
Nsg28
S'Croatia'
p3253
sg30
Nsba(i__main__
Player
p3254
(dp3255
g16
(dp3256
g18
Nsg19
I81
sg20
Nsg21
Nsg22
Nsg23
Nsg24
Nssg5
S'D. Lovren'
p3257
sg26
I27
sg12
Nsg27
Nsg28
S'Croatia'
p3258
sg30
Nsba(i__main__
Player
p3259
(dp3260
g16
(dp3261
g18
Nsg19
I81
sg20
Nsg21
Nsg22
Nsg23
Nsg24
Nssg5
S'N. Kalini\xc4\x87'
p3262
sg26
I29
sg12
Nsg27
Nsg28
S'Croatia'
p3263
sg30
Nsba(i__main__
Player
p3264
(dp3265
g16
(dp3266
g18
Nsg19
I79
sg20
Nsg21
Nsg22
Nsg23
Nsg24
Nssg5
S'S. Vrsaljko'
p3267
sg26
I25
sg12
Nsg27
Nsg28
S'Croatia'
p3268
sg30
Nsbasg81
I72
sg82
(lp3269
(i__main__
Player
p3270
(dp3271
g16
(dp3272
g18
Nsg19
I78
sg20
Nsg21
Nsg22
Nsg23
Nsg24
Nssg5
S'M. Badelj'
p3273
sg26
I28
sg12
Nsg27
Nsg28
S'Croatia'
p3274
sg30
Nsba(i__main__
Player
p3275
(dp3276
g16
(dp3277
g18
Nsg19
I78
sg20
Nsg21
Nsg22
Nsg23
Nsg24
Nssg5
S'M. Badelj'
p3278
sg26
I28
sg12
Nsg27
Nsg28
S'Croatia'
p3279
sg30
Nsba(i__main__
Player
p3280
(dp3281
g16
(dp3282
g18
Nsg19
I77
sg20
Nsg21
Nsg22
Nsg23
Nsg24
Nssg5
S'L. Kalini\xc4\x87'
p3283
sg26
I27
sg12
Nsg27
Nsg28
S'Croatia'
p3284
sg30
Nsba(i__main__
Player
p3285
(dp3286
g16
(dp3287
g18
Nsg19
I77
sg20
Nsg21
Nsg22
Nsg23
Nsg24
Nssg5
g757
sg26
I25
sg12
Nsg27
Nsg28
g3212
sg30
Nsba(i__main__
Player
p3288
(dp3289
g16
(dp3290
g18
Nsg19
I77
sg20
Nsg21
Nsg22
Nsg23
Nsg24
Nssg5
g757
sg26
I25
sg12
Nsg27
Nsg28
g3212
sg30
Nsba(i__main__
Player
p3291
(dp3292
g16
(dp3293
g18
Nsg19
I76
sg20
Nsg21
Nsg22
Nsg23
Nsg24
Nssg5
S'T. Jedvaj'
p3294
sg26
I21
sg12
Nsg27
Nsg28
S'Croatia'
p3295
sg30
Nsba(i__main__
Player
p3296
(dp3297
g16
(dp3298
g18
Nsg19
I76
sg20
Nsg21
Nsg22
Nsg23
Nsg24
Nssg5
S'M. Pjaca'
p3299
sg26
I22
sg12
Nsg27
Nsg28
S'Croatia'
p3300
sg30
Nsba(i__main__
Player
p3301
(dp3302
g16
(dp3303
g18
Nsg19
I75
sg20
Nsg21
Nsg22
Nsg23
Nsg24
Nssg5
S'I. Strini\xc4\x87'
p3304
sg26
I29
sg12
Nsg27
Nsg28
S'Croatia'
p3305
sg30
Nsba(i__main__
Player
p3306
(dp3307
g16
(dp3308
g18
Nsg19
I72
sg20
Nsg21
Nsg22
Nsg23
Nsg24
Nssg5
S'A. Rebi\xc4\x87'
p3309
sg26
I23
sg12
Nsg27
Nsg28
S'Croatia'
p3310
sg30
Nsba(i__main__
Player
p3311
(dp3312
g16
(dp3313
g18
Nsg19
I71
sg20
Nsg21
Nsg22
Nsg23
Nsg24
Nssg5
S'D. \xc4\x86aleta-Car'
p3314
sg26
I20
sg12
Nsg27
Nsg28
S'Croatia'
p3315
sg30
Nsba(i__main__
Player
p3316
(dp3317
g16
(dp3318
g18
Nsg19
I58
sg20
Nsg21
Nsg22
Nsg23
Nsg24
Nssg5
S'D. Kova\xc4\x8di\xc4\x87'
p3319
sg26
I23
sg12
Nsg27
Nsg28
S'Croatia'
p3320
sg30
Nsba(i__main__
Player
p3321
(dp3322
g16
(dp3323
g18
Nsg19
I58
sg20
Nsg21
Nsg22
Nsg23
Nsg24
Nssg5
S'D. Lovren'
p3324
sg26
I18
sg12
Nsg27
Nsg28
S'Croatia'
p3325
sg30
Nsbasg144
I2
sg145
F15.0
sba(i__main__
Team
p3326
(dp3327
g3
Nsg4
I56157
sg5
S'Uruguay'
p3328
sg7
F154.59490333333332
sg8
I81
sg9
I1
sg10
I21
sg11
I3
sg12
(lp3329
(i__main__
Player
p3330
(dp3331
g16
(dp3332
g18
Nsg19
I92
sg20
Nsg21
Nsg22
Nsg23
Nsg24
Nssg5
S'L. Su\xc3\xa1rez'
p3333
sg26
I30
sg12
Nsg27
Nsg28
S'Uruguay'
p3334
sg30
Nsba(i__main__
Player
p3335
(dp3336
g16
(dp3337
g18
Nsg19
I87
sg20
Nsg21
Nsg22
Nsg23
Nsg24
Nssg5
S'E. Cavani'
p3338
sg26
I30
sg12
Nsg27
Nsg28
S'Uruguay'
p3339
sg30
Nsba(i__main__
Player
p3340
(dp3341
g16
(dp3342
g18
Nsg19
I83
sg20
Nsg21
Nsg22
Nsg23
Nsg24
Nssg5
S'J. Gim\xc3\xa9nez'
p3343
sg26
I22
sg12
Nsg27
Nsg28
S'Uruguay'
p3344
sg30
Nsba(i__main__
Player
p3345
(dp3346
g16
(dp3347
g18
Nsg19
I82
sg20
Nsg21
Nsg22
Nsg23
Nsg24
Nssg5
S'F. Muslera'
p3348
sg26
I31
sg12
Nsg27
Nsg28
S'Uruguay'
p3349
sg30
Nsba(i__main__
Player
p3350
(dp3351
g16
(dp3352
g18
Nsg19
I81
sg20
Nsg21
Nsg22
Nsg23
Nsg24
Nssg5
S'S. Coates'
p3353
sg26
I26
sg12
Nsg27
Nsg28
S'Uruguay'
p3354
sg30
Nsba(i__main__
Player
p3355
(dp3356
g16
(dp3357
g18
Nsg19
I79
sg20
Nsg21
Nsg22
Nsg23
Nsg24
Nssg5
S'M. Campa\xc3\xb1a'
p3358
sg26
I28
sg12
Nsg27
Nsg28
S'Uruguay'
p3359
sg30
Nsba(i__main__
Player
p3360
(dp3361
g16
(dp3362
g18
Nsg19
I78
sg20
Nsg21
Nsg22
Nsg23
Nsg24
Nssg5
S'M. Vecino'
p3363
sg26
I25
sg12
Nsg27
Nsg28
S'Uruguay'
p3364
sg30
Nsba(i__main__
Player
p3365
(dp3366
g16
(dp3367
g18
Nsg19
I78
sg20
Nsg21
Nsg22
Nsg23
Nsg24
Nssg5
S'D. Laxalt'
p3368
sg26
I24
sg12
Nsg27
Nsg28
S'Uruguay'
p3369
sg30
Nsba(i__main__
Player
p3370
(dp3371
g16
(dp3372
g18
Nsg19
I78
sg20
Nsg21
Nsg22
Nsg23
Nsg24
Nssg5
S'D. Laxalt'
p3373
sg26
I24
sg12
Nsg27
Nsg28
S'Uruguay'
p3374
sg30
Nsba(i__main__
Player
p3375
(dp3376
g16
(dp3377
g18
Nsg19
I77
sg20
Nsg21
Nsg22
Nsg23
Nsg24
Nssg5
S'C. Stuani'
p3378
sg26
I30
sg12
Nsg27
Nsg28
S'Uruguay'
p3379
sg30
Nsba(i__main__
Player
p3380
(dp3381
g16
(dp3382
g18
Nsg19
I77
sg20
Nsg21
Nsg22
Nsg23
Nsg24
Nssg5
S'C. S\xc3\xa1nchez'
p3383
sg26
I32
sg12
Nsg27
Nsg28
S'Uruguay'
p3384
sg30
Nsbasg81
I73
sg82
(lp3385
(i__main__
Player
p3386
(dp3387
g16
(dp3388
g18
Nsg19
I77
sg20
Nsg21
Nsg22
Nsg23
Nsg24
Nssg5
S'M. C\xc3\xa1ceres'
p3389
sg26
I30
sg12
Nsg27
Nsg28
S'Uruguay'
p3390
sg30
Nsba(i__main__
Player
p3391
(dp3392
g16
(dp3393
g18
Nsg19
I75
sg20
Nsg21
Nsg22
Nsg23
Nsg24
Nssg5
S'C. Rodr\xc3\xadguez'
p3394
sg26
I31
sg12
Nsg27
Nsg28
S'Uruguay'
p3395
sg30
Nsba(i__main__
Player
p3396
(dp3397
g16
(dp3398
g18
Nsg19
I75
sg20
Nsg21
Nsg22
Nsg23
Nsg24
Nssg5
S'L. Torreira'
p3399
sg26
I21
sg12
Nsg27
Nsg28
S'Uruguay'
p3400
sg30
Nsba(i__main__
Player
p3401
(dp3402
g16
(dp3403
g18
Nsg19
I74
sg20
Nsg21
Nsg22
Nsg23
Nsg24
Nssg5
S'D. Su\xc3\xa1rez'
p3404
sg26
I29
sg12
Nsg27
Nsg28
S'Uruguay'
p3405
sg30
Nsba(i__main__
Player
p3406
(dp3407
g16
(dp3408
g18
Nsg19
I74
sg20
Nsg21
Nsg22
Nsg23
Nsg24
Nssg5
S'J. Urretaviscaya'
p3409
sg26
I27
sg12
Nsg27
Nsg28
S'Uruguay'
p3410
sg30
Nsba(i__main__
Player
p3411
(dp3412
g16
(dp3413
g18
Nsg19
I73
sg20
Nsg21
Nsg22
Nsg23
Nsg24
Nssg5
S'M. G\xc3\xb3mez'
p3414
sg26
I20
sg12
Nsg27
Nsg28
S'Uruguay'
p3415
sg30
Nsba(i__main__
Player
p3416
(dp3417
g16
(dp3418
g18
Nsg19
I73
sg20
Nsg21
Nsg22
Nsg23
Nsg24
Nssg5
S'D. Rodr\xc3\xadguez'
p3419
sg26
I27
sg12
Nsg27
Nsg28
S'Uruguay'
p3420
sg30
Nsba(i__main__
Player
p3421
(dp3422
g16
(dp3423
g18
Nsg19
I73
sg20
Nsg21
Nsg22
Nsg23
Nsg24
Nssg5
S'A. Silva'
p3424
sg26
I27
sg12
Nsg27
Nsg28
S'Uruguay'
p3425
sg30
Nsba(i__main__
Player
p3426
(dp3427
g16
(dp3428
g18
Nsg19
I72
sg20
Nsg21
Nsg22
Nsg23
Nsg24
Nssg5
S'G. Silva'
p3429
sg26
I23
sg12
Nsg27
Nsg28
S'Uruguay'
p3430
sg30
Nsba(i__main__
Player
p3431
(dp3432
g16
(dp3433
g18
Nsg19
I72
sg20
Nsg21
Nsg22
Nsg23
Nsg24
Nssg5
S'J. Rodr\xc3\xadguez'
p3434
sg26
I23
sg12
Nsg27
Nsg28
S'Uruguay'
p3435
sg30
Nsba(i__main__
Player
p3436
(dp3437
g16
(dp3438
g18
Nsg19
I71
sg20
Nsg21
Nsg22
Nsg23
Nsg24
Nssg5
S'M. Silva'
p3439
sg26
I28
sg12
Nsg27
Nsg28
S'Uruguay'
p3440
sg30
Nsba(i__main__
Player
p3441
(dp3442
g16
(dp3443
g18
Nsg19
I70
sg20
Nsg21
Nsg22
Nsg23
Nsg24
Nssg5
S'N. N\xc3\xa1ndez'
p3444
sg26
I21
sg12
Nsg27
Nsg28
S'Uruguay'
p3445
sg30
Nsbasg144
I2
sg145
F30.0
sba(i__main__
Team
p3446
(dp3447
g3
Nsg4
I683827
sg5
S'Saudi Arabia'
p3448
sg7
F128.83927
sg8
I65
sg9
I1
sg10
I63
sg11
I3
sg12
(lp3449
(i__main__
Player
p3450
(dp3451
g16
(dp3452
g18
Nsg19
I75
sg20
Nsg21
Nsg22
Nsg23
Nsg24
Nssg5
S'O. Hawsawi'
p3453
sg26
I33
sg12
Nsg27
Nsg28
S'Saudi Arabia'
p3454
sg30
Nsba(i__main__
Player
p3455
(dp3456
g16
(dp3457
g18
Nsg19
I74
sg20
Nsg21
Nsg22
Nsg23
Nsg24
Nssg5
S'M. Hawsawi'
p3458
sg26
I25
sg12
Nsg27
Nsg28
S'Saudi Arabia'
p3459
sg30
Nsba(i__main__
Player
p3460
(dp3461
g16
(dp3462
g18
Nsg19
I71
sg20
Nsg21
Nsg22
Nsg23
Nsg24
Nssg5
S'A. Asiri'
p3463
sg26
I25
sg12
Nsg27
Nsg28
S'Saudi Arabia'
p3464
sg30
Nsba(i__main__
Player
p3465
(dp3466
g16
(dp3467
g18
Nsg19
I67
sg20
Nsg21
Nsg22
Nsg23
Nsg24
Nssg5
S'M. Kanno'
p3468
sg26
I22
sg12
Nsg27
Nsg28
S'Saudi Arabia'
p3469
sg30
Nsba(i__main__
Player
p3470
(dp3471
g16
(dp3472
g18
Nsg19
I66
sg20
Nsg21
Nsg22
Nsg23
Nsg24
Nssg5
S'H. Bahebri'
p3473
sg26
I24
sg12
Nsg27
Nsg28
S'Saudi Arabia'
p3474
sg30
Nsba(i__main__
Player
p3475
(dp3476
g16
(dp3477
g18
Nsg19
I61
sg20
Nsg21
Nsg22
Nsg23
Nsg24
Nssg5
g757
sg26
I25
sg12
Nsg27
Nsg28
g3448
sg30
Nsba(i__main__
Player
p3478
(dp3479
g16
(dp3480
g18
Nsg19
I61
sg20
Nsg21
Nsg22
Nsg23
Nsg24
Nssg5
g757
sg26
I25
sg12
Nsg27
Nsg28
g3448
sg30
Nsba(i__main__
Player
p3481
(dp3482
g16
(dp3483
g18
Nsg19
I61
sg20
Nsg21
Nsg22
Nsg23
Nsg24
Nssg5
g757
sg26
I25
sg12
Nsg27
Nsg28
g3448
sg30
Nsba(i__main__
Player
p3484
(dp3485
g16
(dp3486
g18
Nsg19
I61
sg20
Nsg21
Nsg22
Nsg23
Nsg24
Nssg5
g757
sg26
I25
sg12
Nsg27
Nsg28
g3448
sg30
Nsba(i__main__
Player
p3487
(dp3488
g16
(dp3489
g18
Nsg19
I61
sg20
Nsg21
Nsg22
Nsg23
Nsg24
Nssg5
g757
sg26
I25
sg12
Nsg27
Nsg28
g3448
sg30
Nsba(i__main__
Player
p3490
(dp3491
g16
(dp3492
g18
Nsg19
I61
sg20
Nsg21
Nsg22
Nsg23
Nsg24
Nssg5
g757
sg26
I25
sg12
Nsg27
Nsg28
g3448
sg30
Nsbasg81
I57
sg82
(lp3493
(i__main__
Player
p3494
(dp3495
g16
(dp3496
g18
Nsg19
I61
sg20
Nsg21
Nsg22
Nsg23
Nsg24
Nssg5
g757
sg26
I25
sg12
Nsg27
Nsg28
g3448
sg30
Nsba(i__main__
Player
p3497
(dp3498
g16
(dp3499
g18
Nsg19
I61
sg20
Nsg21
Nsg22
Nsg23
Nsg24
Nssg5
g757
sg26
I25
sg12
Nsg27
Nsg28
g3448
sg30
Nsba(i__main__
Player
p3500
(dp3501
g16
(dp3502
g18
Nsg19
I61
sg20
Nsg21
Nsg22
Nsg23
Nsg24
Nssg5
g757
sg26
I25
sg12
Nsg27
Nsg28
g3448
sg30
Nsba(i__main__
Player
p3503
(dp3504
g16
(dp3505
g18
Nsg19
I61
sg20
Nsg21
Nsg22
Nsg23
Nsg24
Nssg5
g757
sg26
I25
sg12
Nsg27
Nsg28
g3448
sg30
Nsba(i__main__
Player
p3506
(dp3507
g16
(dp3508
g18
Nsg19
I61
sg20
Nsg21
Nsg22
Nsg23
Nsg24
Nssg5
g757
sg26
I25
sg12
Nsg27
Nsg28
g3448
sg30
Nsba(i__main__
Player
p3509
(dp3510
g16
(dp3511
g18
Nsg19
I58
sg20
Nsg21
Nsg22
Nsg23
Nsg24
Nssg5
S'O. Hawsawi'
p3512
sg26
I24
sg12
Nsg27
Nsg28
S'Saudi Arabia'
p3513
sg30
Nsba(i__main__
Player
p3514
(dp3515
g16
(dp3516
g18
Nsg19
I58
sg20
Nsg21
Nsg22
Nsg23
Nsg24
Nssg5
S'S. Otayf'
p3517
sg26
I26
sg12
Nsg27
Nsg28
S'Saudi Arabia'
p3518
sg30
Nsba(i__main__
Player
p3519
(dp3520
g16
(dp3521
g18
Nsg19
I56
sg20
Nsg21
Nsg22
Nsg23
Nsg24
Nssg5
S'M. Asiri'
p3522
sg26
I24
sg12
Nsg27
Nsg28
S'Saudi Arabia'
p3523
sg30
Nsba(i__main__
Player
p3524
(dp3525
g16
(dp3526
g18
Nsg19
I55
sg20
Nsg21
Nsg22
Nsg23
Nsg24
Nssg5
S'M. Asiri'
p3527
sg26
I25
sg12
Nsg27
Nsg28
S'Saudi Arabia'
p3528
sg30
Nsba(i__main__
Player
p3529
(dp3530
g16
(dp3531
g18
Nsg19
I55
sg20
Nsg21
Nsg22
Nsg23
Nsg24
Nssg5
S'A. Al Assiri'
p3532
sg26
I28
sg12
Nsg27
Nsg28
S'Saudi Arabia'
p3533
sg30
Nsba(i__main__
Player
p3534
(dp3535
g16
(dp3536
g18
Nsg19
I55
sg20
Nsg21
Nsg22
Nsg23
Nsg24
Nssg5
S'S. Hawsawi'
p3537
sg26
I25
sg12
Nsg27
Nsg28
S'Saudi Arabia'
p3538
sg30
Nsba(i__main__
Player
p3539
(dp3540
g16
(dp3541
g18
Nsg19
I52
sg20
Nsg21
Nsg22
Nsg23
Nsg24
Nssg5
S'H. Hawsawi'
p3542
sg26
I20
sg12
Nsg27
Nsg28
S'Saudi Arabia'
p3543
sg30
Nsbasg144
I2
sg145
F1000.0
sba(i__main__
Team
p3544
(dp3545
g3
Nsg4
I439514
sg5
S'Iran'
p3546
sg7
F145.39647333333332
sg8
I72
sg9
I1
sg10
I32
sg11
I3
sg12
(lp3547
(i__main__
Player
p3548
(dp3549
g16
(dp3550
g18
Nsg19
I77
sg20
Nsg21
Nsg22
Nsg23
Nsg24
Nssg5
S'S. Azmoun'
p3551
sg26
I22
sg12
Nsg27
Nsg28
S'Iran'
p3552
sg30
Nsba(i__main__
Player
p3553
(dp3554
g16
(dp3555
g18
Nsg19
I75
sg20
Nsg21
Nsg22
Nsg23
Nsg24
Nssg5
S'A. Jahanbakhsh'
p3556
sg26
I23
sg12
Nsg27
Nsg28
S'Iran'
p3557
sg30
Nsba(i__main__
Player
p3558
(dp3559
g16
(dp3560
g18
Nsg19
I73
sg20
Nsg21
Nsg22
Nsg23
Nsg24
Nssg5
S'M. Mohammadi'
p3561
sg26
I23
sg12
Nsg27
Nsg28
S'Iran'
p3562
sg30
Nsba(i__main__
Player
p3563
(dp3564
g16
(dp3565
g18
Nsg19
I73
sg20
Nsg21
Nsg22
Nsg23
Nsg24
Nssg5
S'K. Ansarifard'
p3566
sg26
I27
sg12
Nsg27
Nsg28
S'Iran'
p3567
sg30
Nsba(i__main__
Player
p3568
(dp3569
g16
(dp3570
g18
Nsg19
I72
sg20
Nsg21
Nsg22
Nsg23
Nsg24
Nssg5
S'R. Ghoochannejhad'
p3571
sg26
I29
sg12
Nsg27
Nsg28
S'Iran'
p3572
sg30
Nsba(i__main__
Player
p3573
(dp3574
g16
(dp3575
g18
Nsg19
I71
sg20
Nsg21
Nsg22
Nsg23
Nsg24
Nssg5
S'S. Ghoddos'
p3576
sg26
I23
sg12
Nsg27
Nsg28
S'Iran'
p3577
sg30
Nsba(i__main__
Player
p3578
(dp3579
g16
(dp3580
g18
Nsg19
I71
sg20
Nsg21
Nsg22
Nsg23
Nsg24
Nssg5
g757
sg26
I24
sg12
Nsg27
Nsg28
g3546
sg30
Nsba(i__main__
Player
p3581
(dp3582
g16
(dp3583
g18
Nsg19
I71
sg20
Nsg21
Nsg22
Nsg23
Nsg24
Nssg5
g757
sg26
I24
sg12
Nsg27
Nsg28
g3546
sg30
Nsba(i__main__
Player
p3584
(dp3585
g16
(dp3586
g18
Nsg19
I71
sg20
Nsg21
Nsg22
Nsg23
Nsg24
Nssg5
g757
sg26
I24
sg12
Nsg27
Nsg28
g3546
sg30
Nsba(i__main__
Player
p3587
(dp3588
g16
(dp3589
g18
Nsg19
I71
sg20
Nsg21
Nsg22
Nsg23
Nsg24
Nssg5
g757
sg26
I24
sg12
Nsg27
Nsg28
g3546
sg30
Nsba(i__main__
Player
p3590
(dp3591
g16
(dp3592
g18
Nsg19
I71
sg20
Nsg21
Nsg22
Nsg23
Nsg24
Nssg5
g757
sg26
I24
sg12
Nsg27
Nsg28
g3546
sg30
Nsbasg81
I69
sg82
(lp3593
(i__main__
Player
p3594
(dp3595
g16
(dp3596
g18
Nsg19
I71
sg20
Nsg21
Nsg22
Nsg23
Nsg24
Nssg5
g757
sg26
I24
sg12
Nsg27
Nsg28
g3546
sg30
Nsba(i__main__
Player
p3597
(dp3598
g16
(dp3599
g18
Nsg19
I71
sg20
Nsg21
Nsg22
Nsg23
Nsg24
Nssg5
g757
sg26
I24
sg12
Nsg27
Nsg28
g3546
sg30
Nsba(i__main__
Player
p3600
(dp3601
g16
(dp3602
g18
Nsg19
I71
sg20
Nsg21
Nsg22
Nsg23
Nsg24
Nssg5
g757
sg26
I24
sg12
Nsg27
Nsg28
g3546
sg30
Nsba(i__main__
Player
p3603
(dp3604
g16
(dp3605
g18
Nsg19
I71
sg20
Nsg21
Nsg22
Nsg23
Nsg24
Nssg5
g757
sg26
I24
sg12
Nsg27
Nsg28
g3546
sg30
Nsba(i__main__
Player
p3606
(dp3607
g16
(dp3608
g18
Nsg19
I71
sg20
Nsg21
Nsg22
Nsg23
Nsg24
Nssg5
g757
sg26
I24
sg12
Nsg27
Nsg28
g3546
sg30
Nsba(i__main__
Player
p3609
(dp3610
g16
(dp3611
g18
Nsg19
I71
sg20
Nsg21
Nsg22
Nsg23
Nsg24
Nssg5
g757
sg26
I24
sg12
Nsg27
Nsg28
g3546
sg30
Nsba(i__main__
Player
p3612
(dp3613
g16
(dp3614
g18
Nsg19
I71
sg20
Nsg21
Nsg22
Nsg23
Nsg24
Nssg5
g757
sg26
I24
sg12
Nsg27
Nsg28
g3546
sg30
Nsba(i__main__
Player
p3615
(dp3616
g16
(dp3617
g18
Nsg19
I71
sg20
Nsg21
Nsg22
Nsg23
Nsg24
Nssg5
g757
sg26
I24
sg12
Nsg27
Nsg28
g3546
sg30
Nsba(i__main__
Player
p3618
(dp3619
g16
(dp3620
g18
Nsg19
I71
sg20
Nsg21
Nsg22
Nsg23
Nsg24
Nssg5
g757
sg26
I24
sg12
Nsg27
Nsg28
g3546
sg30
Nsba(i__main__
Player
p3621
(dp3622
g16
(dp3623
g18
Nsg19
I70
sg20
Nsg21
Nsg22
Nsg23
Nsg24
Nssg5
S'R. Rezaeian'
p3624
sg26
I27
sg12
Nsg27
Nsg28
S'Iran'
p3625
sg30
Nsba(i__main__
Player
p3626
(dp3627
g16
(dp3628
g18
Nsg19
I66
sg20
Nsg21
Nsg22
Nsg23
Nsg24
Nssg5
S'S. Ezatolahi'
p3629
sg26
I20
sg12
Nsg27
Nsg28
S'Iran'
p3630
sg30
Nsba(i__main__
Player
p3631
(dp3632
g16
(dp3633
g18
Nsg19
I62
sg20
Nsg21
Nsg22
Nsg23
Nsg24
Nssg5
S'A. Abedzadeh'
p3634
sg26
I24
sg12
Nsg27
Nsg28
S'Iran'
p3635
sg30
Nsbasg144
I2
sg145
F750.0
sba.