(lp0
(i__main__
Team
p1
(dp2
S'trainer'
p3
NsS'ranking'
p4
NsS'name'
p5
S'Serbia'
p6
sS'regularPower'
p7
I0
sS'matchDraw'
p8
I1
sS'economicalSituation'
p9
NsS'matchWon'
p10
I3
sS'regular'
p11
(lp12
sS'reservePower'
p13
I0
sS'reserve'
p14
(lp15
(i__main__
Player
p16
(dp17
S'stats'
p18
(dp19
S'dribbling'
p20
NsS'overall'
p21
I83
sS'pace'
p22
NsS'defending'
p23
NsS'phisichal'
p24
NsS'passing'
p25
NsS'shooting'
p26
Nssg5
S'N. Mati\xc4\x87'
p27
sS'age'
p28
I28
sg11
NsS'nAccidents'
p29
NsS'team'
p30
S'Serbia'
p31
sS'position'
p32
Nsba(i__main__
Player
p33
(dp34
g18
(dp35
g20
Nsg21
I82
sg22
Nsg23
Nsg24
Nsg25
Nsg26
Nssg5
S'B. Ivanovi\xc4\x87'
p36
sg28
I33
sg11
Nsg29
Nsg30
S'Serbia'
p37
sg32
Nsba(i__main__
Player
p38
(dp39
g18
(dp40
g20
Nsg21
I80
sg22
Nsg23
Nsg24
Nsg25
Nsg26
Nssg5
S'S. Milinkovi\xc4\x87-Savi\xc4\x87'
p41
sg28
I22
sg11
Nsg29
Nsg30
S'Serbia'
p42
sg32
Nsba(i__main__
Player
p43
(dp44
g18
(dp45
g20
Nsg21
I80
sg22
Nsg23
Nsg24
Nsg25
Nsg26
Nssg5
S'D. Tadi\xc4\x87'
p46
sg28
I28
sg11
Nsg29
Nsg30
S'Serbia'
p47
sg32
Nsba(i__main__
Player
p48
(dp49
g18
(dp50
g20
Nsg21
I79
sg22
Nsg23
Nsg24
Nsg25
Nsg26
Nssg5
S'A. Ljaji\xc4\x87'
p51
sg28
I25
sg11
Nsg29
Nsg30
S'Serbia'
p52
sg32
Nsba(i__main__
Player
p53
(dp54
g18
(dp55
g20
Nsg21
I78
sg22
Nsg23
Nsg24
Nsg25
Nsg26
Nssg5
S'F. Kosti\xc4\x87'
p56
sg28
I24
sg11
Nsg29
Nsg30
S'Serbia'
p57
sg32
Nsba(i__main__
Player
p58
(dp59
g18
(dp60
g20
Nsg21
I78
sg22
Nsg23
Nsg24
Nsg25
Nsg26
Nssg5
S'F. Kosti\xc4\x87'
p61
sg28
I24
sg11
Nsg29
Nsg30
S'Serbia'
p62
sg32
Nsba(i__main__
Player
p63
(dp64
g18
(dp65
g20
Nsg21
I77
sg22
Nsg23
Nsg24
Nsg25
Nsg26
Nssg5
S'A. Rukavina'
p66
sg28
I33
sg11
Nsg29
Nsg30
S'Serbia'
p67
sg32
Nsba(i__main__
Player
p68
(dp69
g18
(dp70
g20
Nsg21
I77
sg22
Nsg23
Nsg24
Nsg25
Nsg26
Nssg5
S'A. \xc5\xbdivkovi\xc4\x87'
p71
sg28
I20
sg11
Nsg29
Nsg30
S'Serbia'
p72
sg32
Nsba(i__main__
Player
p73
(dp74
g18
(dp75
g20
Nsg21
I77
sg22
Nsg23
Nsg24
Nsg25
Nsg26
Nssg5
S'L. Milivojevi\xc4\x87'
p76
sg28
I26
sg11
Nsg29
Nsg30
S'Serbia'
p77
sg32
Nsba(i__main__
Player
p78
(dp79
g18
(dp80
g20
Nsg21
I75
sg22
Nsg23
Nsg24
Nsg25
Nsg26
Nssg5
S'S. Rajkovi\xc4\x87'
p81
sg28
I28
sg11
Nsg29
Nsg30
S'Serbia'
p82
sg32
Nsba(i__main__
Player
p83
(dp84
g18
(dp85
g20
Nsg21
I75
sg22
Nsg23
Nsg24
Nsg25
Nsg26
Nssg5
S'A. Mitrovi\xc4\x87'
p86
sg28
I22
sg11
Nsg29
Nsg30
S'Serbia'
p87
sg32
Nsba(i__main__
Player
p88
(dp89
g18
(dp90
g20
Nsg21
I74
sg22
Nsg23
Nsg24
Nsg25
Nsg26
Nssg5
S'A. Prijovi\xc4\x87'
p91
sg28
I27
sg11
Nsg29
Nsg30
S'Serbia'
p92
sg32
Nsba(i__main__
Player
p93
(dp94
g18
(dp95
g20
Nsg21
I74
sg22
Nsg23
Nsg24
Nsg25
Nsg26
Nssg5
S'M. Dmitrovi\xc4\x87'
p96
sg28
I25
sg11
Nsg29
Nsg30
S'Serbia'
p97
sg32
Nsba(i__main__
Player
p98
(dp99
g18
(dp100
g20
Nsg21
I74
sg22
Nsg23
Nsg24
Nsg25
Nsg26
Nssg5
S'D. To\xc5\xa1i\xc4\x87'
p101
sg28
I32
sg11
Nsg29
Nsg30
S'Serbia'
p102
sg32
Nsba(i__main__
Player
p103
(dp104
g18
(dp105
g20
Nsg21
I73
sg22
Nsg23
Nsg24
Nsg25
Nsg26
Nssg5
S'U. Spaji\xc4\x87'
p106
sg28
I24
sg11
Nsg29
Nsg30
S'Serbia'
p107
sg32
Nsba(i__main__
Player
p108
(dp109
g18
(dp110
g20
Nsg21
I73
sg22
Nsg23
Nsg24
Nsg25
Nsg26
Nssg5
S'S. Mitrovi\xc4\x87'
p111
sg28
I27
sg11
Nsg29
Nsg30
S'Serbia'
p112
sg32
Nsba(i__main__
Player
p113
(dp114
g18
(dp115
g20
Nsg21
I73
sg22
Nsg23
Nsg24
Nsg25
Nsg26
Nssg5
S'M. Veljkovi\xc4\x87'
p116
sg28
I21
sg11
Nsg29
Nsg30
S'Serbia'
p117
sg32
Nsba(i__main__
Player
p118
(dp119
g18
(dp120
g20
Nsg21
I71
sg22
Nsg23
Nsg24
Nsg25
Nsg26
Nssg5
S'M. Gruji\xc4\x87'
p121
sg28
I21
sg11
Nsg29
Nsg30
S'Serbia'
p122
sg32
Nsba(i__main__
Player
p123
(dp124
g18
(dp125
g20
Nsg21
I70
sg22
Nsg23
Nsg24
Nsg25
Nsg26
Nssg5
S'N. Milenkovi\xc4\x87'
p126
sg28
I19
sg11
Nsg29
Nsg30
S'Serbia'
p127
sg32
Nsba(i__main__
Player
p128
(dp129
g18
(dp130
g20
Nsg21
I70
sg22
Nsg23
Nsg24
Nsg25
Nsg26
Nssg5
S'U. Mati\xc4\x87'
p131
sg28
I27
sg11
Nsg29
Nsg30
S'Serbia'
p132
sg32
Nsba(i__main__
Player
p133
(dp134
g18
(dp135
g20
Nsg21
I70
sg22
Nsg23
Nsg24
Nsg25
Nsg26
Nssg5
S'L. Jovi\xc4\x87'
p136
sg28
I19
sg11
Nsg29
Nsg30
S'Serbia'
p137
sg32
Nsba(i__main__
Player
p138
(dp139
g18
(dp140
g20
Nsg21
I69
sg22
Nsg23
Nsg24
Nsg25
Nsg26
Nssg5
S'V. Milinkovi\xc4\x87-Savi\xc4\x87'
p141
sg28
I20
sg11
Nsg29
Nsg30
S'Serbia'
p142
sg32
NsbasS'matchLose'
p143
I2
sS'quotation'
p144
Nsba(i__main__
Team
p145
(dp146
g3
Nsg4
Nsg5
S'Japan'
p147
sg7
I0
sg8
I1
sg9
Nsg10
I3
sg11
(lp148
sg13
I0
sg14
(lp149
(i__main__
Player
p150
(dp151
g18
(dp152
g20
Nsg21
I83
sg22
Nsg23
Nsg24
Nsg25
Nsg26
Nssg5
S'S. Kagawa'
p153
sg28
I28
sg11
Nsg29
Nsg30
S'Japan'
p154
sg32
Nsba(i__main__
Player
p155
(dp156
g18
(dp157
g20
Nsg21
I78
sg22
Nsg23
Nsg24
Nsg25
Nsg26
Nssg5
S'T. Inui'
p158
sg28
I29
sg11
Nsg29
Nsg30
S'Japan'
p159
sg32
Nsba(i__main__
Player
p160
(dp161
g18
(dp162
g20
Nsg21
I78
sg22
Nsg23
Nsg24
Nsg25
Nsg26
Nssg5
S'K. Honda'
p163
sg28
I31
sg11
Nsg29
Nsg30
S'Japan'
p164
sg32
Nsba(i__main__
Player
p165
(dp166
g18
(dp167
g20
Nsg21
I77
sg22
Nsg23
Nsg24
Nsg25
Nsg26
Nssg5
S'S. Okazaki'
p168
sg28
I31
sg11
Nsg29
Nsg30
S'Japan'
p169
sg32
Nsba(i__main__
Player
p170
(dp171
g18
(dp172
g20
Nsg21
I75
sg22
Nsg23
Nsg24
Nsg25
Nsg26
Nssg5
S'G. Haraguchi'
p173
sg28
I26
sg11
Nsg29
Nsg30
S'Japan'
p174
sg32
Nsba(i__main__
Player
p175
(dp176
g18
(dp177
g20
Nsg21
I75
sg22
Nsg23
Nsg24
Nsg25
Nsg26
Nssg5
S'H. Sakai'
p178
sg28
I27
sg11
Nsg29
Nsg30
S'Japan'
p179
sg32
Nsba(i__main__
Player
p180
(dp181
g18
(dp182
g20
Nsg21
I75
sg22
Nsg23
Nsg24
Nsg25
Nsg26
Nssg5
S'M. Yoshida'
p183
sg28
I28
sg11
Nsg29
Nsg30
S'Japan'
p184
sg32
Nsba(i__main__
Player
p185
(dp186
g18
(dp187
g20
Nsg21
I75
sg22
Nsg23
Nsg24
Nsg25
Nsg26
Nssg5
S'G. Shibasaki'
p188
sg28
I25
sg11
Nsg29
Nsg30
S'Japan'
p189
sg32
Nsba(i__main__
Player
p190
(dp191
g18
(dp192
g20
Nsg21
I74
sg22
Nsg23
Nsg24
Nsg25
Nsg26
Nssg5
S'G. Sakai'
p193
sg28
I26
sg11
Nsg29
Nsg30
S'Japan'
p194
sg32
Nsba(i__main__
Player
p195
(dp196
g18
(dp197
g20
Nsg21
I74
sg22
Nsg23
Nsg24
Nsg25
Nsg26
Nssg5
S'T. Usami'
p198
sg28
I25
sg11
Nsg29
Nsg30
S'Japan'
p199
sg32
Nsba(i__main__
Player
p200
(dp201
g18
(dp202
g20
Nsg21
I73
sg22
Nsg23
Nsg24
Nsg25
Nsg26
Nssg5
S'K. Nakamura'
p203
sg28
I36
sg11
Nsg29
Nsg30
S'Japan'
p204
sg32
Nsba(i__main__
Player
p205
(dp206
g18
(dp207
g20
Nsg21
I73
sg22
Nsg23
Nsg24
Nsg25
Nsg26
Nssg5
S'Y. Nagatomo'
p208
sg28
I30
sg11
Nsg29
Nsg30
S'Japan'
p209
sg32
Nsba(i__main__
Player
p210
(dp211
g18
(dp212
g20
Nsg21
I73
sg22
Nsg23
Nsg24
Nsg25
Nsg26
Nssg5
S'G. Shoji'
p213
sg28
I24
sg11
Nsg29
Nsg30
S'Japan'
p214
sg32
Nsba(i__main__
Player
p215
(dp216
g18
(dp217
g20
Nsg21
I72
sg22
Nsg23
Nsg24
Nsg25
Nsg26
Nssg5
S'E. Kawashima'
p218
sg28
I34
sg11
Nsg29
Nsg30
S'Japan'
p219
sg32
Nsba(i__main__
Player
p220
(dp221
g18
(dp222
g20
Nsg21
I72
sg22
Nsg23
Nsg24
Nsg25
Nsg26
Nssg5
S'Y. Endo'
p223
sg28
I37
sg11
Nsg29
Nsg30
S'Japan'
p224
sg32
Nsba(i__main__
Player
p225
(dp226
g18
(dp227
g20
Nsg21
I72
sg22
Nsg23
Nsg24
Nsg25
Nsg26
Nssg5
S'M. Higashiguchi'
p228
sg28
I31
sg11
Nsg29
Nsg30
S'Japan'
p229
sg32
Nsba(i__main__
Player
p230
(dp231
g18
(dp232
g20
Nsg21
I71
sg22
Nsg23
Nsg24
Nsg25
Nsg26
Nssg5
S'S. Nakamura'
p233
sg28
I39
sg11
Nsg29
Nsg30
S'Japan'
p234
sg32
Nsba(i__main__
Player
p235
(dp236
g18
(dp237
g20
Nsg21
I70
sg22
Nsg23
Nsg24
Nsg25
Nsg26
Nssg5
S'H. Yamaguchi'
p238
sg28
I26
sg11
Nsg29
Nsg30
S'Japan'
p239
sg32
Nsba(i__main__
Player
p240
(dp241
g18
(dp242
g20
Nsg21
I70
sg22
Nsg23
Nsg24
Nsg25
Nsg26
Nssg5
S'N. Ueda'
p243
sg28
I22
sg11
Nsg29
Nsg30
S'Japan'
p244
sg32
Nsba(i__main__
Player
p245
(dp246
g18
(dp247
g20
Nsg21
I70
sg22
Nsg23
Nsg24
Nsg25
Nsg26
Nssg5
S'K. Shibasaki'
p248
sg28
I32
sg11
Nsg29
Nsg30
S'Japan'
p249
sg32
Nsba(i__main__
Player
p250
(dp251
g18
(dp252
g20
Nsg21
I69
sg22
Nsg23
Nsg24
Nsg25
Nsg26
Nssg5
S'W. Endo'
p253
sg28
I24
sg11
Nsg29
Nsg30
S'Japan'
p254
sg32
Nsba(i__main__
Player
p255
(dp256
g18
(dp257
g20
Nsg21
I69
sg22
Nsg23
Nsg24
Nsg25
Nsg26
Nssg5
S'T. Makino'
p258
sg28
I30
sg11
Nsg29
Nsg30
S'Japan'
p259
sg32
Nsba(i__main__
Player
p260
(dp261
g18
(dp262
g20
Nsg21
I69
sg22
Nsg23
Nsg24
Nsg25
Nsg26
Nssg5
S'K. Nakamura'
p263
sg28
I22
sg11
Nsg29
Nsg30
S'Japan'
p264
sg32
Nsbasg143
I2
sg144
Nsba(i__main__
Team
p265
(dp266
g3
Nsg4
Nsg5
S'Brazil'
p267
sg7
I0
sg8
I1
sg9
Nsg10
I3
sg11
(lp268
sg13
I0
sg14
(lp269
(i__main__
Player
p270
(dp271
g18
(dp272
g20
Nsg21
I92
sg22
Nsg23
Nsg24
Nsg25
Nsg26
Nssg5
S'Neymar'
p273
sg28
I25
sg11
Nsg29
Nsg30
S'Brazil'
p274
sg32
Nsba(i__main__
Player
p275
(dp276
g18
(dp277
g20
Nsg21
I88
sg22
Nsg23
Nsg24
Nsg25
Nsg26
Nssg5
S'Thiago Silva'
p278
sg28
I32
sg11
Nsg29
Nsg30
S'Brazil'
p279
sg32
Nsba(i__main__
Player
p280
(dp281
g18
(dp282
g20
Nsg21
I86
sg22
Nsg23
Nsg24
Nsg25
Nsg26
Nssg5
S'Coutinho'
p283
sg28
I25
sg11
Nsg29
Nsg30
S'Brazil'
p284
sg32
Nsba(i__main__
Player
p285
(dp286
g18
(dp287
g20
Nsg21
I86
sg22
Nsg23
Nsg24
Nsg25
Nsg26
Nssg5
S'Miranda'
p288
sg28
I32
sg11
Nsg29
Nsg30
S'Brazil'
p289
sg32
Nsba(i__main__
Player
p290
(dp291
g18
(dp292
g20
Nsg21
I85
sg22
Nsg23
Nsg24
Nsg25
Nsg26
Nssg5
S'Casemiro'
p293
sg28
I25
sg11
Nsg29
Nsg30
S'Brazil'
p294
sg32
Nsba(i__main__
Player
p295
(dp296
g18
(dp297
g20
Nsg21
I85
sg22
Nsg23
Nsg24
Nsg25
Nsg26
Nssg5
S'Filipe Lu\xc3\xads'
p298
sg28
I31
sg11
Nsg29
Nsg30
S'Brazil'
p299
sg32
Nsba(i__main__
Player
p300
(dp301
g18
(dp302
g20
Nsg21
I84
sg22
Nsg23
Nsg24
Nsg25
Nsg26
Nssg5
S'Willian'
p303
sg28
I28
sg11
Nsg29
Nsg30
S'Brazil'
p304
sg32
Nsba(i__main__
Player
p305
(dp306
g18
(dp307
g20
Nsg21
I83
sg22
Nsg23
Nsg24
Nsg25
Nsg26
Nssg5
S'Ederson'
p308
sg28
I23
sg11
Nsg29
Nsg30
S'Brazil'
p309
sg32
Nsba(i__main__
Player
p310
(dp311
g18
(dp312
g20
Nsg21
I83
sg22
Nsg23
Nsg24
Nsg25
Nsg26
Nssg5
S'Marquinhos'
p313
sg28
I23
sg11
Nsg29
Nsg30
S'Brazil'
p314
sg32
Nsba(i__main__
Player
p315
(dp316
g18
(dp317
g20
Nsg21
I83
sg22
Nsg23
Nsg24
Nsg25
Nsg26
Nssg5
S'Roberto Firmino'
p318
sg28
I25
sg11
Nsg29
Nsg30
S'Brazil'
p319
sg32
Nsba(i__main__
Player
p320
(dp321
g18
(dp322
g20
Nsg21
I82
sg22
Nsg23
Nsg24
Nsg25
Nsg26
Nssg5
S'Douglas Costa'
p323
sg28
I26
sg11
Nsg29
Nsg30
S'Brazil'
p324
sg32
Nsba(i__main__
Player
p325
(dp326
g18
(dp327
g20
Nsg21
I82
sg22
Nsg23
Nsg24
Nsg25
Nsg26
Nssg5
S'Taison'
p328
sg28
I29
sg11
Nsg29
Nsg30
S'Brazil'
p329
sg32
Nsba(i__main__
Player
p330
(dp331
g18
(dp332
g20
Nsg21
I82
sg22
Nsg23
Nsg24
Nsg25
Nsg26
Nssg5
S'Fernandinho'
p333
sg28
I32
sg11
Nsg29
Nsg30
S'Brazil'
p334
sg32
Nsba(i__main__
Player
p335
(dp336
g18
(dp337
g20
Nsg21
I81
sg22
Nsg23
Nsg24
Nsg25
Nsg26
Nssg5
S'Gabriel Jesus'
p338
sg28
I20
sg11
Nsg29
Nsg30
S'Brazil'
p339
sg32
Nsba(i__main__
Player
p340
(dp341
g18
(dp342
g20
Nsg21
I81
sg22
Nsg23
Nsg24
Nsg25
Nsg26
Nssg5
S'Paulinho'
p343
sg28
I28
sg11
Nsg29
Nsg30
S'Brazil'
p344
sg32
Nsba(i__main__
Player
p345
(dp346
g18
(dp347
g20
Nsg21
I80
sg22
Nsg23
Nsg24
Nsg25
Nsg26
Nssg5
S'Alisson'
p348
sg28
I24
sg11
Nsg29
Nsg30
S'Brazil'
p349
sg32
Nsba(i__main__
Player
p350
(dp351
g18
(dp352
g20
Nsg21
I80
sg22
Nsg23
Nsg24
Nsg25
Nsg26
Nssg5
S'Fred'
p353
sg28
I24
sg11
Nsg29
Nsg30
S'Brazil'
p354
sg32
Nsba(i__main__
Player
p355
(dp356
g18
(dp357
g20
Nsg21
I80
sg22
Nsg23
Nsg24
Nsg25
Nsg26
Nssg5
S'Renato Augusto'
p358
sg28
I29
sg11
Nsg29
Nsg30
S'Brazil'
p359
sg32
Nsba(i__main__
Player
p360
(dp361
g18
(dp362
g20
Nsg21
I79
sg22
Nsg23
Nsg24
Nsg25
Nsg26
Nssg5
S'Danilo'
p363
sg28
I33
sg11
Nsg29
Nsg30
S'Brazil'
p364
sg32
Nsba(i__main__
Player
p365
(dp366
g18
(dp367
g20
Nsg21
I78
sg22
Nsg23
Nsg24
Nsg25
Nsg26
Nssg5
S'Danilo'
p368
sg28
I25
sg11
Nsg29
Nsg30
S'Brazil'
p369
sg32
Nsba(i__main__
Player
p370
(dp371
g18
(dp372
g20
Nsg21
I78
sg22
Nsg23
Nsg24
Nsg25
Nsg26
Nssg5
S'Danilo'
p373
sg28
I25
sg11
Nsg29
Nsg30
S'Brazil'
p374
sg32
Nsba(i__main__
Player
p375
(dp376
g18
(dp377
g20
Nsg21
I77
sg22
Nsg23
Nsg24
Nsg25
Nsg26
Nssg5
S'Juan Jesus'
p378
sg28
I26
sg11
Nsg29
Nsg30
S'Brazil'
p379
sg32
Nsba(i__main__
Player
p380
(dp381
g18
(dp382
g20
Nsg21
I75
sg22
Nsg23
Nsg24
Nsg25
Nsg26
Nssg5
S'C\xc3\xa1ssio'
p383
sg28
I36
sg11
Nsg29
Nsg30
S'Brazil'
p384
sg32
Nsbasg143
I2
sg144
Nsba(i__main__
Team
p385
(dp386
g3
Nsg4
Nsg5
S'Sweden'
p387
sg7
I0
sg8
I1
sg9
Nsg10
I3
sg11
(lp388
sg13
I0
sg14
(lp389
(i__main__
Player
p390
(dp391
g18
(dp392
g20
Nsg21
I83
sg22
Nsg23
Nsg24
Nsg25
Nsg26
Nssg5
S'E. Forsberg'
p393
sg28
I25
sg11
Nsg29
Nsg30
S'Sweden'
p394
sg32
Nsba(i__main__
Player
p395
(dp396
g18
(dp397
g20
Nsg21
I80
sg22
Nsg23
Nsg24
Nsg25
Nsg26
Nssg5
S'M. Berg'
p398
sg28
I30
sg11
Nsg29
Nsg30
S'Sweden'
p399
sg32
Nsba(i__main__
Player
p400
(dp401
g18
(dp402
g20
Nsg21
I79
sg22
Nsg23
Nsg24
Nsg25
Nsg26
Nssg5
S'V. Lindel\xc3\xb6f'
p403
sg28
I22
sg11
Nsg29
Nsg30
S'Sweden'
p404
sg32
Nsba(i__main__
Player
p405
(dp406
g18
(dp407
g20
Nsg21
I78
sg22
Nsg23
Nsg24
Nsg25
Nsg26
Nssg5
S'J. Guidetti'
p408
sg28
I25
sg11
Nsg29
Nsg30
S'Sweden'
p409
sg32
Nsba(i__main__
Player
p410
(dp411
g18
(dp412
g20
Nsg21
I78
sg22
Nsg23
Nsg24
Nsg25
Nsg26
Nssg5
S'J. Guidetti'
p413
sg28
I25
sg11
Nsg29
Nsg30
S'Sweden'
p414
sg32
Nsba(i__main__
Player
p415
(dp416
g18
(dp417
g20
Nsg21
I77
sg22
Nsg23
Nsg24
Nsg25
Nsg26
Nssg5
S'P. Jansson'
p418
sg28
I26
sg11
Nsg29
Nsg30
S'Sweden'
p419
sg32
Nsba(i__main__
Player
p420
(dp421
g18
(dp422
g20
Nsg21
I76
sg22
Nsg23
Nsg24
Nsg25
Nsg26
Nssg5
S'J. Olsson'
p423
sg28
I34
sg11
Nsg29
Nsg30
S'Sweden'
p424
sg32
Nsba(i__main__
Player
p425
(dp426
g18
(dp427
g20
Nsg21
I76
sg22
Nsg23
Nsg24
Nsg25
Nsg26
Nssg5
S'A. Ekdal'
p428
sg28
I27
sg11
Nsg29
Nsg30
S'Sweden'
p429
sg32
Nsba(i__main__
Player
p430
(dp431
g18
(dp432
g20
Nsg21
I76
sg22
Nsg23
Nsg24
Nsg25
Nsg26
Nssg5
S'S. Larsson'
p433
sg28
I24
sg11
Nsg29
Nsg30
S'Sweden'
p434
sg32
Nsba(i__main__
Player
p435
(dp436
g18
(dp437
g20
Nsg21
I75
sg22
Nsg23
Nsg24
Nsg25
Nsg26
Nssg5
S'J. Durmaz'
p438
sg28
I28
sg11
Nsg29
Nsg30
S'Sweden'
p439
sg32
Nsba(i__main__
Player
p440
(dp441
g18
(dp442
g20
Nsg21
I75
sg22
Nsg23
Nsg24
Nsg25
Nsg26
Nssg5
S'M. Olsson'
p443
sg28
I29
sg11
Nsg29
Nsg30
S'Sweden'
p444
sg32
Nsba(i__main__
Player
p445
(dp446
g18
(dp447
g20
Nsg21
I75
sg22
Nsg23
Nsg24
Nsg25
Nsg26
Nssg5
S'O. Toivonen'
p448
sg28
I30
sg11
Nsg29
Nsg30
S'Sweden'
p449
sg32
Nsba(i__main__
Player
p450
(dp451
g18
(dp452
g20
Nsg21
I75
sg22
Nsg23
Nsg24
Nsg25
Nsg26
Nssg5
S'K. Johnsson'
p453
sg28
I27
sg11
Nsg29
Nsg30
S'Sweden'
p454
sg32
Nsba(i__main__
Player
p455
(dp456
g18
(dp457
g20
Nsg21
I74
sg22
Nsg23
Nsg24
Nsg25
Nsg26
Nssg5
S'G. Svensson'
p458
sg28
I30
sg11
Nsg29
Nsg30
S'Sweden'
p459
sg32
Nsba(i__main__
Player
p460
(dp461
g18
(dp462
g20
Nsg21
I74
sg22
Nsg23
Nsg24
Nsg25
Nsg26
Nssg5
S'S. Larsson'
p463
sg28
I32
sg11
Nsg29
Nsg30
S'Sweden'
p464
sg32
Nsba(i__main__
Player
p465
(dp466
g18
(dp467
g20
Nsg21
I74
sg22
Nsg23
Nsg24
Nsg25
Nsg26
Nssg5
S'J. Johansson'
p468
sg28
I27
sg11
Nsg29
Nsg30
S'Sweden'
p469
sg32
Nsba(i__main__
Player
p470
(dp471
g18
(dp472
g20
Nsg21
I74
sg22
Nsg23
Nsg24
Nsg25
Nsg26
Nssg5
S'R. Olsen'
p473
sg28
I27
sg11
Nsg29
Nsg30
S'Sweden'
p474
sg32
Nsba(i__main__
Player
p475
(dp476
g18
(dp477
g20
Nsg21
I73
sg22
Nsg23
Nsg24
Nsg25
Nsg26
Nssg5
S'A. Johansson'
p478
sg28
I35
sg11
Nsg29
Nsg30
S'Sweden'
p479
sg32
Nsba(i__main__
Player
p480
(dp481
g18
(dp482
g20
Nsg21
I73
sg22
Nsg23
Nsg24
Nsg25
Nsg26
Nssg5
S'E. Krafth'
p483
sg28
I22
sg11
Nsg29
Nsg30
S'Sweden'
p484
sg32
Nsba(i__main__
Player
p485
(dp486
g18
(dp487
g20
Nsg21
I73
sg22
Nsg23
Nsg24
Nsg25
Nsg26
Nssg5
S'M. Lustig'
p488
sg28
I30
sg11
Nsg29
Nsg30
S'Sweden'
p489
sg32
Nsba(i__main__
Player
p490
(dp491
g18
(dp492
g20
Nsg21
I73
sg22
Nsg23
Nsg24
Nsg25
Nsg26
Nssg5
S'K. Nordfeldt'
p493
sg28
I28
sg11
Nsg29
Nsg30
S'Sweden'
p494
sg32
Nsba(i__main__
Player
p495
(dp496
g18
(dp497
g20
Nsg21
I73
sg22
Nsg23
Nsg24
Nsg25
Nsg26
Nssg5
S'N. Johansson'
p498
sg28
I37
sg11
Nsg29
Nsg30
S'Sweden'
p499
sg32
Nsba(i__main__
Player
p500
(dp501
g18
(dp502
g20
Nsg21
I73
sg22
Nsg23
Nsg24
Nsg25
Nsg26
Nssg5
S'O. Hiljemark'
p503
sg28
I25
sg11
Nsg29
Nsg30
S'Sweden'
p504
sg32
Nsbasg143
I2
sg144
Nsba(i__main__
Team
p505
(dp506
g3
Nsg4
Nsg5
S'Germany'
p507
sg7
I0
sg8
I1
sg9
Nsg10
I3
sg11
(lp508
sg13
I0
sg14
(lp509
(i__main__
Player
p510
(dp511
g18
(dp512
g20
Nsg21
I90
sg22
Nsg23
Nsg24
Nsg25
Nsg26
Nssg5
S'T. Kroos'
p513
sg28
I27
sg11
Nsg29
Nsg30
S'Germany'
p514
sg32
Nsba(i__main__
Player
p515
(dp516
g18
(dp517
g20
Nsg21
I88
sg22
Nsg23
Nsg24
Nsg25
Nsg26
Nssg5
S'J. Boateng'
p518
sg28
I28
sg11
Nsg29
Nsg30
S'Germany'
p519
sg32
Nsba(i__main__
Player
p520
(dp521
g18
(dp522
g20
Nsg21
I88
sg22
Nsg23
Nsg24
Nsg25
Nsg26
Nssg5
S'M. Hummels'
p523
sg28
I28
sg11
Nsg29
Nsg30
S'Germany'
p524
sg32
Nsba(i__main__
Player
p525
(dp526
g18
(dp527
g20
Nsg21
I88
sg22
Nsg23
Nsg24
Nsg25
Nsg26
Nssg5
S'M. \xc3\x96zil'
p528
sg28
I28
sg11
Nsg29
Nsg30
S'Germany'
p529
sg32
Nsba(i__main__
Player
p530
(dp531
g18
(dp532
g20
Nsg21
I86
sg22
Nsg23
Nsg24
Nsg25
Nsg26
Nssg5
S'T. M\xc3\xbcller'
p533
sg28
I27
sg11
Nsg29
Nsg30
S'Germany'
p534
sg32
Nsba(i__main__
Player
p535
(dp536
g18
(dp537
g20
Nsg21
I86
sg22
Nsg23
Nsg24
Nsg25
Nsg26
Nssg5
S'M. Reus'
p538
sg28
I28
sg11
Nsg29
Nsg30
S'Germany'
p539
sg32
Nsba(i__main__
Player
p540
(dp541
g18
(dp542
g20
Nsg21
I85
sg22
Nsg23
Nsg24
Nsg25
Nsg26
Nssg5
S'M. ter Stegen'
p543
sg28
I25
sg11
Nsg29
Nsg30
S'Germany'
p544
sg32
Nsba(i__main__
Player
p545
(dp546
g18
(dp547
g20
Nsg21
I85
sg22
Nsg23
Nsg24
Nsg25
Nsg26
Nssg5
S'I. G\xc3\xbcndo\xc4\x9fan'
p548
sg28
I26
sg11
Nsg29
Nsg30
S'Germany'
p549
sg32
Nsba(i__main__
Player
p550
(dp551
g18
(dp552
g20
Nsg21
I84
sg22
Nsg23
Nsg24
Nsg25
Nsg26
Nssg5
S'J. Draxler'
p553
sg28
I23
sg11
Nsg29
Nsg30
S'Germany'
p554
sg32
Nsba(i__main__
Player
p555
(dp556
g18
(dp557
g20
Nsg21
I84
sg22
Nsg23
Nsg24
Nsg25
Nsg26
Nssg5
S'S. Khedira'
p558
sg28
I30
sg11
Nsg29
Nsg30
S'Germany'
p559
sg32
Nsba(i__main__
Player
p560
(dp561
g18
(dp562
g20
Nsg21
I83
sg22
Nsg23
Nsg24
Nsg25
Nsg26
Nssg5
S'N. S\xc3\xbcle'
p563
sg28
I21
sg11
Nsg29
Nsg30
S'Germany'
p564
sg32
Nsba(i__main__
Player
p565
(dp566
g18
(dp567
g20
Nsg21
I82
sg22
Nsg23
Nsg24
Nsg25
Nsg26
Nssg5
S'T. Werner'
p568
sg28
I21
sg11
Nsg29
Nsg30
S'Germany'
p569
sg32
Nsba(i__main__
Player
p570
(dp571
g18
(dp572
g20
Nsg21
I82
sg22
Nsg23
Nsg24
Nsg25
Nsg26
Nssg5
S'L. Goretzka'
p573
sg28
I22
sg11
Nsg29
Nsg30
S'Germany'
p574
sg32
Nsba(i__main__
Player
p575
(dp576
g18
(dp577
g20
Nsg21
I82
sg22
Nsg23
Nsg24
Nsg25
Nsg26
Nssg5
S'A. R\xc3\xbcdiger'
p578
sg28
I24
sg11
Nsg29
Nsg30
S'Germany'
p579
sg32
Nsba(i__main__
Player
p580
(dp581
g18
(dp582
g20
Nsg21
I82
sg22
Nsg23
Nsg24
Nsg25
Nsg26
Nssg5
S'K. Trapp'
p583
sg28
I26
sg11
Nsg29
Nsg30
S'Germany'
p584
sg32
Nsba(i__main__
Player
p585
(dp586
g18
(dp587
g20
Nsg21
I82
sg22
Nsg23
Nsg24
Nsg25
Nsg26
Nssg5
S'M. G\xc3\xb3mez'
p588
sg28
I31
sg11
Nsg29
Nsg30
S'Germany'
p589
sg32
Nsba(i__main__
Player
p590
(dp591
g18
(dp592
g20
Nsg21
I81
sg22
Nsg23
Nsg24
Nsg25
Nsg26
Nssg5
S'J. Kimmich'
p593
sg28
I22
sg11
Nsg29
Nsg30
S'Germany'
p594
sg32
Nsba(i__main__
Player
p595
(dp596
g18
(dp597
g20
Nsg21
I81
sg22
Nsg23
Nsg24
Nsg25
Nsg26
Nssg5
S'S. Rudy'
p598
sg28
I27
sg11
Nsg29
Nsg30
S'Germany'
p599
sg32
Nsba(i__main__
Player
p600
(dp601
g18
(dp602
g20
Nsg21
I80
sg22
Nsg23
Nsg24
Nsg25
Nsg26
Nssg5
S'J. Brandt'
p603
sg28
I21
sg11
Nsg29
Nsg30
S'Germany'
p604
sg32
Nsba(i__main__
Player
p605
(dp606
g18
(dp607
g20
Nsg21
I80
sg22
Nsg23
Nsg24
Nsg25
Nsg26
Nssg5
S'J. Hector'
p608
sg28
I27
sg11
Nsg29
Nsg30
S'Germany'
p609
sg32
Nsba(i__main__
Player
p610
(dp611
g18
(dp612
g20
Nsg21
I78
sg22
Nsg23
Nsg24
Nsg25
Nsg26
Nssg5
S'M. Ginter'
p613
sg28
I23
sg11
Nsg29
Nsg30
S'Germany'
p614
sg32
Nsba(i__main__
Player
p615
(dp616
g18
(dp617
g20
Nsg21
I78
sg22
Nsg23
Nsg24
Nsg25
Nsg26
Nssg5
S'M. Ginter'
p618
sg28
I23
sg11
Nsg29
Nsg30
S'Germany'
p619
sg32
Nsba(i__main__
Player
p620
(dp621
g18
(dp622
g20
Nsg21
I73
sg22
Nsg23
Nsg24
Nsg25
Nsg26
Nssg5
S'F. Kroos'
p623
sg28
I26
sg11
Nsg29
Nsg30
S'Germany'
p624
sg32
Nsbasg143
I2
sg144
Nsba(i__main__
Team
p625
(dp626
g3
Nsg4
Nsg5
S'Senegal'
p627
sg7
I0
sg8
I1
sg9
Nsg10
I3
sg11
(lp628
sg13
I0
sg14
(lp629
(i__main__
Player
p630
(dp631
g18
(dp632
g20
Nsg21
I84
sg22
Nsg23
Nsg24
Nsg25
Nsg26
Nssg5
S'S. Man\xc3\xa9'
p633
sg28
I25
sg11
Nsg29
Nsg30
S'Senegal'
p634
sg32
Nsba(i__main__
Player
p635
(dp636
g18
(dp637
g20
Nsg21
I84
sg22
Nsg23
Nsg24
Nsg25
Nsg26
Nssg5
S'K. Koulibaly'
p638
sg28
I26
sg11
Nsg29
Nsg30
S'Senegal'
p639
sg32
Nsba(i__main__
Player
p640
(dp641
g18
(dp642
g20
Nsg21
I83
sg22
Nsg23
Nsg24
Nsg25
Nsg26
Nssg5
S'I. Gueye'
p643
sg28
I27
sg11
Nsg29
Nsg30
S'Senegal'
p644
sg32
Nsba(i__main__
Player
p645
(dp646
g18
(dp647
g20
Nsg21
I79
sg22
Nsg23
Nsg24
Nsg25
Nsg26
Nssg5
S'S. San\xc3\xa9'
p648
sg28
I26
sg11
Nsg29
Nsg30
S'Senegal'
p649
sg32
Nsba(i__main__
Player
p650
(dp651
g18
(dp652
g20
Nsg21
I78
sg22
Nsg23
Nsg24
Nsg25
Nsg26
Nssg5
S'K. Mbodj'
p653
sg28
I27
sg11
Nsg29
Nsg30
S'Senegal'
p654
sg32
Nsba(i__main__
Player
p655
(dp656
g18
(dp657
g20
Nsg21
I78
sg22
Nsg23
Nsg24
Nsg25
Nsg26
Nssg5
S'K. Mbodj'
p658
sg28
I27
sg11
Nsg29
Nsg30
S'Senegal'
p659
sg32
Nsba(i__main__
Player
p660
(dp661
g18
(dp662
g20
Nsg21
I78
sg22
Nsg23
Nsg24
Nsg25
Nsg26
Nssg5
S"A. N'Diaye"
p663
sg28
I27
sg11
Nsg29
Nsg30
S'Senegal'
p664
sg32
Nsba(i__main__
Player
p665
(dp666
g18
(dp667
g20
Nsg21
I77
sg22
Nsg23
Nsg24
Nsg25
Nsg26
Nssg5
S'Badou Ndiaye'
p668
sg28
I26
sg11
Nsg29
Nsg30
S'Senegal'
p669
sg32
Nsba(i__main__
Player
p670
(dp671
g18
(dp672
g20
Nsg21
I77
sg22
Nsg23
Nsg24
Nsg25
Nsg26
Nssg5
S'L. San\xc3\xa9'
p673
sg28
I30
sg11
Nsg29
Nsg30
S'Senegal'
p674
sg32
Nsba(i__main__
Player
p675
(dp676
g18
(dp677
g20
Nsg21
I77
sg22
Nsg23
Nsg24
Nsg25
Nsg26
Nssg5
S'M. Diouf'
p678
sg28
I29
sg11
Nsg29
Nsg30
S'Senegal'
p679
sg32
Nsba(i__main__
Player
p680
(dp681
g18
(dp682
g20
Nsg21
I76
sg22
Nsg23
Nsg24
Nsg25
Nsg26
Nssg5
S"C. N'Doye"
p683
sg28
I31
sg11
Nsg29
Nsg30
S'Senegal'
p684
sg32
Nsba(i__main__
Player
p685
(dp686
g18
(dp687
g20
Nsg21
I75
sg22
Nsg23
Nsg24
Nsg25
Nsg26
Nssg5
S'D. Sakho'
p688
sg28
I27
sg11
Nsg29
Nsg30
S'Senegal'
p689
sg32
Nsba(i__main__
Player
p690
(dp691
g18
(dp692
g20
Nsg21
I74
sg22
Nsg23
Nsg24
Nsg25
Nsg26
Nssg5
S'M. Konat\xc3\xa9'
p693
sg28
I24
sg11
Nsg29
Nsg30
S'Senegal'
p694
sg32
Nsba(i__main__
Player
p695
(dp696
g18
(dp697
g20
Nsg21
I73
sg22
Nsg23
Nsg24
Nsg25
Nsg26
Nssg5
S'I. Sarr'
p698
sg28
I19
sg11
Nsg29
Nsg30
S'Senegal'
p699
sg32
Nsba(i__main__
Player
p700
(dp701
g18
(dp702
g20
Nsg21
I73
sg22
Nsg23
Nsg24
Nsg25
Nsg26
Nssg5
S'A. Gomis'
p703
sg28
I23
sg11
Nsg29
Nsg30
S'Senegal'
p704
sg32
Nsba(i__main__
Player
p705
(dp706
g18
(dp707
g20
Nsg21
I72
sg22
Nsg23
Nsg24
Nsg25
Nsg26
Nssg5
S'M. Diallo'
p708
sg28
I31
sg11
Nsg29
Nsg30
S'Senegal'
p709
sg32
Nsba(i__main__
Player
p710
(dp711
g18
(dp712
g20
Nsg21
I71
sg22
Nsg23
Nsg24
Nsg25
Nsg26
Nssg5
S'B. Sarr'
p713
sg28
I26
sg11
Nsg29
Nsg30
S'Senegal'
p714
sg32
Nsba(i__main__
Player
p715
(dp716
g18
(dp717
g20
Nsg21
I71
sg22
Nsg23
Nsg24
Nsg25
Nsg26
Nssg5
S'P. San\xc3\xa9'
p718
sg28
I25
sg11
Nsg29
Nsg30
S'Senegal'
p719
sg32
Nsba(i__main__
Player
p720
(dp721
g18
(dp722
g20
Nsg21
I71
sg22
Nsg23
Nsg24
Nsg25
Nsg26
Nssg5
S"D. N'Doye"
p723
sg28
I32
sg11
Nsg29
Nsg30
S'Senegal'
p724
sg32
Nsba(i__main__
Player
p725
(dp726
g18
(dp727
g20
Nsg21
I71
sg22
Nsg23
Nsg24
Nsg25
Nsg26
Nssg5
S'I. Sarr'
p728
sg28
I30
sg11
Nsg29
Nsg30
S'Senegal'
p729
sg32
Nsba(i__main__
Player
p730
(dp731
g18
(dp732
g20
Nsg21
I70
sg22
Nsg23
Nsg24
Nsg25
Nsg26
Nssg5
S'A. Diallo'
p733
sg28
I25
sg11
Nsg29
Nsg30
S'Senegal'
p734
sg32
Nsba(i__main__
Player
p735
(dp736
g18
(dp737
g20
Nsg21
I70
sg22
Nsg23
Nsg24
Nsg25
Nsg26
Nssg5
S'V. San\xc3\xa9'
p738
sg28
I27
sg11
Nsg29
Nsg30
S'Senegal'
p739
sg32
Nsba(i__main__
Player
p740
(dp741
g18
(dp742
g20
Nsg21
I68
sg22
Nsg23
Nsg24
Nsg25
Nsg26
Nssg5
S'A. Mbengue'
p743
sg28
I25
sg11
Nsg29
Nsg30
S'Senegal'
p744
sg32
Nsbasg143
I2
sg144
Nsba(i__main__
Team
p745
(dp746
g3
Nsg4
Nsg5
S'South Korea'
p747
sg7
I0
sg8
I1
sg9
Nsg10
I3
sg11
(lp748
sg13
I0
sg14
(lp749
(i__main__
Player
p750
(dp751
g18
(dp752
g20
Nsg21
I65
sg22
Nsg23
Nsg24
Nsg25
Nsg26
Nssg5
S'Dummy boy'
p753
sg28
I25
sg11
Nsg29
Nsg30
g747
sg32
Nsba(i__main__
Player
p754
(dp755
g18
(dp756
g20
Nsg21
I65
sg22
Nsg23
Nsg24
Nsg25
Nsg26
Nssg5
S'Almost a dummy boy'
p757
sg28
I25
sg11
Nsg29
Nsg30
g747
sg32
Nsba(i__main__
Player
p758
(dp759
g18
(dp760
g20
Nsg21
I65
sg22
Nsg23
Nsg24
Nsg25
Nsg26
Nssg5
g757
sg28
I25
sg11
Nsg29
Nsg30
g747
sg32
Nsba(i__main__
Player
p761
(dp762
g18
(dp763
g20
Nsg21
I65
sg22
Nsg23
Nsg24
Nsg25
Nsg26
Nssg5
g757
sg28
I25
sg11
Nsg29
Nsg30
g747
sg32
Nsba(i__main__
Player
p764
(dp765
g18
(dp766
g20
Nsg21
I65
sg22
Nsg23
Nsg24
Nsg25
Nsg26
Nssg5
g757
sg28
I25
sg11
Nsg29
Nsg30
g747
sg32
Nsba(i__main__
Player
p767
(dp768
g18
(dp769
g20
Nsg21
I65
sg22
Nsg23
Nsg24
Nsg25
Nsg26
Nssg5
g757
sg28
I25
sg11
Nsg29
Nsg30
g747
sg32
Nsba(i__main__
Player
p770
(dp771
g18
(dp772
g20
Nsg21
I65
sg22
Nsg23
Nsg24
Nsg25
Nsg26
Nssg5
g757
sg28
I25
sg11
Nsg29
Nsg30
g747
sg32
Nsba(i__main__
Player
p773
(dp774
g18
(dp775
g20
Nsg21
I65
sg22
Nsg23
Nsg24
Nsg25
Nsg26
Nssg5
g757
sg28
I25
sg11
Nsg29
Nsg30
g747
sg32
Nsba(i__main__
Player
p776
(dp777
g18
(dp778
g20
Nsg21
I65
sg22
Nsg23
Nsg24
Nsg25
Nsg26
Nssg5
g757
sg28
I25
sg11
Nsg29
Nsg30
g747
sg32
Nsba(i__main__
Player
p779
(dp780
g18
(dp781
g20
Nsg21
I65
sg22
Nsg23
Nsg24
Nsg25
Nsg26
Nssg5
g757
sg28
I25
sg11
Nsg29
Nsg30
g747
sg32
Nsba(i__main__
Player
p782
(dp783
g18
(dp784
g20
Nsg21
I65
sg22
Nsg23
Nsg24
Nsg25
Nsg26
Nssg5
g757
sg28
I25
sg11
Nsg29
Nsg30
g747
sg32
Nsba(i__main__
Player
p785
(dp786
g18
(dp787
g20
Nsg21
I65
sg22
Nsg23
Nsg24
Nsg25
Nsg26
Nssg5
g757
sg28
I25
sg11
Nsg29
Nsg30
g747
sg32
Nsba(i__main__
Player
p788
(dp789
g18
(dp790
g20
Nsg21
I65
sg22
Nsg23
Nsg24
Nsg25
Nsg26
Nssg5
g757
sg28
I25
sg11
Nsg29
Nsg30
g747
sg32
Nsba(i__main__
Player
p791
(dp792
g18
(dp793
g20
Nsg21
I65
sg22
Nsg23
Nsg24
Nsg25
Nsg26
Nssg5
g757
sg28
I25
sg11
Nsg29
Nsg30
g747
sg32
Nsba(i__main__
Player
p794
(dp795
g18
(dp796
g20
Nsg21
I65
sg22
Nsg23
Nsg24
Nsg25
Nsg26
Nssg5
g757
sg28
I25
sg11
Nsg29
Nsg30
g747
sg32
Nsba(i__main__
Player
p797
(dp798
g18
(dp799
g20
Nsg21
I65
sg22
Nsg23
Nsg24
Nsg25
Nsg26
Nssg5
g757
sg28
I25
sg11
Nsg29
Nsg30
g747
sg32
Nsba(i__main__
Player
p800
(dp801
g18
(dp802
g20
Nsg21
I65
sg22
Nsg23
Nsg24
Nsg25
Nsg26
Nssg5
g757
sg28
I25
sg11
Nsg29
Nsg30
g747
sg32
Nsba(i__main__
Player
p803
(dp804
g18
(dp805
g20
Nsg21
I65
sg22
Nsg23
Nsg24
Nsg25
Nsg26
Nssg5
g757
sg28
I25
sg11
Nsg29
Nsg30
g747
sg32
Nsba(i__main__
Player
p806
(dp807
g18
(dp808
g20
Nsg21
I65
sg22
Nsg23
Nsg24
Nsg25
Nsg26
Nssg5
g757
sg28
I25
sg11
Nsg29
Nsg30
g747
sg32
Nsba(i__main__
Player
p809
(dp810
g18
(dp811
g20
Nsg21
I65
sg22
Nsg23
Nsg24
Nsg25
Nsg26
Nssg5
g757
sg28
I25
sg11
Nsg29
Nsg30
g747
sg32
Nsba(i__main__
Player
p812
(dp813
g18
(dp814
g20
Nsg21
I65
sg22
Nsg23
Nsg24
Nsg25
Nsg26
Nssg5
g757
sg28
I25
sg11
Nsg29
Nsg30
g747
sg32
Nsba(i__main__
Player
p815
(dp816
g18
(dp817
g20
Nsg21
I65
sg22
Nsg23
Nsg24
Nsg25
Nsg26
Nssg5
g757
sg28
I25
sg11
Nsg29
Nsg30
g747
sg32
Nsba(i__main__
Player
p818
(dp819
g18
(dp820
g20
Nsg21
I65
sg22
Nsg23
Nsg24
Nsg25
Nsg26
Nssg5
g757
sg28
I25
sg11
Nsg29
Nsg30
g747
sg32
Nsbasg143
I2
sg144
Nsba(i__main__
Team
p821
(dp822
g3
Nsg4
Nsg5
S'Morocco'
p823
sg7
I0
sg8
I1
sg9
Nsg10
I3
sg11
(lp824
sg13
I0
sg14
(lp825
(i__main__
Player
p826
(dp827
g18
(dp828
g20
Nsg21
I81
sg22
Nsg23
Nsg24
Nsg25
Nsg26
Nssg5
S'H. Ziyech'
p829
sg28
I24
sg11
Nsg29
Nsg30
S'Morocco'
p830
sg32
Nsba(i__main__
Player
p831
(dp832
g18
(dp833
g20
Nsg21
I81
sg22
Nsg23
Nsg24
Nsg25
Nsg26
Nssg5
S'Y. Belhanda'
p834
sg28
I27
sg11
Nsg29
Nsg30
S'Morocco'
p835
sg32
Nsba(i__main__
Player
p836
(dp837
g18
(dp838
g20
Nsg21
I80
sg22
Nsg23
Nsg24
Nsg25
Nsg26
Nssg5
S'K. El Ahmadi'
p839
sg28
I32
sg11
Nsg29
Nsg30
S'Morocco'
p840
sg32
Nsba(i__main__
Player
p841
(dp842
g18
(dp843
g20
Nsg21
I79
sg22
Nsg23
Nsg24
Nsg25
Nsg26
Nssg5
S'N. Amrabat'
p844
sg28
I30
sg11
Nsg29
Nsg30
S'Morocco'
p845
sg32
Nsba(i__main__
Player
p846
(dp847
g18
(dp848
g20
Nsg21
I76
sg22
Nsg23
Nsg24
Nsg25
Nsg26
Nssg5
S'N. Dirar'
p849
sg28
I31
sg11
Nsg29
Nsg30
S'Morocco'
p850
sg32
Nsba(i__main__
Player
p851
(dp852
g18
(dp853
g20
Nsg21
I76
sg22
Nsg23
Nsg24
Nsg25
Nsg26
Nssg5
S'R. Sa\xc3\xafss'
p854
sg28
I27
sg11
Nsg29
Nsg30
S'Morocco'
p855
sg32
Nsba(i__main__
Player
p856
(dp857
g18
(dp858
g20
Nsg21
I75
sg22
Nsg23
Nsg24
Nsg25
Nsg26
Nssg5
S'F. Fajr'
p859
sg28
I28
sg11
Nsg29
Nsg30
S'Morocco'
p860
sg32
Nsba(i__main__
Player
p861
(dp862
g18
(dp863
g20
Nsg21
I74
sg22
Nsg23
Nsg24
Nsg25
Nsg26
Nssg5
S'S. Amrabat'
p864
sg28
I20
sg11
Nsg29
Nsg30
S'Morocco'
p865
sg32
Nsba(i__main__
Player
p866
(dp867
g18
(dp868
g20
Nsg21
I73
sg22
Nsg23
Nsg24
Nsg25
Nsg26
Nssg5
S'A. Bouhaddouz'
p869
sg28
I30
sg11
Nsg29
Nsg30
S'Morocco'
p870
sg32
Nsba(i__main__
Player
p871
(dp872
g18
(dp873
g20
Nsg21
I72
sg22
Nsg23
Nsg24
Nsg25
Nsg26
Nssg5
S'Manuel da Costa'
p874
sg28
I31
sg11
Nsg29
Nsg30
S'Morocco'
p875
sg32
Nsba(i__main__
Player
p876
(dp877
g18
(dp878
g20
Nsg21
I72
sg22
Nsg23
Nsg24
Nsg25
Nsg26
Nssg5
S'Y. Ait Bennasser'
p879
sg28
I20
sg11
Nsg29
Nsg30
S'Morocco'
p880
sg32
Nsba(i__main__
Player
p881
(dp882
g18
(dp883
g20
Nsg21
I71
sg22
Nsg23
Nsg24
Nsg25
Nsg26
Nssg5
S'K. Bouta\xc3\xafb'
p884
sg28
I30
sg11
Nsg29
Nsg30
S'Morocco'
p885
sg32
Nsba(i__main__
Player
p886
(dp887
g18
(dp888
g20
Nsg21
I71
sg22
Nsg23
Nsg24
Nsg25
Nsg26
Nssg5
S'Y. Bounou'
p889
sg28
I26
sg11
Nsg29
Nsg30
S'Morocco'
p890
sg32
Nsba(i__main__
Player
p891
(dp892
g18
(dp893
g20
Nsg21
I71
sg22
Nsg23
Nsg24
Nsg25
Nsg26
Nssg5
S'A. Harit'
p894
sg28
I20
sg11
Nsg29
Nsg30
S'Morocco'
p895
sg32
Nsba(i__main__
Player
p896
(dp897
g18
(dp898
g20
Nsg21
I71
sg22
Nsg23
Nsg24
Nsg25
Nsg26
Nssg5
S'A. Hakimi'
p899
sg28
I18
sg11
Nsg29
Nsg30
S'Morocco'
p900
sg32
Nsba(i__main__
Player
p901
(dp902
g18
(dp903
g20
Nsg21
I69
sg22
Nsg23
Nsg24
Nsg25
Nsg26
Nssg5
S'Y. En-Nesyri'
p904
sg28
I20
sg11
Nsg29
Nsg30
S'Morocco'
p905
sg32
Nsba(i__main__
Player
p906
(dp907
g18
(dp908
g20
Nsg21
I63
sg22
Nsg23
Nsg24
Nsg25
Nsg26
Nssg5
S'H. Mendyl'
p909
sg28
I19
sg11
Nsg29
Nsg30
S'Morocco'
p910
sg32
Nsba(i__main__
Player
p911
(dp912
g18
(dp913
g20
Nsg21
I73
sg22
Nsg23
Nsg24
Nsg25
Nsg26
Nssg5
g757
sg28
I25
sg11
Nsg29
Nsg30
g823
sg32
Nsba(i__main__
Player
p914
(dp915
g18
(dp916
g20
Nsg21
I73
sg22
Nsg23
Nsg24
Nsg25
Nsg26
Nssg5
g757
sg28
I25
sg11
Nsg29
Nsg30
g823
sg32
Nsba(i__main__
Player
p917
(dp918
g18
(dp919
g20
Nsg21
I73
sg22
Nsg23
Nsg24
Nsg25
Nsg26
Nssg5
g757
sg28
I25
sg11
Nsg29
Nsg30
g823
sg32
Nsba(i__main__
Player
p920
(dp921
g18
(dp922
g20
Nsg21
I73
sg22
Nsg23
Nsg24
Nsg25
Nsg26
Nssg5
g757
sg28
I25
sg11
Nsg29
Nsg30
g823
sg32
Nsba(i__main__
Player
p923
(dp924
g18
(dp925
g20
Nsg21
I73
sg22
Nsg23
Nsg24
Nsg25
Nsg26
Nssg5
g757
sg28
I25
sg11
Nsg29
Nsg30
g823
sg32
Nsba(i__main__
Player
p926
(dp927
g18
(dp928
g20
Nsg21
I73
sg22
Nsg23
Nsg24
Nsg25
Nsg26
Nssg5
g757
sg28
I25
sg11
Nsg29
Nsg30
g823
sg32
Nsbasg143
I2
sg144
Nsba(i__main__
Team
p929
(dp930
g3
Nsg4
Nsg5
S'Egypt'
p931
sg7
I0
sg8
I1
sg9
Nsg10
I3
sg11
(lp932
sg13
I0
sg14
(lp933
(i__main__
Player
p934
(dp935
g18
(dp936
g20
Nsg21
I83
sg22
Nsg23
Nsg24
Nsg25
Nsg26
Nssg5
S'M. Salah'
p937
sg28
I25
sg11
Nsg29
Nsg30
S'Egypt'
p938
sg32
Nsba(i__main__
Player
p939
(dp940
g18
(dp941
g20
Nsg21
I77
sg22
Nsg23
Nsg24
Nsg25
Nsg26
Nssg5
S'M. Elneny'
p942
sg28
I24
sg11
Nsg29
Nsg30
S'Egypt'
p943
sg32
Nsba(i__main__
Player
p944
(dp945
g18
(dp946
g20
Nsg21
I75
sg22
Nsg23
Nsg24
Nsg25
Nsg26
Nssg5
S'Kahraba'
p947
sg28
I23
sg11
Nsg29
Nsg30
S'Egypt'
p948
sg32
Nsba(i__main__
Player
p949
(dp950
g18
(dp951
g20
Nsg21
I74
sg22
Nsg23
Nsg24
Nsg25
Nsg26
Nssg5
S'R. Sobhi'
p952
sg28
I20
sg11
Nsg29
Nsg30
S'Egypt'
p953
sg32
Nsba(i__main__
Player
p954
(dp955
g18
(dp956
g20
Nsg21
I73
sg22
Nsg23
Nsg24
Nsg25
Nsg26
Nssg5
S'A. El-Shenawy'
p957
sg28
I26
sg11
Nsg29
Nsg30
S'Egypt'
p958
sg32
Nsba(i__main__
Player
p959
(dp960
g18
(dp961
g20
Nsg21
I72
sg22
Nsg23
Nsg24
Nsg25
Nsg26
Nssg5
S'A. Elmohamady'
p962
sg28
I29
sg11
Nsg29
Nsg30
S'Egypt'
p963
sg32
Nsba(i__main__
Player
p964
(dp965
g18
(dp966
g20
Nsg21
I71
sg22
Nsg23
Nsg24
Nsg25
Nsg26
Nssg5
S'A. Warda'
p967
sg28
I23
sg11
Nsg29
Nsg30
S'Egypt'
p968
sg32
Nsba(i__main__
Player
p969
(dp970
g18
(dp971
g20
Nsg21
I70
sg22
Nsg23
Nsg24
Nsg25
Nsg26
Nssg5
S'Shikabala'
p972
sg28
I31
sg11
Nsg29
Nsg30
S'Egypt'
p973
sg32
Nsba(i__main__
Player
p974
(dp975
g18
(dp976
g20
Nsg21
I69
sg22
Nsg23
Nsg24
Nsg25
Nsg26
Nssg5
S'O. Gaber'
p977
sg28
I25
sg11
Nsg29
Nsg30
S'Egypt'
p978
sg32
Nsba(i__main__
Player
p979
(dp980
g18
(dp981
g20
Nsg21
I69
sg22
Nsg23
Nsg24
Nsg25
Nsg26
Nssg5
S'S. Ekramy'
p982
sg28
I33
sg11
Nsg29
Nsg30
S'Egypt'
p983
sg32
Nsba(i__main__
Player
p984
(dp985
g18
(dp986
g20
Nsg21
I68
sg22
Nsg23
Nsg24
Nsg25
Nsg26
Nssg5
S'S. Morsy'
p987
sg28
I25
sg11
Nsg29
Nsg30
S'Egypt'
p988
sg32
Nsba(i__main__
Player
p989
(dp990
g18
(dp991
g20
Nsg21
I67
sg22
Nsg23
Nsg24
Nsg25
Nsg26
Nssg5
S'A. Gabr'
p992
sg28
I30
sg11
Nsg29
Nsg30
S'Egypt'
p993
sg32
Nsba(i__main__
Player
p994
(dp995
g18
(dp996
g20
Nsg21
I66
sg22
Nsg23
Nsg24
Nsg25
Nsg26
Nssg5
S'T. Hamed'
p997
sg28
I28
sg11
Nsg29
Nsg30
S'Egypt'
p998
sg32
Nsba(i__main__
Player
p999
(dp1000
g18
(dp1001
g20
Nsg21
I66
sg22
Nsg23
Nsg24
Nsg25
Nsg26
Nssg5
S'I. Salah'
p1002
sg28
I30
sg11
Nsg29
Nsg30
S'Egypt'
p1003
sg32
Nsba(i__main__
Player
p1004
(dp1005
g18
(dp1006
g20
Nsg21
I65
sg22
Nsg23
Nsg24
Nsg25
Nsg26
Nssg5
S'M. Mohsen'
p1007
sg28
I28
sg11
Nsg29
Nsg30
S'Egypt'
p1008
sg32
Nsba(i__main__
Player
p1009
(dp1010
g18
(dp1011
g20
Nsg21
I71
sg22
Nsg23
Nsg24
Nsg25
Nsg26
Nssg5
g757
sg28
I26
sg11
Nsg29
Nsg30
g931
sg32
Nsba(i__main__
Player
p1012
(dp1013
g18
(dp1014
g20
Nsg21
I71
sg22
Nsg23
Nsg24
Nsg25
Nsg26
Nssg5
g757
sg28
I26
sg11
Nsg29
Nsg30
g931
sg32
Nsba(i__main__
Player
p1015
(dp1016
g18
(dp1017
g20
Nsg21
I71
sg22
Nsg23
Nsg24
Nsg25
Nsg26
Nssg5
g757
sg28
I26
sg11
Nsg29
Nsg30
g931
sg32
Nsba(i__main__
Player
p1018
(dp1019
g18
(dp1020
g20
Nsg21
I71
sg22
Nsg23
Nsg24
Nsg25
Nsg26
Nssg5
g757
sg28
I26
sg11
Nsg29
Nsg30
g931
sg32
Nsba(i__main__
Player
p1021
(dp1022
g18
(dp1023
g20
Nsg21
I71
sg22
Nsg23
Nsg24
Nsg25
Nsg26
Nssg5
g757
sg28
I26
sg11
Nsg29
Nsg30
g931
sg32
Nsba(i__main__
Player
p1024
(dp1025
g18
(dp1026
g20
Nsg21
I71
sg22
Nsg23
Nsg24
Nsg25
Nsg26
Nssg5
g757
sg28
I26
sg11
Nsg29
Nsg30
g931
sg32
Nsba(i__main__
Player
p1027
(dp1028
g18
(dp1029
g20
Nsg21
I71
sg22
Nsg23
Nsg24
Nsg25
Nsg26
Nssg5
g757
sg28
I26
sg11
Nsg29
Nsg30
g931
sg32
Nsba(i__main__
Player
p1030
(dp1031
g18
(dp1032
g20
Nsg21
I71
sg22
Nsg23
Nsg24
Nsg25
Nsg26
Nssg5
g757
sg28
I26
sg11
Nsg29
Nsg30
g931
sg32
Nsbasg143
I2
sg144
Nsba(i__main__
Team
p1033
(dp1034
g3
Nsg4
Nsg5
S'Australia'
p1035
sg7
I0
sg8
I1
sg9
Nsg10
I3
sg11
(lp1036
sg13
I0
sg14
(lp1037
(i__main__
Player
p1038
(dp1039
g18
(dp1040
g20
Nsg21
I77
sg22
Nsg23
Nsg24
Nsg25
Nsg26
Nssg5
S'M. Ryan'
p1041
sg28
I25
sg11
Nsg29
Nsg30
S'Australia'
p1042
sg32
Nsba(i__main__
Player
p1043
(dp1044
g18
(dp1045
g20
Nsg21
I77
sg22
Nsg23
Nsg24
Nsg25
Nsg26
Nssg5
S'B. Jones'
p1046
sg28
I35
sg11
Nsg29
Nsg30
S'Australia'
p1047
sg32
Nsba(i__main__
Player
p1048
(dp1049
g18
(dp1050
g20
Nsg21
I77
sg22
Nsg23
Nsg24
Nsg25
Nsg26
Nssg5
S'A. Mooy'
p1051
sg28
I26
sg11
Nsg29
Nsg30
S'Australia'
p1052
sg32
Nsba(i__main__
Player
p1053
(dp1054
g18
(dp1055
g20
Nsg21
I74
sg22
Nsg23
Nsg24
Nsg25
Nsg26
Nssg5
S'T. Sainsbury'
p1056
sg28
I25
sg11
Nsg29
Nsg30
S'Australia'
p1057
sg32
Nsba(i__main__
Player
p1058
(dp1059
g18
(dp1060
g20
Nsg21
I74
sg22
Nsg23
Nsg24
Nsg25
Nsg26
Nssg5
S'M. Milligan'
p1061
sg28
I31
sg11
Nsg29
Nsg30
S'Australia'
p1062
sg32
Nsba(i__main__
Player
p1063
(dp1064
g18
(dp1065
g20
Nsg21
I73
sg22
Nsg23
Nsg24
Nsg25
Nsg26
Nssg5
S'J. Maclaren'
p1066
sg28
I23
sg11
Nsg29
Nsg30
S'Australia'
p1067
sg32
Nsba(i__main__
Player
p1068
(dp1069
g18
(dp1070
g20
Nsg21
I73
sg22
Nsg23
Nsg24
Nsg25
Nsg26
Nssg5
S'A. Behich'
p1071
sg28
I26
sg11
Nsg29
Nsg30
S'Australia'
p1072
sg32
Nsba(i__main__
Player
p1073
(dp1074
g18
(dp1075
g20
Nsg21
I72
sg22
Nsg23
Nsg24
Nsg25
Nsg26
Nssg5
S'R. Kruse'
p1076
sg28
I28
sg11
Nsg29
Nsg30
S'Australia'
p1077
sg32
Nsba(i__main__
Player
p1078
(dp1079
g18
(dp1080
g20
Nsg21
I72
sg22
Nsg23
Nsg24
Nsg25
Nsg26
Nssg5
S'M. Leckie'
p1081
sg28
I26
sg11
Nsg29
Nsg30
S'Australia'
p1082
sg32
Nsba(i__main__
Player
p1083
(dp1084
g18
(dp1085
g20
Nsg21
I71
sg22
Nsg23
Nsg24
Nsg25
Nsg26
Nssg5
S'M. Luongo'
p1086
sg28
I24
sg11
Nsg29
Nsg30
S'Australia'
p1087
sg32
Nsba(i__main__
Player
p1088
(dp1089
g18
(dp1090
g20
Nsg21
I71
sg22
Nsg23
Nsg24
Nsg25
Nsg26
Nssg5
S'J. Irvine'
p1091
sg28
I24
sg11
Nsg29
Nsg30
S'Australia'
p1092
sg32
Nsba(i__main__
Player
p1093
(dp1094
g18
(dp1095
g20
Nsg21
I70
sg22
Nsg23
Nsg24
Nsg25
Nsg26
Nssg5
S'J. Risdon'
p1096
sg28
I24
sg11
Nsg29
Nsg30
S'Australia'
p1097
sg32
Nsba(i__main__
Player
p1098
(dp1099
g18
(dp1100
g20
Nsg21
I70
sg22
Nsg23
Nsg24
Nsg25
Nsg26
Nssg5
S'M. Degenek'
p1101
sg28
I23
sg11
Nsg29
Nsg30
S'Australia'
p1102
sg32
Nsba(i__main__
Player
p1103
(dp1104
g18
(dp1105
g20
Nsg21
I70
sg22
Nsg23
Nsg24
Nsg25
Nsg26
Nssg5
S'T. Cahill'
p1106
sg28
I37
sg11
Nsg29
Nsg30
S'Australia'
p1107
sg32
Nsba(i__main__
Player
p1108
(dp1109
g18
(dp1110
g20
Nsg21
I70
sg22
Nsg23
Nsg24
Nsg25
Nsg26
Nssg5
S'D. Vukovic'
p1111
sg28
I32
sg11
Nsg29
Nsg30
S'Australia'
p1112
sg32
Nsba(i__main__
Player
p1113
(dp1114
g18
(dp1115
g20
Nsg21
I69
sg22
Nsg23
Nsg24
Nsg25
Nsg26
Nssg5
S'M. Jurman'
p1116
sg28
I27
sg11
Nsg29
Nsg30
S'Australia'
p1117
sg32
Nsba(i__main__
Player
p1118
(dp1119
g18
(dp1120
g20
Nsg21
I68
sg22
Nsg23
Nsg24
Nsg25
Nsg26
Nssg5
S'J. Meredith'
p1121
sg28
I29
sg11
Nsg29
Nsg30
S'Australia'
p1122
sg32
Nsba(i__main__
Player
p1123
(dp1124
g18
(dp1125
g20
Nsg21
I66
sg22
Nsg23
Nsg24
Nsg25
Nsg26
Nssg5
S'D. Petratos'
p1126
sg28
I24
sg11
Nsg29
Nsg30
S'Australia'
p1127
sg32
Nsba(i__main__
Player
p1128
(dp1129
g18
(dp1130
g20
Nsg21
I65
sg22
Nsg23
Nsg24
Nsg25
Nsg26
Nssg5
S'A. Nabbout'
p1131
sg28
I24
sg11
Nsg29
Nsg30
S'Australia'
p1132
sg32
Nsba(i__main__
Player
p1133
(dp1134
g18
(dp1135
g20
Nsg21
I59
sg22
Nsg23
Nsg24
Nsg25
Nsg26
Nssg5
S'D. Ryan'
p1136
sg28
I17
sg11
Nsg29
Nsg30
S'Australia'
p1137
sg32
Nsba(i__main__
Player
p1138
(dp1139
g18
(dp1140
g20
Nsg21
I58
sg22
Nsg23
Nsg24
Nsg25
Nsg26
Nssg5
S'D. Arzani'
p1141
sg28
I18
sg11
Nsg29
Nsg30
S'Australia'
p1142
sg32
Nsba(i__main__
Player
p1143
(dp1144
g18
(dp1145
g20
Nsg21
I57
sg22
Nsg23
Nsg24
Nsg25
Nsg26
Nssg5
S'K. Petratos'
p1146
sg28
I19
sg11
Nsg29
Nsg30
S'Australia'
p1147
sg32
Nsba(i__main__
Player
p1148
(dp1149
g18
(dp1150
g20
Nsg21
I69
sg22
Nsg23
Nsg24
Nsg25
Nsg26
Nssg5
g757
sg28
I25
sg11
Nsg29
Nsg30
g1035
sg32
Nsbasg143
I2
sg144
Nsba(i__main__
Team
p1151
(dp1152
g3
Nsg4
Nsg5
S'Poland'
p1153
sg7
I0
sg8
I1
sg9
Nsg10
I3
sg11
(lp1154
sg13
I0
sg14
(lp1155
(i__main__
Player
p1156
(dp1157
g18
(dp1158
g20
Nsg21
I85
sg22
Nsg23
Nsg24
Nsg25
Nsg26
Nssg5
S'K. Glik'
p1159
sg28
I29
sg11
Nsg29
Nsg30
S'Poland'
p1160
sg32
Nsba(i__main__
Player
p1161
(dp1162
g18
(dp1163
g20
Nsg21
I83
sg22
Nsg23
Nsg24
Nsg25
Nsg26
Nssg5
S'L. Piszczek'
p1164
sg28
I32
sg11
Nsg29
Nsg30
S'Poland'
p1165
sg32
Nsba(i__main__
Player
p1166
(dp1167
g18
(dp1168
g20
Nsg21
I82
sg22
Nsg23
Nsg24
Nsg25
Nsg26
Nssg5
S'W. Szcz\xc4\x99sny'
p1169
sg28
I27
sg11
Nsg29
Nsg30
S'Poland'
p1170
sg32
Nsba(i__main__
Player
p1171
(dp1172
g18
(dp1173
g20
Nsg21
I81
sg22
Nsg23
Nsg24
Nsg25
Nsg26
Nssg5
S'G. Krychowiak'
p1174
sg28
I27
sg11
Nsg29
Nsg30
S'Poland'
p1175
sg32
Nsba(i__main__
Player
p1176
(dp1177
g18
(dp1178
g20
Nsg21
I80
sg22
Nsg23
Nsg24
Nsg25
Nsg26
Nssg5
S'P. Zieli\xc5\x84ski'
p1179
sg28
I23
sg11
Nsg29
Nsg30
S'Poland'
p1180
sg32
Nsba(i__main__
Player
p1181
(dp1182
g18
(dp1183
g20
Nsg21
I80
sg22
Nsg23
Nsg24
Nsg25
Nsg26
Nssg5
S'L. Fabia\xc5\x84ski'
p1184
sg28
I32
sg11
Nsg29
Nsg30
S'Poland'
p1185
sg32
Nsba(i__main__
Player
p1186
(dp1187
g18
(dp1188
g20
Nsg21
I79
sg22
Nsg23
Nsg24
Nsg25
Nsg26
Nssg5
S'A. Milik'
p1189
sg28
I23
sg11
Nsg29
Nsg30
S'Poland'
p1190
sg32
Nsba(i__main__
Player
p1191
(dp1192
g18
(dp1193
g20
Nsg21
I78
sg22
Nsg23
Nsg24
Nsg25
Nsg26
Nssg5
S'L. Teodorczyk'
p1194
sg28
I26
sg11
Nsg29
Nsg30
S'Poland'
p1195
sg32
Nsba(i__main__
Player
p1196
(dp1197
g18
(dp1198
g20
Nsg21
I76
sg22
Nsg23
Nsg24
Nsg25
Nsg26
Nssg5
S'K. Grosicki'
p1199
sg28
I29
sg11
Nsg29
Nsg30
S'Poland'
p1200
sg32
Nsba(i__main__
Player
p1201
(dp1202
g18
(dp1203
g20
Nsg21
I76
sg22
Nsg23
Nsg24
Nsg25
Nsg26
Nssg5
S'J. B\xc5\x82aszczykowski'
p1204
sg28
I31
sg11
Nsg29
Nsg30
S'Poland'
p1205
sg32
Nsba(i__main__
Player
p1206
(dp1207
g18
(dp1208
g20
Nsg21
I76
sg22
Nsg23
Nsg24
Nsg25
Nsg26
Nssg5
S'M. Pazdan'
p1209
sg28
I29
sg11
Nsg29
Nsg30
S'Poland'
p1210
sg32
Nsba(i__main__
Player
p1211
(dp1212
g18
(dp1213
g20
Nsg21
I75
sg22
Nsg23
Nsg24
Nsg25
Nsg26
Nssg5
S'K. Linetty'
p1214
sg28
I22
sg11
Nsg29
Nsg30
S'Poland'
p1215
sg32
Nsba(i__main__
Player
p1216
(dp1217
g18
(dp1218
g20
Nsg21
I74
sg22
Nsg23
Nsg24
Nsg25
Nsg26
Nssg5
S'B. Bia\xc5\x82kowski'
p1219
sg28
I29
sg11
Nsg29
Nsg30
S'Poland'
p1220
sg32
Nsba(i__main__
Player
p1221
(dp1222
g18
(dp1223
g20
Nsg21
I73
sg22
Nsg23
Nsg24
Nsg25
Nsg26
Nssg5
S'B. Bereszy\xc5\x84ski'
p1224
sg28
I24
sg11
Nsg29
Nsg30
S'Poland'
p1225
sg32
Nsba(i__main__
Player
p1226
(dp1227
g18
(dp1228
g20
Nsg21
I73
sg22
Nsg23
Nsg24
Nsg25
Nsg26
Nssg5
S'J. G\xc3\xb3ralski'
p1229
sg28
I24
sg11
Nsg29
Nsg30
S'Poland'
p1230
sg32
Nsba(i__main__
Player
p1231
(dp1232
g18
(dp1233
g20
Nsg21
I73
sg22
Nsg23
Nsg24
Nsg25
Nsg26
Nssg5
S'A. J\xc4\x99drzejczyk'
p1234
sg28
I29
sg11
Nsg29
Nsg30
S'Poland'
p1235
sg32
Nsba(i__main__
Player
p1236
(dp1237
g18
(dp1238
g20
Nsg21
I72
sg22
Nsg23
Nsg24
Nsg25
Nsg26
Nssg5
S'M. Rybus'
p1239
sg28
I27
sg11
Nsg29
Nsg30
S'Poland'
p1240
sg32
Nsba(i__main__
Player
p1241
(dp1242
g18
(dp1243
g20
Nsg21
I71
sg22
Nsg23
Nsg24
Nsg25
Nsg26
Nssg5
S'Thiago Cionek'
p1244
sg28
I31
sg11
Nsg29
Nsg30
S'Poland'
p1245
sg32
Nsba(i__main__
Player
p1246
(dp1247
g18
(dp1248
g20
Nsg21
I69
sg22
Nsg23
Nsg24
Nsg25
Nsg26
Nssg5
S'S. Peszko'
p1249
sg28
I32
sg11
Nsg29
Nsg30
S'Poland'
p1250
sg32
Nsba(i__main__
Player
p1251
(dp1252
g18
(dp1253
g20
Nsg21
I68
sg22
Nsg23
Nsg24
Nsg25
Nsg26
Nssg5
S'J. Bednarek'
p1254
sg28
I21
sg11
Nsg29
Nsg30
S'Poland'
p1255
sg32
Nsba(i__main__
Player
p1256
(dp1257
g18
(dp1258
g20
Nsg21
I68
sg22
Nsg23
Nsg24
Nsg25
Nsg26
Nssg5
S'D. Kownacki'
p1259
sg28
I20
sg11
Nsg29
Nsg30
S'Poland'
p1260
sg32
Nsba(i__main__
Player
p1261
(dp1262
g18
(dp1263
g20
Nsg21
I67
sg22
Nsg23
Nsg24
Nsg25
Nsg26
Nssg5
S'R. Kurzawa'
p1264
sg28
I24
sg11
Nsg29
Nsg30
S'Poland'
p1265
sg32
Nsba(i__main__
Player
p1266
(dp1267
g18
(dp1268
g20
Nsg21
I56
sg22
Nsg23
Nsg24
Nsg25
Nsg26
Nssg5
S'D. Zieli\xc5\x84ski'
p1269
sg28
I20
sg11
Nsg29
Nsg30
S'Poland'
p1270
sg32
Nsbasg143
I2
sg144
Nsba(i__main__
Team
p1271
(dp1272
g3
Nsg4
Nsg5
S'Switzerland'
p1273
sg7
I0
sg8
I1
sg9
Nsg10
I3
sg11
(lp1274
sg13
I0
sg14
(lp1275
(i__main__
Player
p1276
(dp1277
g18
(dp1278
g20
Nsg21
I84
sg22
Nsg23
Nsg24
Nsg25
Nsg26
Nssg5
S'R. B\xc3\xbcrki'
p1279
sg28
I26
sg11
Nsg29
Nsg30
S'Switzerland'
p1280
sg32
Nsba(i__main__
Player
p1281
(dp1282
g18
(dp1283
g20
Nsg21
I83
sg22
Nsg23
Nsg24
Nsg25
Nsg26
Nssg5
S'Y. Sommer'
p1284
sg28
I28
sg11
Nsg29
Nsg30
S'Switzerland'
p1285
sg32
Nsba(i__main__
Player
p1286
(dp1287
g18
(dp1288
g20
Nsg21
I82
sg22
Nsg23
Nsg24
Nsg25
Nsg26
Nssg5
S'G. Xhaka'
p1289
sg28
I24
sg11
Nsg29
Nsg30
S'Switzerland'
p1290
sg32
Nsba(i__main__
Player
p1291
(dp1292
g18
(dp1293
g20
Nsg21
I82
sg22
Nsg23
Nsg24
Nsg25
Nsg26
Nssg5
S'X. Shaqiri'
p1294
sg28
I25
sg11
Nsg29
Nsg30
S'Switzerland'
p1295
sg32
Nsba(i__main__
Player
p1296
(dp1297
g18
(dp1298
g20
Nsg21
I81
sg22
Nsg23
Nsg24
Nsg25
Nsg26
Nssg5
S'R. Rodr\xc3\xadguez'
p1299
sg28
I24
sg11
Nsg29
Nsg30
S'Switzerland'
p1300
sg32
Nsba(i__main__
Player
p1301
(dp1302
g18
(dp1303
g20
Nsg21
I78
sg22
Nsg23
Nsg24
Nsg25
Nsg26
Nssg5
S'B. D\xc5\xbeemaili'
p1304
sg28
I31
sg11
Nsg29
Nsg30
S'Switzerland'
p1305
sg32
Nsba(i__main__
Player
p1306
(dp1307
g18
(dp1308
g20
Nsg21
I77
sg22
Nsg23
Nsg24
Nsg25
Nsg26
Nssg5
S'V. Behrami'
p1309
sg28
I32
sg11
Nsg29
Nsg30
S'Switzerland'
p1310
sg32
Nsba(i__main__
Player
p1311
(dp1312
g18
(dp1313
g20
Nsg21
I77
sg22
Nsg23
Nsg24
Nsg25
Nsg26
Nssg5
S'M. Lang'
p1314
sg28
I26
sg11
Nsg29
Nsg30
S'Switzerland'
p1315
sg32
Nsba(i__main__
Player
p1316
(dp1317
g18
(dp1318
g20
Nsg21
I76
sg22
Nsg23
Nsg24
Nsg25
Nsg26
Nssg5
S'B. Embolo'
p1319
sg28
I20
sg11
Nsg29
Nsg30
S'Switzerland'
p1320
sg32
Nsba(i__main__
Player
p1321
(dp1322
g18
(dp1323
g20
Nsg21
I76
sg22
Nsg23
Nsg24
Nsg25
Nsg26
Nssg5
S'Gelson Fernandes'
p1324
sg28
I30
sg11
Nsg29
Nsg30
S'Switzerland'
p1325
sg32
Nsba(i__main__
Player
p1326
(dp1327
g18
(dp1328
g20
Nsg21
I75
sg22
Nsg23
Nsg24
Nsg25
Nsg26
Nssg5
S'R. Freuler'
p1329
sg28
I25
sg11
Nsg29
Nsg30
S'Switzerland'
p1330
sg32
Nsba(i__main__
Player
p1331
(dp1332
g18
(dp1333
g20
Nsg21
I75
sg22
Nsg23
Nsg24
Nsg25
Nsg26
Nssg5
S'S. Zuber'
p1334
sg28
I25
sg11
Nsg29
Nsg30
S'Switzerland'
p1335
sg32
Nsba(i__main__
Player
p1336
(dp1337
g18
(dp1338
g20
Nsg21
I75
sg22
Nsg23
Nsg24
Nsg25
Nsg26
Nssg5
S'F. Sch\xc3\xa4r'
p1339
sg28
I25
sg11
Nsg29
Nsg30
S'Switzerland'
p1340
sg32
Nsba(i__main__
Player
p1341
(dp1342
g18
(dp1343
g20
Nsg21
I75
sg22
Nsg23
Nsg24
Nsg25
Nsg26
Nssg5
S'Y. Mvogo'
p1344
sg28
I23
sg11
Nsg29
Nsg30
S'Switzerland'
p1345
sg32
Nsba(i__main__
Player
p1346
(dp1347
g18
(dp1348
g20
Nsg21
I74
sg22
Nsg23
Nsg24
Nsg25
Nsg26
Nssg5
S'N. Elvedi'
p1349
sg28
I20
sg11
Nsg29
Nsg30
S'Switzerland'
p1350
sg32
Nsba(i__main__
Player
p1351
(dp1352
g18
(dp1353
g20
Nsg21
I74
sg22
Nsg23
Nsg24
Nsg25
Nsg26
Nssg5
S'J. Drmi\xc4\x87'
p1354
sg28
I24
sg11
Nsg29
Nsg30
S'Switzerland'
p1355
sg32
Nsba(i__main__
Player
p1356
(dp1357
g18
(dp1358
g20
Nsg21
I74
sg22
Nsg23
Nsg24
Nsg25
Nsg26
Nssg5
S'H. Seferovi\xc4\x87'
p1359
sg28
I25
sg11
Nsg29
Nsg30
S'Switzerland'
p1360
sg32
Nsba(i__main__
Player
p1361
(dp1362
g18
(dp1363
g20
Nsg21
I74
sg22
Nsg23
Nsg24
Nsg25
Nsg26
Nssg5
S'F. Moubandje'
p1364
sg28
I27
sg11
Nsg29
Nsg30
S'Switzerland'
p1365
sg32
Nsba(i__main__
Player
p1366
(dp1367
g18
(dp1368
g20
Nsg21
I73
sg22
Nsg23
Nsg24
Nsg25
Nsg26
Nssg5
S'J. Djourou'
p1369
sg28
I30
sg11
Nsg29
Nsg30
S'Switzerland'
p1370
sg32
Nsba(i__main__
Player
p1371
(dp1372
g18
(dp1373
g20
Nsg21
I72
sg22
Nsg23
Nsg24
Nsg25
Nsg26
Nssg5
S'M. Akanji'
p1374
sg28
I21
sg11
Nsg29
Nsg30
S'Switzerland'
p1375
sg32
Nsba(i__main__
Player
p1376
(dp1377
g18
(dp1378
g20
Nsg21
I72
sg22
Nsg23
Nsg24
Nsg25
Nsg26
Nssg5
S'D. Zakaria'
p1379
sg28
I20
sg11
Nsg29
Nsg30
S'Switzerland'
p1380
sg32
Nsba(i__main__
Player
p1381
(dp1382
g18
(dp1383
g20
Nsg21
I69
sg22
Nsg23
Nsg24
Nsg25
Nsg26
Nssg5
S'E. Fernandes'
p1384
sg28
I21
sg11
Nsg29
Nsg30
S'Switzerland'
p1385
sg32
Nsba(i__main__
Player
p1386
(dp1387
g18
(dp1388
g20
Nsg21
I68
sg22
Nsg23
Nsg24
Nsg25
Nsg26
Nssg5
S'F. Rodr\xc3\xadguez'
p1389
sg28
I21
sg11
Nsg29
Nsg30
S'Switzerland'
p1390
sg32
Nsbasg143
I2
sg144
Nsba(i__main__
Team
p1391
(dp1392
g3
Nsg4
Nsg5
S'Belgium'
p1393
sg7
I0
sg8
I1
sg9
Nsg10
I3
sg11
(lp1394
sg13
I0
sg14
(lp1395
(i__main__
Player
p1396
(dp1397
g18
(dp1398
g20
Nsg21
I90
sg22
Nsg23
Nsg24
Nsg25
Nsg26
Nssg5
S'E. Hazard'
p1399
sg28
I26
sg11
Nsg29
Nsg30
S'Belgium'
p1400
sg32
Nsba(i__main__
Player
p1401
(dp1402
g18
(dp1403
g20
Nsg21
I89
sg22
Nsg23
Nsg24
Nsg25
Nsg26
Nssg5
S'K. De Bruyne'
p1404
sg28
I26
sg11
Nsg29
Nsg30
S'Belgium'
p1405
sg32
Nsba(i__main__
Player
p1406
(dp1407
g18
(dp1408
g20
Nsg21
I89
sg22
Nsg23
Nsg24
Nsg25
Nsg26
Nssg5
S'T. Courtois'
p1409
sg28
I25
sg11
Nsg29
Nsg30
S'Belgium'
p1410
sg32
Nsba(i__main__
Player
p1411
(dp1412
g18
(dp1413
g20
Nsg21
I86
sg22
Nsg23
Nsg24
Nsg25
Nsg26
Nssg5
S'R. Lukaku'
p1414
sg28
I24
sg11
Nsg29
Nsg30
S'Belgium'
p1415
sg32
Nsba(i__main__
Player
p1416
(dp1417
g18
(dp1418
g20
Nsg21
I86
sg22
Nsg23
Nsg24
Nsg25
Nsg26
Nssg5
S'T. Alderweireld'
p1419
sg28
I28
sg11
Nsg29
Nsg30
S'Belgium'
p1420
sg32
Nsba(i__main__
Player
p1421
(dp1422
g18
(dp1423
g20
Nsg21
I86
sg22
Nsg23
Nsg24
Nsg25
Nsg26
Nssg5
S'D. Mertens'
p1424
sg28
I30
sg11
Nsg29
Nsg30
S'Belgium'
p1425
sg32
Nsba(i__main__
Player
p1426
(dp1427
g18
(dp1428
g20
Nsg21
I85
sg22
Nsg23
Nsg24
Nsg25
Nsg26
Nssg5
S'Y. Carrasco'
p1429
sg28
I23
sg11
Nsg29
Nsg30
S'Belgium'
p1430
sg32
Nsba(i__main__
Player
p1431
(dp1432
g18
(dp1433
g20
Nsg21
I85
sg22
Nsg23
Nsg24
Nsg25
Nsg26
Nssg5
S'J. Vertonghen'
p1434
sg28
I30
sg11
Nsg29
Nsg30
S'Belgium'
p1435
sg32
Nsba(i__main__
Player
p1436
(dp1437
g18
(dp1438
g20
Nsg21
I85
sg22
Nsg23
Nsg24
Nsg25
Nsg26
Nssg5
S'V. Kompany'
p1439
sg28
I31
sg11
Nsg29
Nsg30
S'Belgium'
p1440
sg32
Nsba(i__main__
Player
p1441
(dp1442
g18
(dp1443
g20
Nsg21
I83
sg22
Nsg23
Nsg24
Nsg25
Nsg26
Nssg5
S'M. Demb\xc3\xa9l\xc3\xa9'
p1444
sg28
I29
sg11
Nsg29
Nsg30
S'Belgium'
p1445
sg32
Nsba(i__main__
Player
p1446
(dp1447
g18
(dp1448
g20
Nsg21
I82
sg22
Nsg23
Nsg24
Nsg25
Nsg26
Nssg5
S'A. Witsel'
p1449
sg28
I28
sg11
Nsg29
Nsg30
S'Belgium'
p1450
sg32
Nsba(i__main__
Player
p1451
(dp1452
g18
(dp1453
g20
Nsg21
I81
sg22
Nsg23
Nsg24
Nsg25
Nsg26
Nssg5
S'T. Meunier'
p1454
sg28
I25
sg11
Nsg29
Nsg30
S'Belgium'
p1455
sg32
Nsba(i__main__
Player
p1456
(dp1457
g18
(dp1458
g20
Nsg21
I81
sg22
Nsg23
Nsg24
Nsg25
Nsg26
Nssg5
S'S. Mignolet'
p1459
sg28
I29
sg11
Nsg29
Nsg30
S'Belgium'
p1460
sg32
Nsba(i__main__
Player
p1461
(dp1462
g18
(dp1463
g20
Nsg21
I80
sg22
Nsg23
Nsg24
Nsg25
Nsg26
Nssg5
S'Y. Tielemans'
p1464
sg28
I20
sg11
Nsg29
Nsg30
S'Belgium'
p1465
sg32
Nsba(i__main__
Player
p1466
(dp1467
g18
(dp1468
g20
Nsg21
I80
sg22
Nsg23
Nsg24
Nsg25
Nsg26
Nssg5
S'M. Batshuayi'
p1469
sg28
I23
sg11
Nsg29
Nsg30
S'Belgium'
p1470
sg32
Nsba(i__main__
Player
p1471
(dp1472
g18
(dp1473
g20
Nsg21
I80
sg22
Nsg23
Nsg24
Nsg25
Nsg26
Nssg5
S'T. Hazard'
p1474
sg28
I24
sg11
Nsg29
Nsg30
S'Belgium'
p1475
sg32
Nsba(i__main__
Player
p1476
(dp1477
g18
(dp1478
g20
Nsg21
I79
sg22
Nsg23
Nsg24
Nsg25
Nsg26
Nssg5
S'L. Dendoncker'
p1479
sg28
I22
sg11
Nsg29
Nsg30
S'Belgium'
p1480
sg32
Nsba(i__main__
Player
p1481
(dp1482
g18
(dp1483
g20
Nsg21
I79
sg22
Nsg23
Nsg24
Nsg25
Nsg26
Nssg5
S'M. Fellaini'
p1484
sg28
I29
sg11
Nsg29
Nsg30
S'Belgium'
p1485
sg32
Nsba(i__main__
Player
p1486
(dp1487
g18
(dp1488
g20
Nsg21
I78
sg22
Nsg23
Nsg24
Nsg25
Nsg26
Nssg5
S'N. Chadli'
p1489
sg28
I27
sg11
Nsg29
Nsg30
S'Belgium'
p1490
sg32
Nsba(i__main__
Player
p1491
(dp1492
g18
(dp1493
g20
Nsg21
I78
sg22
Nsg23
Nsg24
Nsg25
Nsg26
Nssg5
S'T. Vermaelen'
p1494
sg28
I31
sg11
Nsg29
Nsg30
S'Belgium'
p1495
sg32
Nsba(i__main__
Player
p1496
(dp1497
g18
(dp1498
g20
Nsg21
I78
sg22
Nsg23
Nsg24
Nsg25
Nsg26
Nssg5
S'K. Casteels'
p1499
sg28
I25
sg11
Nsg29
Nsg30
S'Belgium'
p1500
sg32
Nsba(i__main__
Player
p1501
(dp1502
g18
(dp1503
g20
Nsg21
I77
sg22
Nsg23
Nsg24
Nsg25
Nsg26
Nssg5
S'J. Lukaku'
p1504
sg28
I22
sg11
Nsg29
Nsg30
S'Belgium'
p1505
sg32
Nsba(i__main__
Player
p1506
(dp1507
g18
(dp1508
g20
Nsg21
I77
sg22
Nsg23
Nsg24
Nsg25
Nsg26
Nssg5
S'A. Januzaj'
p1509
sg28
I22
sg11
Nsg29
Nsg30
S'Belgium'
p1510
sg32
Nsbasg143
I2
sg144
Nsba(i__main__
Team
p1511
(dp1512
g3
Nsg4
Nsg5
S'Panama'
p1513
sg7
I0
sg8
I1
sg9
Nsg10
I3
sg11
(lp1514
sg13
I0
sg14
(lp1515
(i__main__
Player
p1516
(dp1517
g18
(dp1518
g20
Nsg21
I71
sg22
Nsg23
Nsg24
Nsg25
Nsg26
Nssg5
S'A. Machado'
p1519
sg28
I32
sg11
Nsg29
Nsg30
S'Panama'
p1520
sg32
Nsba(i__main__
Player
p1521
(dp1522
g18
(dp1523
g20
Nsg21
I71
sg22
Nsg23
Nsg24
Nsg25
Nsg26
Nssg5
S'A. Godoy'
p1524
sg28
I27
sg11
Nsg29
Nsg30
S'Panama'
p1525
sg32
Nsba(i__main__
Player
p1526
(dp1527
g18
(dp1528
g20
Nsg21
I70
sg22
Nsg23
Nsg24
Nsg25
Nsg26
Nssg5
S'G. G\xc3\xb3mez'
p1529
sg28
I33
sg11
Nsg29
Nsg30
S'Panama'
p1530
sg32
Nsba(i__main__
Player
p1531
(dp1532
g18
(dp1533
g20
Nsg21
I70
sg22
Nsg23
Nsg24
Nsg25
Nsg26
Nssg5
S'R. Torres'
p1534
sg28
I31
sg11
Nsg29
Nsg30
S'Panama'
p1535
sg32
Nsba(i__main__
Player
p1536
(dp1537
g18
(dp1538
g20
Nsg21
I68
sg22
Nsg23
Nsg24
Nsg25
Nsg26
Nssg5
S'G. Torres'
p1539
sg28
I28
sg11
Nsg29
Nsg30
S'Panama'
p1540
sg32
Nsba(i__main__
Player
p1541
(dp1542
g18
(dp1543
g20
Nsg21
I67
sg22
Nsg23
Nsg24
Nsg25
Nsg26
Nssg5
S'A. Cooper'
p1544
sg28
I29
sg11
Nsg29
Nsg30
S'Panama'
p1545
sg32
Nsba(i__main__
Player
p1546
(dp1547
g18
(dp1548
g20
Nsg21
I66
sg22
Nsg23
Nsg24
Nsg25
Nsg26
Nssg5
S'H. Cummings'
p1549
sg28
I25
sg11
Nsg29
Nsg30
S'Panama'
p1550
sg32
Nsba(i__main__
Player
p1551
(dp1552
g18
(dp1553
g20
Nsg21
I65
sg22
Nsg23
Nsg24
Nsg25
Nsg26
Nssg5
S'F. Escobar'
p1554
sg28
I22
sg11
Nsg29
Nsg30
S'Panama'
p1555
sg32
Nsba(i__main__
Player
p1556
(dp1557
g18
(dp1558
g20
Nsg21
I64
sg22
Nsg23
Nsg24
Nsg25
Nsg26
Nssg5
S'M. Murillo'
p1559
sg28
I21
sg11
Nsg29
Nsg30
S'Panama'
p1560
sg32
Nsba(i__main__
Player
p1561
(dp1562
g18
(dp1563
g20
Nsg21
I57
sg22
Nsg23
Nsg24
Nsg25
Nsg26
Nssg5
S'L. Ovalle'
p1564
sg28
I28
sg11
Nsg29
Nsg30
S'Panama'
p1565
sg32
Nsba(i__main__
Player
p1566
(dp1567
g18
(dp1568
g20
Nsg21
I66
sg22
Nsg23
Nsg24
Nsg25
Nsg26
Nssg5
g757
sg28
I27
sg11
Nsg29
Nsg30
g1513
sg32
Nsba(i__main__
Player
p1569
(dp1570
g18
(dp1571
g20
Nsg21
I66
sg22
Nsg23
Nsg24
Nsg25
Nsg26
Nssg5
g757
sg28
I27
sg11
Nsg29
Nsg30
g1513
sg32
Nsba(i__main__
Player
p1572
(dp1573
g18
(dp1574
g20
Nsg21
I66
sg22
Nsg23
Nsg24
Nsg25
Nsg26
Nssg5
g757
sg28
I27
sg11
Nsg29
Nsg30
g1513
sg32
Nsba(i__main__
Player
p1575
(dp1576
g18
(dp1577
g20
Nsg21
I66
sg22
Nsg23
Nsg24
Nsg25
Nsg26
Nssg5
g757
sg28
I27
sg11
Nsg29
Nsg30
g1513
sg32
Nsba(i__main__
Player
p1578
(dp1579
g18
(dp1580
g20
Nsg21
I66
sg22
Nsg23
Nsg24
Nsg25
Nsg26
Nssg5
g757
sg28
I27
sg11
Nsg29
Nsg30
g1513
sg32
Nsba(i__main__
Player
p1581
(dp1582
g18
(dp1583
g20
Nsg21
I66
sg22
Nsg23
Nsg24
Nsg25
Nsg26
Nssg5
g757
sg28
I27
sg11
Nsg29
Nsg30
g1513
sg32
Nsba(i__main__
Player
p1584
(dp1585
g18
(dp1586
g20
Nsg21
I66
sg22
Nsg23
Nsg24
Nsg25
Nsg26
Nssg5
g757
sg28
I27
sg11
Nsg29
Nsg30
g1513
sg32
Nsba(i__main__
Player
p1587
(dp1588
g18
(dp1589
g20
Nsg21
I66
sg22
Nsg23
Nsg24
Nsg25
Nsg26
Nssg5
g757
sg28
I27
sg11
Nsg29
Nsg30
g1513
sg32
Nsba(i__main__
Player
p1590
(dp1591
g18
(dp1592
g20
Nsg21
I66
sg22
Nsg23
Nsg24
Nsg25
Nsg26
Nssg5
g757
sg28
I27
sg11
Nsg29
Nsg30
g1513
sg32
Nsba(i__main__
Player
p1593
(dp1594
g18
(dp1595
g20
Nsg21
I66
sg22
Nsg23
Nsg24
Nsg25
Nsg26
Nssg5
g757
sg28
I27
sg11
Nsg29
Nsg30
g1513
sg32
Nsba(i__main__
Player
p1596
(dp1597
g18
(dp1598
g20
Nsg21
I66
sg22
Nsg23
Nsg24
Nsg25
Nsg26
Nssg5
g757
sg28
I27
sg11
Nsg29
Nsg30
g1513
sg32
Nsba(i__main__
Player
p1599
(dp1600
g18
(dp1601
g20
Nsg21
I66
sg22
Nsg23
Nsg24
Nsg25
Nsg26
Nssg5
g757
sg28
I27
sg11
Nsg29
Nsg30
g1513
sg32
Nsba(i__main__
Player
p1602
(dp1603
g18
(dp1604
g20
Nsg21
I66
sg22
Nsg23
Nsg24
Nsg25
Nsg26
Nssg5
g757
sg28
I27
sg11
Nsg29
Nsg30
g1513
sg32
Nsbasg143
I2
sg144
Nsba(i__main__
Team
p1605
(dp1606
g3
Nsg4
Nsg5
S'England'
p1607
sg7
I0
sg8
I1
sg9
Nsg10
I3
sg11
(lp1608
sg13
I0
sg14
(lp1609
(i__main__
Player
p1610
(dp1611
g18
(dp1612
g20
Nsg21
I84
sg22
Nsg23
Nsg24
Nsg25
Nsg26
Nssg5
S'D. Alli'
p1613
sg28
I21
sg11
Nsg29
Nsg30
S'England'
p1614
sg32
Nsba(i__main__
Player
p1615
(dp1616
g18
(dp1617
g20
Nsg21
I84
sg22
Nsg23
Nsg24
Nsg25
Nsg26
Nssg5
S'G. Cahill'
p1618
sg28
I31
sg11
Nsg29
Nsg30
S'England'
p1619
sg32
Nsba(i__main__
Player
p1620
(dp1621
g18
(dp1622
g20
Nsg21
I83
sg22
Nsg23
Nsg24
Nsg25
Nsg26
Nssg5
S'K. Walker'
p1623
sg28
I27
sg11
Nsg29
Nsg30
S'England'
p1624
sg32
Nsba(i__main__
Player
p1625
(dp1626
g18
(dp1627
g20
Nsg21
I82
sg22
Nsg23
Nsg24
Nsg25
Nsg26
Nssg5
S'R. Sterling'
p1628
sg28
I22
sg11
Nsg29
Nsg30
S'England'
p1629
sg32
Nsba(i__main__
Player
p1630
(dp1631
g18
(dp1632
g20
Nsg21
I82
sg22
Nsg23
Nsg24
Nsg25
Nsg26
Nssg5
S'E. Dier'
p1633
sg28
I23
sg11
Nsg29
Nsg30
S'England'
p1634
sg32
Nsba(i__main__
Player
p1635
(dp1636
g18
(dp1637
g20
Nsg21
I82
sg22
Nsg23
Nsg24
Nsg25
Nsg26
Nssg5
S'J. Henderson'
p1638
sg28
I27
sg11
Nsg29
Nsg30
S'England'
p1639
sg32
Nsba(i__main__
Player
p1640
(dp1641
g18
(dp1642
g20
Nsg21
I82
sg22
Nsg23
Nsg24
Nsg25
Nsg26
Nssg5
S'D. Rose'
p1643
sg28
I26
sg11
Nsg29
Nsg30
S'England'
p1644
sg32
Nsba(i__main__
Player
p1645
(dp1646
g18
(dp1647
g20
Nsg21
I81
sg22
Nsg23
Nsg24
Nsg25
Nsg26
Nssg5
S'J. Vardy'
p1648
sg28
I30
sg11
Nsg29
Nsg30
S'England'
p1649
sg32
Nsba(i__main__
Player
p1650
(dp1651
g18
(dp1652
g20
Nsg21
I81
sg22
Nsg23
Nsg24
Nsg25
Nsg26
Nssg5
S'J. Butland'
p1653
sg28
I24
sg11
Nsg29
Nsg30
S'England'
p1654
sg32
Nsba(i__main__
Player
p1655
(dp1656
g18
(dp1657
g20
Nsg21
I80
sg22
Nsg23
Nsg24
Nsg25
Nsg26
Nssg5
S'M. Rashford'
p1658
sg28
I19
sg11
Nsg29
Nsg30
S'England'
p1659
sg32
Nsba(i__main__
Player
p1660
(dp1661
g18
(dp1662
g20
Nsg21
I80
sg22
Nsg23
Nsg24
Nsg25
Nsg26
Nssg5
S'D. Welbeck'
p1663
sg28
I26
sg11
Nsg29
Nsg30
S'England'
p1664
sg32
Nsba(i__main__
Player
p1665
(dp1666
g18
(dp1667
g20
Nsg21
I79
sg22
Nsg23
Nsg24
Nsg25
Nsg26
Nssg5
S'J. Stones'
p1668
sg28
I23
sg11
Nsg29
Nsg30
S'England'
p1669
sg32
Nsba(i__main__
Player
p1670
(dp1671
g18
(dp1672
g20
Nsg21
I79
sg22
Nsg23
Nsg24
Nsg25
Nsg26
Nssg5
S'P. Jones'
p1673
sg28
I25
sg11
Nsg29
Nsg30
S'England'
p1674
sg32
Nsba(i__main__
Player
p1675
(dp1676
g18
(dp1677
g20
Nsg21
I78
sg22
Nsg23
Nsg24
Nsg25
Nsg26
Nssg5
S'J. Lingard'
p1678
sg28
I24
sg11
Nsg29
Nsg30
S'England'
p1679
sg32
Nsba(i__main__
Player
p1680
(dp1681
g18
(dp1682
g20
Nsg21
I78
sg22
Nsg23
Nsg24
Nsg25
Nsg26
Nssg5
S'J. Lingard'
p1683
sg28
I24
sg11
Nsg29
Nsg30
S'England'
p1684
sg32
Nsba(i__main__
Player
p1685
(dp1686
g18
(dp1687
g20
Nsg21
I78
sg22
Nsg23
Nsg24
Nsg25
Nsg26
Nssg5
S'K. Trippier'
p1688
sg28
I26
sg11
Nsg29
Nsg30
S'England'
p1689
sg32
Nsba(i__main__
Player
p1690
(dp1691
g18
(dp1692
g20
Nsg21
I77
sg22
Nsg23
Nsg24
Nsg25
Nsg26
Nssg5
S'F. Delph'
p1693
sg28
I27
sg11
Nsg29
Nsg30
S'England'
p1694
sg32
Nsba(i__main__
Player
p1695
(dp1696
g18
(dp1697
g20
Nsg21
I77
sg22
Nsg23
Nsg24
Nsg25
Nsg26
Nssg5
S'J. Pickford'
p1698
sg28
I23
sg11
Nsg29
Nsg30
S'England'
p1699
sg32
Nsba(i__main__
Player
p1700
(dp1701
g18
(dp1702
g20
Nsg21
I77
sg22
Nsg23
Nsg24
Nsg25
Nsg26
Nssg5
S'H. Maguire'
p1703
sg28
I24
sg11
Nsg29
Nsg30
S'England'
p1704
sg32
Nsba(i__main__
Player
p1705
(dp1706
g18
(dp1707
g20
Nsg21
I75
sg22
Nsg23
Nsg24
Nsg25
Nsg26
Nssg5
S'A. Young'
p1708
sg28
I31
sg11
Nsg29
Nsg30
S'England'
p1709
sg32
Nsba(i__main__
Player
p1710
(dp1711
g18
(dp1712
g20
Nsg21
I71
sg22
Nsg23
Nsg24
Nsg25
Nsg26
Nssg5
S'D. Jones'
p1713
sg28
I32
sg11
Nsg29
Nsg30
S'England'
p1714
sg32
Nsba(i__main__
Player
p1715
(dp1716
g18
(dp1717
g20
Nsg21
I71
sg22
Nsg23
Nsg24
Nsg25
Nsg26
Nssg5
S'B. Jones'
p1718
sg28
I30
sg11
Nsg29
Nsg30
S'England'
p1719
sg32
Nsba(i__main__
Player
p1720
(dp1721
g18
(dp1722
g20
Nsg21
I70
sg22
Nsg23
Nsg24
Nsg25
Nsg26
Nssg5
S'R. Loftus-Cheek'
p1723
sg28
I21
sg11
Nsg29
Nsg30
S'England'
p1724
sg32
Nsbasg143
I2
sg144
Nsba(i__main__
Team
p1725
(dp1726
g3
Nsg4
Nsg5
S'Tunisia'
p1727
sg7
I0
sg8
I1
sg9
Nsg10
I3
sg11
(lp1728
sg13
I0
sg14
(lp1729
(i__main__
Player
p1730
(dp1731
g18
(dp1732
g20
Nsg21
I75
sg22
Nsg23
Nsg24
Nsg25
Nsg26
Nssg5
S'Y. Benalouane'
p1733
sg28
I30
sg11
Nsg29
Nsg30
S'Tunisia'
p1734
sg32
Nsba(i__main__
Player
p1735
(dp1736
g18
(dp1737
g20
Nsg21
I74
sg22
Nsg23
Nsg24
Nsg25
Nsg26
Nssg5
S'E. Skhiri'
p1738
sg28
I22
sg11
Nsg29
Nsg30
S'Tunisia'
p1739
sg32
Nsba(i__main__
Player
p1740
(dp1741
g18
(dp1742
g20
Nsg21
I72
sg22
Nsg23
Nsg24
Nsg25
Nsg26
Nssg5
S'S. Ben Youssef'
p1743
sg28
I28
sg11
Nsg29
Nsg30
S'Tunisia'
p1744
sg32
Nsba(i__main__
Player
p1745
(dp1746
g18
(dp1747
g20
Nsg21
I72
sg22
Nsg23
Nsg24
Nsg25
Nsg26
Nssg5
S'N. Sliti'
p1748
sg28
I24
sg11
Nsg29
Nsg30
S'Tunisia'
p1749
sg32
Nsba(i__main__
Player
p1750
(dp1751
g18
(dp1752
g20
Nsg21
I68
sg22
Nsg23
Nsg24
Nsg25
Nsg26
Nssg5
S'B. Srarfi'
p1753
sg28
I20
sg11
Nsg29
Nsg30
S'Tunisia'
p1754
sg32
Nsba(i__main__
Player
p1755
(dp1756
g18
(dp1757
g20
Nsg21
I66
sg22
Nsg23
Nsg24
Nsg25
Nsg26
Nssg5
S'O. Haddadi'
p1758
sg28
I25
sg11
Nsg29
Nsg30
S'Tunisia'
p1759
sg32
Nsba(i__main__
Player
p1760
(dp1761
g18
(dp1762
g20
Nsg21
I65
sg22
Nsg23
Nsg24
Nsg25
Nsg26
Nssg5
S'D. Bronn'
p1763
sg28
I22
sg11
Nsg29
Nsg30
S'Tunisia'
p1764
sg32
Nsba(i__main__
Player
p1765
(dp1766
g18
(dp1767
g20
Nsg21
I63
sg22
Nsg23
Nsg24
Nsg25
Nsg26
Nssg5
S'F. Ben Mustapha'
p1768
sg28
I28
sg11
Nsg29
Nsg30
S'Tunisia'
p1769
sg32
Nsba(i__main__
Player
p1770
(dp1771
g18
(dp1772
g20
Nsg21
I69
sg22
Nsg23
Nsg24
Nsg25
Nsg26
Nssg5
g757
sg28
I24
sg11
Nsg29
Nsg30
g1727
sg32
Nsba(i__main__
Player
p1773
(dp1774
g18
(dp1775
g20
Nsg21
I69
sg22
Nsg23
Nsg24
Nsg25
Nsg26
Nssg5
g757
sg28
I24
sg11
Nsg29
Nsg30
g1727
sg32
Nsba(i__main__
Player
p1776
(dp1777
g18
(dp1778
g20
Nsg21
I69
sg22
Nsg23
Nsg24
Nsg25
Nsg26
Nssg5
g757
sg28
I24
sg11
Nsg29
Nsg30
g1727
sg32
Nsba(i__main__
Player
p1779
(dp1780
g18
(dp1781
g20
Nsg21
I69
sg22
Nsg23
Nsg24
Nsg25
Nsg26
Nssg5
g757
sg28
I24
sg11
Nsg29
Nsg30
g1727
sg32
Nsba(i__main__
Player
p1782
(dp1783
g18
(dp1784
g20
Nsg21
I69
sg22
Nsg23
Nsg24
Nsg25
Nsg26
Nssg5
g757
sg28
I24
sg11
Nsg29
Nsg30
g1727
sg32
Nsba(i__main__
Player
p1785
(dp1786
g18
(dp1787
g20
Nsg21
I69
sg22
Nsg23
Nsg24
Nsg25
Nsg26
Nssg5
g757
sg28
I24
sg11
Nsg29
Nsg30
g1727
sg32
Nsba(i__main__
Player
p1788
(dp1789
g18
(dp1790
g20
Nsg21
I69
sg22
Nsg23
Nsg24
Nsg25
Nsg26
Nssg5
g757
sg28
I24
sg11
Nsg29
Nsg30
g1727
sg32
Nsba(i__main__
Player
p1791
(dp1792
g18
(dp1793
g20
Nsg21
I69
sg22
Nsg23
Nsg24
Nsg25
Nsg26
Nssg5
g757
sg28
I24
sg11
Nsg29
Nsg30
g1727
sg32
Nsba(i__main__
Player
p1794
(dp1795
g18
(dp1796
g20
Nsg21
I69
sg22
Nsg23
Nsg24
Nsg25
Nsg26
Nssg5
g757
sg28
I24
sg11
Nsg29
Nsg30
g1727
sg32
Nsba(i__main__
Player
p1797
(dp1798
g18
(dp1799
g20
Nsg21
I69
sg22
Nsg23
Nsg24
Nsg25
Nsg26
Nssg5
g757
sg28
I24
sg11
Nsg29
Nsg30
g1727
sg32
Nsba(i__main__
Player
p1800
(dp1801
g18
(dp1802
g20
Nsg21
I69
sg22
Nsg23
Nsg24
Nsg25
Nsg26
Nssg5
g757
sg28
I24
sg11
Nsg29
Nsg30
g1727
sg32
Nsba(i__main__
Player
p1803
(dp1804
g18
(dp1805
g20
Nsg21
I69
sg22
Nsg23
Nsg24
Nsg25
Nsg26
Nssg5
g757
sg28
I24
sg11
Nsg29
Nsg30
g1727
sg32
Nsba(i__main__
Player
p1806
(dp1807
g18
(dp1808
g20
Nsg21
I69
sg22
Nsg23
Nsg24
Nsg25
Nsg26
Nssg5
g757
sg28
I24
sg11
Nsg29
Nsg30
g1727
sg32
Nsba(i__main__
Player
p1809
(dp1810
g18
(dp1811
g20
Nsg21
I69
sg22
Nsg23
Nsg24
Nsg25
Nsg26
Nssg5
g757
sg28
I24
sg11
Nsg29
Nsg30
g1727
sg32
Nsba(i__main__
Player
p1812
(dp1813
g18
(dp1814
g20
Nsg21
I69
sg22
Nsg23
Nsg24
Nsg25
Nsg26
Nssg5
g757
sg28
I24
sg11
Nsg29
Nsg30
g1727
sg32
Nsbasg143
I2
sg144
Nsba(i__main__
Team
p1815
(dp1816
g3
Nsg4
Nsg5
S'Costa Rica'
p1817
sg7
I0
sg8
I1
sg9
Nsg10
I3
sg11
(lp1818
sg13
I0
sg14
(lp1819
(i__main__
Player
p1820
(dp1821
g18
(dp1822
g20
Nsg21
I85
sg22
Nsg23
Nsg24
Nsg25
Nsg26
Nssg5
S'K. Navas'
p1823
sg28
I30
sg11
Nsg29
Nsg30
S'Costa Rica'
p1824
sg32
Nsba(i__main__
Player
p1825
(dp1826
g18
(dp1827
g20
Nsg21
I77
sg22
Nsg23
Nsg24
Nsg25
Nsg26
Nssg5
S'O. Duarte'
p1828
sg28
I28
sg11
Nsg29
Nsg30
S'Costa Rica'
p1829
sg32
Nsba(i__main__
Player
p1830
(dp1831
g18
(dp1832
g20
Nsg21
I77
sg22
Nsg23
Nsg24
Nsg25
Nsg26
Nssg5
S'J. Campbell'
p1833
sg28
I25
sg11
Nsg29
Nsg30
S'Costa Rica'
p1834
sg32
Nsba(i__main__
Player
p1835
(dp1836
g18
(dp1837
g20
Nsg21
I75
sg22
Nsg23
Nsg24
Nsg25
Nsg26
Nssg5
S'G. Gonz\xc3\xa1lez'
p1838
sg28
I29
sg11
Nsg29
Nsg30
S'Costa Rica'
p1839
sg32
Nsba(i__main__
Player
p1840
(dp1841
g18
(dp1842
g20
Nsg21
I74
sg22
Nsg23
Nsg24
Nsg25
Nsg26
Nssg5
S'K. Waston'
p1843
sg28
I29
sg11
Nsg29
Nsg30
S'Costa Rica'
p1844
sg32
Nsba(i__main__
Player
p1845
(dp1846
g18
(dp1847
g20
Nsg21
I72
sg22
Nsg23
Nsg24
Nsg25
Nsg26
Nssg5
S'C. Gamboa'
p1848
sg28
I27
sg11
Nsg29
Nsg30
S'Costa Rica'
p1849
sg32
Nsba(i__main__
Player
p1850
(dp1851
g18
(dp1852
g20
Nsg21
I72
sg22
Nsg23
Nsg24
Nsg25
Nsg26
Nssg5
S'B. Oviedo'
p1853
sg28
I27
sg11
Nsg29
Nsg30
S'Costa Rica'
p1854
sg32
Nsba(i__main__
Player
p1855
(dp1856
g18
(dp1857
g20
Nsg21
I71
sg22
Nsg23
Nsg24
Nsg25
Nsg26
Nssg5
S'F. Calvo'
p1858
sg28
I24
sg11
Nsg29
Nsg30
S'Costa Rica'
p1859
sg32
Nsba(i__main__
Player
p1860
(dp1861
g18
(dp1862
g20
Nsg21
I71
sg22
Nsg23
Nsg24
Nsg25
Nsg26
Nssg5
S'C. Bola\xc3\xb1os'
p1863
sg28
I33
sg11
Nsg29
Nsg30
S'Costa Rica'
p1864
sg32
Nsba(i__main__
Player
p1865
(dp1866
g18
(dp1867
g20
Nsg21
I71
sg22
Nsg23
Nsg24
Nsg25
Nsg26
Nssg5
S'B. Acosta'
p1868
sg28
I30
sg11
Nsg29
Nsg30
S'Costa Rica'
p1869
sg32
Nsba(i__main__
Player
p1870
(dp1871
g18
(dp1872
g20
Nsg21
I68
sg22
Nsg23
Nsg24
Nsg25
Nsg26
Nssg5
S'R. Wallace'
p1873
sg28
I29
sg11
Nsg29
Nsg30
S'Costa Rica'
p1874
sg32
Nsba(i__main__
Player
p1875
(dp1876
g18
(dp1877
g20
Nsg21
I68
sg22
Nsg23
Nsg24
Nsg25
Nsg26
Nssg5
S'M. Ure\xc3\xb1a'
p1878
sg28
I27
sg11
Nsg29
Nsg30
S'Costa Rica'
p1879
sg32
Nsba(i__main__
Player
p1880
(dp1881
g18
(dp1882
g20
Nsg21
I68
sg22
Nsg23
Nsg24
Nsg25
Nsg26
Nssg5
S'Y. Tejeda'
p1883
sg28
I25
sg11
Nsg29
Nsg30
S'Costa Rica'
p1884
sg32
Nsba(i__main__
Player
p1885
(dp1886
g18
(dp1887
g20
Nsg21
I67
sg22
Nsg23
Nsg24
Nsg25
Nsg26
Nssg5
S'J. Venegas'
p1888
sg28
I28
sg11
Nsg29
Nsg30
S'Costa Rica'
p1889
sg32
Nsba(i__main__
Player
p1890
(dp1891
g18
(dp1892
g20
Nsg21
I72
sg22
Nsg23
Nsg24
Nsg25
Nsg26
Nssg5
g757
sg28
I27
sg11
Nsg29
Nsg30
g1817
sg32
Nsba(i__main__
Player
p1893
(dp1894
g18
(dp1895
g20
Nsg21
I72
sg22
Nsg23
Nsg24
Nsg25
Nsg26
Nssg5
g757
sg28
I27
sg11
Nsg29
Nsg30
g1817
sg32
Nsba(i__main__
Player
p1896
(dp1897
g18
(dp1898
g20
Nsg21
I72
sg22
Nsg23
Nsg24
Nsg25
Nsg26
Nssg5
g757
sg28
I27
sg11
Nsg29
Nsg30
g1817
sg32
Nsba(i__main__
Player
p1899
(dp1900
g18
(dp1901
g20
Nsg21
I72
sg22
Nsg23
Nsg24
Nsg25
Nsg26
Nssg5
g757
sg28
I27
sg11
Nsg29
Nsg30
g1817
sg32
Nsba(i__main__
Player
p1902
(dp1903
g18
(dp1904
g20
Nsg21
I72
sg22
Nsg23
Nsg24
Nsg25
Nsg26
Nssg5
g757
sg28
I27
sg11
Nsg29
Nsg30
g1817
sg32
Nsba(i__main__
Player
p1905
(dp1906
g18
(dp1907
g20
Nsg21
I72
sg22
Nsg23
Nsg24
Nsg25
Nsg26
Nssg5
g757
sg28
I27
sg11
Nsg29
Nsg30
g1817
sg32
Nsba(i__main__
Player
p1908
(dp1909
g18
(dp1910
g20
Nsg21
I72
sg22
Nsg23
Nsg24
Nsg25
Nsg26
Nssg5
g757
sg28
I27
sg11
Nsg29
Nsg30
g1817
sg32
Nsba(i__main__
Player
p1911
(dp1912
g18
(dp1913
g20
Nsg21
I72
sg22
Nsg23
Nsg24
Nsg25
Nsg26
Nssg5
g757
sg28
I27
sg11
Nsg29
Nsg30
g1817
sg32
Nsba(i__main__
Player
p1914
(dp1915
g18
(dp1916
g20
Nsg21
I72
sg22
Nsg23
Nsg24
Nsg25
Nsg26
Nssg5
g757
sg28
I27
sg11
Nsg29
Nsg30
g1817
sg32
Nsbasg143
I2
sg144
Nsba(i__main__
Team
p1917
(dp1918
g3
Nsg4
Nsg5
S'France'
p1919
sg7
I0
sg8
I1
sg9
Nsg10
I3
sg11
(lp1920
sg13
I0
sg14
(lp1921
(i__main__
Player
p1922
(dp1923
g18
(dp1924
g20
Nsg21
I88
sg22
Nsg23
Nsg24
Nsg25
Nsg26
Nssg5
S'A. Griezmann'
p1925
sg28
I26
sg11
Nsg29
Nsg30
S'France'
p1926
sg32
Nsba(i__main__
Player
p1927
(dp1928
g18
(dp1929
g20
Nsg21
I87
sg22
Nsg23
Nsg24
Nsg25
Nsg26
Nssg5
S'N. Kant\xc3\xa9'
p1930
sg28
I26
sg11
Nsg29
Nsg30
S'France'
p1931
sg32
Nsba(i__main__
Player
p1932
(dp1933
g18
(dp1934
g20
Nsg21
I87
sg22
Nsg23
Nsg24
Nsg25
Nsg26
Nssg5
S'P. Pogba'
p1935
sg28
I24
sg11
Nsg29
Nsg30
S'France'
p1936
sg32
Nsba(i__main__
Player
p1937
(dp1938
g18
(dp1939
g20
Nsg21
I85
sg22
Nsg23
Nsg24
Nsg25
Nsg26
Nssg5
S'R. Varane'
p1940
sg28
I24
sg11
Nsg29
Nsg30
S'France'
p1941
sg32
Nsba(i__main__
Player
p1942
(dp1943
g18
(dp1944
g20
Nsg21
I85
sg22
Nsg23
Nsg24
Nsg25
Nsg26
Nssg5
S'B. Matuidi'
p1945
sg28
I30
sg11
Nsg29
Nsg30
S'France'
p1946
sg32
Nsba(i__main__
Player
p1947
(dp1948
g18
(dp1949
g20
Nsg21
I83
sg22
Nsg23
Nsg24
Nsg25
Nsg26
Nssg5
S'K. Mbapp\xc3\xa9'
p1950
sg28
I18
sg11
Nsg29
Nsg30
S'France'
p1951
sg32
Nsba(i__main__
Player
p1952
(dp1953
g18
(dp1954
g20
Nsg21
I83
sg22
Nsg23
Nsg24
Nsg25
Nsg26
Nssg5
S'O. Demb\xc3\xa9l\xc3\xa9'
p1955
sg28
I20
sg11
Nsg29
Nsg30
S'France'
p1956
sg32
Nsba(i__main__
Player
p1957
(dp1958
g18
(dp1959
g20
Nsg21
I83
sg22
Nsg23
Nsg24
Nsg25
Nsg26
Nssg5
S'T. Lemar'
p1960
sg28
I21
sg11
Nsg29
Nsg30
S'France'
p1961
sg32
Nsba(i__main__
Player
p1962
(dp1963
g18
(dp1964
g20
Nsg21
I83
sg22
Nsg23
Nsg24
Nsg25
Nsg26
Nssg5
S'S. Umtiti'
p1965
sg28
I23
sg11
Nsg29
Nsg30
S'France'
p1966
sg32
Nsba(i__main__
Player
p1967
(dp1968
g18
(dp1969
g20
Nsg21
I82
sg22
Nsg23
Nsg24
Nsg25
Nsg26
Nssg5
S'C. Tolisso'
p1970
sg28
I22
sg11
Nsg29
Nsg30
S'France'
p1971
sg32
Nsba(i__main__
Player
p1972
(dp1973
g18
(dp1974
g20
Nsg21
I82
sg22
Nsg23
Nsg24
Nsg25
Nsg26
Nssg5
S'N. Fekir'
p1975
sg28
I23
sg11
Nsg29
Nsg30
S'France'
p1976
sg32
Nsba(i__main__
Player
p1977
(dp1978
g18
(dp1979
g20
Nsg21
I82
sg22
Nsg23
Nsg24
Nsg25
Nsg26
Nssg5
S'F. Thauvin'
p1980
sg28
I24
sg11
Nsg29
Nsg30
S'France'
p1981
sg32
Nsba(i__main__
Player
p1982
(dp1983
g18
(dp1984
g20
Nsg21
I82
sg22
Nsg23
Nsg24
Nsg25
Nsg26
Nssg5
S'O. Giroud'
p1985
sg28
I30
sg11
Nsg29
Nsg30
S'France'
p1986
sg32
Nsba(i__main__
Player
p1987
(dp1988
g18
(dp1989
g20
Nsg21
I82
sg22
Nsg23
Nsg24
Nsg25
Nsg26
Nssg5
S'S. Mandanda'
p1990
sg28
I32
sg11
Nsg29
Nsg30
S'France'
p1991
sg32
Nsba(i__main__
Player
p1992
(dp1993
g18
(dp1994
g20
Nsg21
I81
sg22
Nsg23
Nsg24
Nsg25
Nsg26
Nssg5
S'A. Rami'
p1995
sg28
I31
sg11
Nsg29
Nsg30
S'France'
p1996
sg32
Nsba(i__main__
Player
p1997
(dp1998
g18
(dp1999
g20
Nsg21
I79
sg22
Nsg23
Nsg24
Nsg25
Nsg26
Nssg5
S'D. Sidib\xc3\xa9'
p2000
sg28
I24
sg11
Nsg29
Nsg30
S'France'
p2001
sg32
Nsba(i__main__
Player
p2002
(dp2003
g18
(dp2004
g20
Nsg21
I79
sg22
Nsg23
Nsg24
Nsg25
Nsg26
Nssg5
S'A. Areola'
p2005
sg28
I24
sg11
Nsg29
Nsg30
S'France'
p2006
sg32
Nsba(i__main__
Player
p2007
(dp2008
g18
(dp2009
g20
Nsg21
I78
sg22
Nsg23
Nsg24
Nsg25
Nsg26
Nssg5
S'B. Mendy'
p2010
sg28
I22
sg11
Nsg29
Nsg30
S'France'
p2011
sg32
Nsba(i__main__
Player
p2012
(dp2013
g18
(dp2014
g20
Nsg21
I77
sg22
Nsg23
Nsg24
Nsg25
Nsg26
Nssg5
S'P. Kimpembe'
p2015
sg28
I21
sg11
Nsg29
Nsg30
S'France'
p2016
sg32
Nsba(i__main__
Player
p2017
(dp2018
g18
(dp2019
g20
Nsg21
I77
sg22
Nsg23
Nsg24
Nsg25
Nsg26
Nssg5
S'L. Hern\xc3\xa1ndez'
p2020
sg28
I21
sg11
Nsg29
Nsg30
S'France'
p2021
sg32
Nsba(i__main__
Player
p2022
(dp2023
g18
(dp2024
g20
Nsg21
I76
sg22
Nsg23
Nsg24
Nsg25
Nsg26
Nssg5
S'N. Mendy'
p2025
sg28
I25
sg11
Nsg29
Nsg30
S'France'
p2026
sg32
Nsba(i__main__
Player
p2027
(dp2028
g18
(dp2029
g20
Nsg21
I75
sg22
Nsg23
Nsg24
Nsg25
Nsg26
Nssg5
S'M. Demb\xc3\xa9l\xc3\xa9'
p2030
sg28
I20
sg11
Nsg29
Nsg30
S'France'
p2031
sg32
Nsba(i__main__
Player
p2032
(dp2033
g18
(dp2034
g20
Nsg21
I75
sg22
Nsg23
Nsg24
Nsg25
Nsg26
Nssg5
S'T. Hern\xc3\xa1ndez'
p2035
sg28
I19
sg11
Nsg29
Nsg30
S'France'
p2036
sg32
Nsbasg143
I2
sg144
Nsba(i__main__
Team
p2037
(dp2038
g3
Nsg4
Nsg5
S'Nigeria'
p2039
sg7
I0
sg8
I1
sg9
Nsg10
I3
sg11
(lp2040
sg13
I0
sg14
(lp2041
(i__main__
Player
p2042
(dp2043
g18
(dp2044
g20
Nsg21
I79
sg22
Nsg23
Nsg24
Nsg25
Nsg26
Nssg5
S'V. Moses'
p2045
sg28
I26
sg11
Nsg29
Nsg30
S'Nigeria'
p2046
sg32
Nsba(i__main__
Player
p2047
(dp2048
g18
(dp2049
g20
Nsg21
I77
sg22
Nsg23
Nsg24
Nsg25
Nsg26
Nssg5
S'O. Ndidi'
p2050
sg28
I20
sg11
Nsg29
Nsg30
S'Nigeria'
p2051
sg32
Nsba(i__main__
Player
p2052
(dp2053
g18
(dp2054
g20
Nsg21
I76
sg22
Nsg23
Nsg24
Nsg25
Nsg26
Nssg5
S'A. Musa'
p2055
sg28
I24
sg11
Nsg29
Nsg30
S'Nigeria'
p2056
sg32
Nsba(i__main__
Player
p2057
(dp2058
g18
(dp2059
g20
Nsg21
I75
sg22
Nsg23
Nsg24
Nsg25
Nsg26
Nssg5
S'L. Balogun'
p2060
sg28
I29
sg11
Nsg29
Nsg30
S'Nigeria'
p2061
sg32
Nsba(i__main__
Player
p2062
(dp2063
g18
(dp2064
g20
Nsg21
I75
sg22
Nsg23
Nsg24
Nsg25
Nsg26
Nssg5
S'K. Iheanacho'
p2065
sg28
I20
sg11
Nsg29
Nsg30
S'Nigeria'
p2066
sg32
Nsba(i__main__
Player
p2067
(dp2068
g18
(dp2069
g20
Nsg21
I74
sg22
Nsg23
Nsg24
Nsg25
Nsg26
Nssg5
S'A. Iwobi'
p2070
sg28
I21
sg11
Nsg29
Nsg30
S'Nigeria'
p2071
sg32
Nsba(i__main__
Player
p2072
(dp2073
g18
(dp2074
g20
Nsg21
I74
sg22
Nsg23
Nsg24
Nsg25
Nsg26
Nssg5
S'O. Onazi'
p2075
sg28
I24
sg11
Nsg29
Nsg30
S'Nigeria'
p2076
sg32
Nsba(i__main__
Player
p2077
(dp2078
g18
(dp2079
g20
Nsg21
I73
sg22
Nsg23
Nsg24
Nsg25
Nsg26
Nssg5
S'J. Obi'
p2080
sg28
I26
sg11
Nsg29
Nsg30
S'Nigeria'
p2081
sg32
Nsba(i__main__
Player
p2082
(dp2083
g18
(dp2084
g20
Nsg21
I73
sg22
Nsg23
Nsg24
Nsg25
Nsg26
Nssg5
S'P. Etebo'
p2085
sg28
I21
sg11
Nsg29
Nsg30
S'Nigeria'
p2086
sg32
Nsba(i__main__
Player
p2087
(dp2088
g18
(dp2089
g20
Nsg21
I72
sg22
Nsg23
Nsg24
Nsg25
Nsg26
Nssg5
S'K. Omeruo'
p2090
sg28
I23
sg11
Nsg29
Nsg30
S'Nigeria'
p2091
sg32
Nsba(i__main__
Player
p2092
(dp2093
g18
(dp2094
g20
Nsg21
I71
sg22
Nsg23
Nsg24
Nsg25
Nsg26
Nssg5
S'E. Echi\xc3\xa9jil\xc3\xa9'
p2095
sg28
I29
sg11
Nsg29
Nsg30
S'Nigeria'
p2096
sg32
Nsba(i__main__
Player
p2097
(dp2098
g18
(dp2099
g20
Nsg21
I71
sg22
Nsg23
Nsg24
Nsg25
Nsg26
Nssg5
S'W. Troost-Ekong'
p2100
sg28
I23
sg11
Nsg29
Nsg30
S'Nigeria'
p2101
sg32
Nsba(i__main__
Player
p2102
(dp2103
g18
(dp2104
g20
Nsg21
I71
sg22
Nsg23
Nsg24
Nsg25
Nsg26
Nssg5
S'C. Awaziem'
p2105
sg28
I20
sg11
Nsg29
Nsg30
S'Nigeria'
p2106
sg32
Nsba(i__main__
Player
p2107
(dp2108
g18
(dp2109
g20
Nsg21
I69
sg22
Nsg23
Nsg24
Nsg25
Nsg26
Nssg5
S'S. Abdullahi'
p2110
sg28
I20
sg11
Nsg29
Nsg30
S'Nigeria'
p2111
sg32
Nsba(i__main__
Player
p2112
(dp2113
g18
(dp2114
g20
Nsg21
I66
sg22
Nsg23
Nsg24
Nsg25
Nsg26
Nssg5
S'T. Ebuehi'
p2115
sg28
I21
sg11
Nsg29
Nsg30
S'Nigeria'
p2116
sg32
Nsba(i__main__
Player
p2117
(dp2118
g18
(dp2119
g20
Nsg21
I64
sg22
Nsg23
Nsg24
Nsg25
Nsg26
Nssg5
S'I. Abdullahi'
p2120
sg28
I20
sg11
Nsg29
Nsg30
S'Nigeria'
p2121
sg32
Nsba(i__main__
Player
p2122
(dp2123
g18
(dp2124
g20
Nsg21
I72
sg22
Nsg23
Nsg24
Nsg25
Nsg26
Nssg5
g757
sg28
I22
sg11
Nsg29
Nsg30
g2039
sg32
Nsba(i__main__
Player
p2125
(dp2126
g18
(dp2127
g20
Nsg21
I72
sg22
Nsg23
Nsg24
Nsg25
Nsg26
Nssg5
g757
sg28
I22
sg11
Nsg29
Nsg30
g2039
sg32
Nsba(i__main__
Player
p2128
(dp2129
g18
(dp2130
g20
Nsg21
I72
sg22
Nsg23
Nsg24
Nsg25
Nsg26
Nssg5
g757
sg28
I22
sg11
Nsg29
Nsg30
g2039
sg32
Nsba(i__main__
Player
p2131
(dp2132
g18
(dp2133
g20
Nsg21
I72
sg22
Nsg23
Nsg24
Nsg25
Nsg26
Nssg5
g757
sg28
I22
sg11
Nsg29
Nsg30
g2039
sg32
Nsba(i__main__
Player
p2134
(dp2135
g18
(dp2136
g20
Nsg21
I72
sg22
Nsg23
Nsg24
Nsg25
Nsg26
Nssg5
g757
sg28
I22
sg11
Nsg29
Nsg30
g2039
sg32
Nsba(i__main__
Player
p2137
(dp2138
g18
(dp2139
g20
Nsg21
I72
sg22
Nsg23
Nsg24
Nsg25
Nsg26
Nssg5
g757
sg28
I22
sg11
Nsg29
Nsg30
g2039
sg32
Nsba(i__main__
Player
p2140
(dp2141
g18
(dp2142
g20
Nsg21
I72
sg22
Nsg23
Nsg24
Nsg25
Nsg26
Nssg5
g757
sg28
I22
sg11
Nsg29
Nsg30
g2039
sg32
Nsbasg143
I2
sg144
Nsba(i__main__
Team
p2143
(dp2144
g3
Nsg4
Nsg5
S'Peru'
p2145
sg7
I0
sg8
I1
sg9
Nsg10
I3
sg11
(lp2146
sg13
I0
sg14
(lp2147
(i__main__
Player
p2148
(dp2149
g18
(dp2150
g20
Nsg21
I78
sg22
Nsg23
Nsg24
Nsg25
Nsg26
Nssg5
S'J. Farf\xc3\xa1n'
p2151
sg28
I32
sg11
Nsg29
Nsg30
S'Peru'
p2152
sg32
Nsba(i__main__
Player
p2153
(dp2154
g18
(dp2155
g20
Nsg21
I77
sg22
Nsg23
Nsg24
Nsg25
Nsg26
Nssg5
S'A. Carrillo'
p2156
sg28
I26
sg11
Nsg29
Nsg30
S'Peru'
p2157
sg32
Nsba(i__main__
Player
p2158
(dp2159
g18
(dp2160
g20
Nsg21
I76
sg22
Nsg23
Nsg24
Nsg25
Nsg26
Nssg5
S'P. Hurtado'
p2161
sg28
I26
sg11
Nsg29
Nsg30
S'Peru'
p2162
sg32
Nsba(i__main__
Player
p2163
(dp2164
g18
(dp2165
g20
Nsg21
I76
sg22
Nsg23
Nsg24
Nsg25
Nsg26
Nssg5
S'R. Ruid\xc3\xadaz'
p2166
sg28
I26
sg11
Nsg29
Nsg30
S'Peru'
p2167
sg32
Nsba(i__main__
Player
p2168
(dp2169
g18
(dp2170
g20
Nsg21
I74
sg22
Nsg23
Nsg24
Nsg25
Nsg26
Nssg5
S'P. Gallese'
p2171
sg28
I27
sg11
Nsg29
Nsg30
S'Peru'
p2172
sg32
Nsba(i__main__
Player
p2173
(dp2174
g18
(dp2175
g20
Nsg21
I73
sg22
Nsg23
Nsg24
Nsg25
Nsg26
Nssg5
S'A. Rodr\xc3\xadguez'
p2176
sg28
I33
sg11
Nsg29
Nsg30
S'Peru'
p2177
sg32
Nsba(i__main__
Player
p2178
(dp2179
g18
(dp2180
g20
Nsg21
I72
sg22
Nsg23
Nsg24
Nsg25
Nsg26
Nssg5
S'R. Tapia'
p2181
sg28
I21
sg11
Nsg29
Nsg30
S'Peru'
p2182
sg32
Nsba(i__main__
Player
p2183
(dp2184
g18
(dp2185
g20
Nsg21
I72
sg22
Nsg23
Nsg24
Nsg25
Nsg26
Nssg5
S'L. Adv\xc3\xadncula'
p2186
sg28
I27
sg11
Nsg29
Nsg30
S'Peru'
p2187
sg32
Nsba(i__main__
Player
p2188
(dp2189
g18
(dp2190
g20
Nsg21
I71
sg22
Nsg23
Nsg24
Nsg25
Nsg26
Nssg5
S'Y. Yot\xc3\xban'
p2191
sg28
I27
sg11
Nsg29
Nsg30
S'Peru'
p2192
sg32
Nsba(i__main__
Player
p2193
(dp2194
g18
(dp2195
g20
Nsg21
I69
sg22
Nsg23
Nsg24
Nsg25
Nsg26
Nssg5
S'A. Polo'
p2196
sg28
I22
sg11
Nsg29
Nsg30
S'Peru'
p2197
sg32
Nsba(i__main__
Player
p2198
(dp2199
g18
(dp2200
g20
Nsg21
I68
sg22
Nsg23
Nsg24
Nsg25
Nsg26
Nssg5
S'J. Carvallo'
p2201
sg28
I31
sg11
Nsg29
Nsg30
S'Peru'
p2202
sg32
Nsba(i__main__
Player
p2203
(dp2204
g18
(dp2205
g20
Nsg21
I67
sg22
Nsg23
Nsg24
Nsg25
Nsg26
Nssg5
S'C. Ramos'
p2206
sg28
I28
sg11
Nsg29
Nsg30
S'Peru'
p2207
sg32
Nsba(i__main__
Player
p2208
(dp2209
g18
(dp2210
g20
Nsg21
I67
sg22
Nsg23
Nsg24
Nsg25
Nsg26
Nssg5
S'M. Araujo'
p2211
sg28
I22
sg11
Nsg29
Nsg30
S'Peru'
p2212
sg32
Nsba(i__main__
Player
p2213
(dp2214
g18
(dp2215
g20
Nsg21
I65
sg22
Nsg23
Nsg24
Nsg25
Nsg26
Nssg5
S'A. Corzo'
p2216
sg28
I28
sg11
Nsg29
Nsg30
S'Peru'
p2217
sg32
Nsba(i__main__
Player
p2218
(dp2219
g18
(dp2220
g20
Nsg21
I65
sg22
Nsg23
Nsg24
Nsg25
Nsg26
Nssg5
S'P. Aquino'
p2221
sg28
I22
sg11
Nsg29
Nsg30
S'Peru'
p2222
sg32
Nsba(i__main__
Player
p2223
(dp2224
g18
(dp2225
g20
Nsg21
I64
sg22
Nsg23
Nsg24
Nsg25
Nsg26
Nssg5
S'W. Cartagena'
p2226
sg28
I22
sg11
Nsg29
Nsg30
S'Peru'
p2227
sg32
Nsba(i__main__
Player
p2228
(dp2229
g18
(dp2230
g20
Nsg21
I63
sg22
Nsg23
Nsg24
Nsg25
Nsg26
Nssg5
S'E. Flores'
p2231
sg28
I23
sg11
Nsg29
Nsg30
S'Peru'
p2232
sg32
Nsba(i__main__
Player
p2233
(dp2234
g18
(dp2235
g20
Nsg21
I63
sg22
Nsg23
Nsg24
Nsg25
Nsg26
Nssg5
S'N. Loyola'
p2236
sg28
I22
sg11
Nsg29
Nsg30
S'Peru'
p2237
sg32
Nsba(i__main__
Player
p2238
(dp2239
g18
(dp2240
g20
Nsg21
I70
sg22
Nsg23
Nsg24
Nsg25
Nsg26
Nssg5
g757
sg28
I25
sg11
Nsg29
Nsg30
g2145
sg32
Nsba(i__main__
Player
p2241
(dp2242
g18
(dp2243
g20
Nsg21
I70
sg22
Nsg23
Nsg24
Nsg25
Nsg26
Nssg5
g757
sg28
I25
sg11
Nsg29
Nsg30
g2145
sg32
Nsba(i__main__
Player
p2244
(dp2245
g18
(dp2246
g20
Nsg21
I70
sg22
Nsg23
Nsg24
Nsg25
Nsg26
Nssg5
g757
sg28
I25
sg11
Nsg29
Nsg30
g2145
sg32
Nsba(i__main__
Player
p2247
(dp2248
g18
(dp2249
g20
Nsg21
I70
sg22
Nsg23
Nsg24
Nsg25
Nsg26
Nssg5
g757
sg28
I25
sg11
Nsg29
Nsg30
g2145
sg32
Nsba(i__main__
Player
p2250
(dp2251
g18
(dp2252
g20
Nsg21
I70
sg22
Nsg23
Nsg24
Nsg25
Nsg26
Nssg5
g757
sg28
I25
sg11
Nsg29
Nsg30
g2145
sg32
Nsbasg143
I2
sg144
Nsba(i__main__
Team
p2253
(dp2254
g3
Nsg4
Nsg5
S'Argentina'
p2255
sg7
I0
sg8
I1
sg9
Nsg10
I3
sg11
(lp2256
sg13
I0
sg14
(lp2257
(i__main__
Player
p2258
(dp2259
g18
(dp2260
g20
Nsg21
I90
sg22
Nsg23
Nsg24
Nsg25
Nsg26
Nssg5
S'G. Higua\xc3\xadn'
p2261
sg28
I29
sg11
Nsg29
Nsg30
S'Argentina'
p2262
sg32
Nsba(i__main__
Player
p2263
(dp2264
g18
(dp2265
g20
Nsg21
I89
sg22
Nsg23
Nsg24
Nsg25
Nsg26
Nssg5
S'S. Ag\xc3\xbcero'
p2266
sg28
I29
sg11
Nsg29
Nsg30
S'Argentina'
p2267
sg32
Nsba(i__main__
Player
p2268
(dp2269
g18
(dp2270
g20
Nsg21
I88
sg22
Nsg23
Nsg24
Nsg25
Nsg26
Nssg5
S'P. Dybala'
p2271
sg28
I23
sg11
Nsg29
Nsg30
S'Argentina'
p2272
sg32
Nsba(i__main__
Player
p2273
(dp2274
g18
(dp2275
g20
Nsg21
I85
sg22
Nsg23
Nsg24
Nsg25
Nsg26
Nssg5
S'A. Di Mar\xc3\xada'
p2276
sg28
I29
sg11
Nsg29
Nsg30
S'Argentina'
p2277
sg32
Nsba(i__main__
Player
p2278
(dp2279
g18
(dp2280
g20
Nsg21
I83
sg22
Nsg23
Nsg24
Nsg25
Nsg26
Nssg5
S'N. Otamendi'
p2281
sg28
I29
sg11
Nsg29
Nsg30
S'Argentina'
p2282
sg32
Nsba(i__main__
Player
p2283
(dp2284
g18
(dp2285
g20
Nsg21
I83
sg22
Nsg23
Nsg24
Nsg25
Nsg26
Nssg5
S'E. Banega'
p2286
sg28
I29
sg11
Nsg29
Nsg30
S'Argentina'
p2287
sg32
Nsba(i__main__
Player
p2288
(dp2289
g18
(dp2290
g20
Nsg21
I83
sg22
Nsg23
Nsg24
Nsg25
Nsg26
Nssg5
S'L. Biglia'
p2291
sg28
I31
sg11
Nsg29
Nsg30
S'Argentina'
p2292
sg32
Nsba(i__main__
Player
p2293
(dp2294
g18
(dp2295
g20
Nsg21
I83
sg22
Nsg23
Nsg24
Nsg25
Nsg26
Nssg5
S'J. Mascherano'
p2296
sg28
I33
sg11
Nsg29
Nsg30
S'Argentina'
p2297
sg32
Nsba(i__main__
Player
p2298
(dp2299
g18
(dp2300
g20
Nsg21
I82
sg22
Nsg23
Nsg24
Nsg25
Nsg26
Nssg5
S'M. Rojo'
p2301
sg28
I27
sg11
Nsg29
Nsg30
S'Argentina'
p2302
sg32
Nsba(i__main__
Player
p2303
(dp2304
g18
(dp2305
g20
Nsg21
I82
sg22
Nsg23
Nsg24
Nsg25
Nsg26
Nssg5
S'F. Fazio'
p2306
sg28
I30
sg11
Nsg29
Nsg30
S'Argentina'
p2307
sg32
Nsba(i__main__
Player
p2308
(dp2309
g18
(dp2310
g20
Nsg21
I80
sg22
Nsg23
Nsg24
Nsg25
Nsg26
Nssg5
S'E. Salvio'
p2311
sg28
I26
sg11
Nsg29
Nsg30
S'Argentina'
p2312
sg32
Nsba(i__main__
Player
p2313
(dp2314
g18
(dp2315
g20
Nsg21
I79
sg22
Nsg23
Nsg24
Nsg25
Nsg26
Nssg5
S'M. Acu\xc3\xb1a'
p2316
sg28
I25
sg11
Nsg29
Nsg30
S'Argentina'
p2317
sg32
Nsba(i__main__
Player
p2318
(dp2319
g18
(dp2320
g20
Nsg21
I79
sg22
Nsg23
Nsg24
Nsg25
Nsg26
Nssg5
S'N. Tagliafico'
p2321
sg28
I24
sg11
Nsg29
Nsg30
S'Argentina'
p2322
sg32
Nsba(i__main__
Player
p2323
(dp2324
g18
(dp2325
g20
Nsg21
I79
sg22
Nsg23
Nsg24
Nsg25
Nsg26
Nssg5
S'C. Ansaldi'
p2326
sg28
I30
sg11
Nsg29
Nsg30
S'Argentina'
p2327
sg32
Nsba(i__main__
Player
p2328
(dp2329
g18
(dp2330
g20
Nsg21
I79
sg22
Nsg23
Nsg24
Nsg25
Nsg26
Nssg5
S'W. Caballero'
p2331
sg28
I35
sg11
Nsg29
Nsg30
S'Argentina'
p2332
sg32
Nsba(i__main__
Player
p2333
(dp2334
g18
(dp2335
g20
Nsg21
I78
sg22
Nsg23
Nsg24
Nsg25
Nsg26
Nssg5
S'E. P\xc3\xa9rez'
p2336
sg28
I31
sg11
Nsg29
Nsg30
S'Argentina'
p2337
sg32
Nsba(i__main__
Player
p2338
(dp2339
g18
(dp2340
g20
Nsg21
I77
sg22
Nsg23
Nsg24
Nsg25
Nsg26
Nssg5
S'P. P\xc3\xa9rez'
p2341
sg28
I31
sg11
Nsg29
Nsg30
S'Argentina'
p2342
sg32
Nsba(i__main__
Player
p2343
(dp2344
g18
(dp2345
g20
Nsg21
I77
sg22
Nsg23
Nsg24
Nsg25
Nsg26
Nssg5
S'F. Armani'
p2346
sg28
I30
sg11
Nsg29
Nsg30
S'Argentina'
p2347
sg32
Nsba(i__main__
Player
p2348
(dp2349
g18
(dp2350
g20
Nsg21
I77
sg22
Nsg23
Nsg24
Nsg25
Nsg26
Nssg5
S'F. Higua\xc3\xadn'
p2351
sg28
I32
sg11
Nsg29
Nsg30
S'Argentina'
p2352
sg32
Nsba(i__main__
Player
p2353
(dp2354
g18
(dp2355
g20
Nsg21
I76
sg22
Nsg23
Nsg24
Nsg25
Nsg26
Nssg5
S'G. Mercado'
p2356
sg28
I30
sg11
Nsg29
Nsg30
S'Argentina'
p2357
sg32
Nsba(i__main__
Player
p2358
(dp2359
g18
(dp2360
g20
Nsg21
I75
sg22
Nsg23
Nsg24
Nsg25
Nsg26
Nssg5
S'C. Pav\xc3\xb3n'
p2361
sg28
I21
sg11
Nsg29
Nsg30
S'Argentina'
p2362
sg32
Nsba(i__main__
Player
p2363
(dp2364
g18
(dp2365
g20
Nsg21
I74
sg22
Nsg23
Nsg24
Nsg25
Nsg26
Nssg5
S'G. Lo Celso'
p2366
sg28
I21
sg11
Nsg29
Nsg30
S'Argentina'
p2367
sg32
Nsba(i__main__
Player
p2368
(dp2369
g18
(dp2370
g20
Nsg21
I73
sg22
Nsg23
Nsg24
Nsg25
Nsg26
Nssg5
S'D. P\xc3\xa9rez'
p2371
sg28
I28
sg11
Nsg29
Nsg30
S'Argentina'
p2372
sg32
Nsbasg143
I2
sg144
Nsba(i__main__
Team
p2373
(dp2374
g3
Nsg4
Nsg5
S'Colombia'
p2375
sg7
I0
sg8
I1
sg9
Nsg10
I3
sg11
(lp2376
sg13
I0
sg14
(lp2377
(i__main__
Player
p2378
(dp2379
g18
(dp2380
g20
Nsg21
I86
sg22
Nsg23
Nsg24
Nsg25
Nsg26
Nssg5
S'J. Rodr\xc3\xadguez'
p2381
sg28
I25
sg11
Nsg29
Nsg30
S'Colombia'
p2382
sg32
Nsba(i__main__
Player
p2383
(dp2384
g18
(dp2385
g20
Nsg21
I82
sg22
Nsg23
Nsg24
Nsg25
Nsg26
Nssg5
S'C. Bacca'
p2386
sg28
I30
sg11
Nsg29
Nsg30
S'Colombia'
p2387
sg32
Nsba(i__main__
Player
p2388
(dp2389
g18
(dp2390
g20
Nsg21
I82
sg22
Nsg23
Nsg24
Nsg25
Nsg26
Nssg5
S'J. Cuadrado'
p2391
sg28
I29
sg11
Nsg29
Nsg30
S'Colombia'
p2392
sg32
Nsba(i__main__
Player
p2393
(dp2394
g18
(dp2395
g20
Nsg21
I81
sg22
Nsg23
Nsg24
Nsg25
Nsg26
Nssg5
S'D. S\xc3\xa1nchez'
p2396
sg28
I21
sg11
Nsg29
Nsg30
S'Colombia'
p2397
sg32
Nsba(i__main__
Player
p2398
(dp2399
g18
(dp2400
g20
Nsg21
I80
sg22
Nsg23
Nsg24
Nsg25
Nsg26
Nssg5
S'L. Muriel'
p2401
sg28
I26
sg11
Nsg29
Nsg30
S'Colombia'
p2402
sg32
Nsba(i__main__
Player
p2403
(dp2404
g18
(dp2405
g20
Nsg21
I79
sg22
Nsg23
Nsg24
Nsg25
Nsg26
Nssg5
S'J. Murillo'
p2406
sg28
I25
sg11
Nsg29
Nsg30
S'Colombia'
p2407
sg32
Nsba(i__main__
Player
p2408
(dp2409
g18
(dp2410
g20
Nsg21
I79
sg22
Nsg23
Nsg24
Nsg25
Nsg26
Nssg5
S'D. Ospina'
p2411
sg28
I28
sg11
Nsg29
Nsg30
S'Colombia'
p2412
sg32
Nsba(i__main__
Player
p2413
(dp2414
g18
(dp2415
g20
Nsg21
I78
sg22
Nsg23
Nsg24
Nsg25
Nsg26
Nssg5
S'J. Izquierdo'
p2416
sg28
I24
sg11
Nsg29
Nsg30
S'Colombia'
p2417
sg32
Nsba(i__main__
Player
p2418
(dp2419
g18
(dp2420
g20
Nsg21
I78
sg22
Nsg23
Nsg24
Nsg25
Nsg26
Nssg5
S'D. Zapata'
p2421
sg28
I26
sg11
Nsg29
Nsg30
S'Colombia'
p2422
sg32
Nsba(i__main__
Player
p2423
(dp2424
g18
(dp2425
g20
Nsg21
I77
sg22
Nsg23
Nsg24
Nsg25
Nsg26
Nssg5
S'J. Quintero'
p2426
sg28
I24
sg11
Nsg29
Nsg30
S'Colombia'
p2427
sg32
Nsba(i__main__
Player
p2428
(dp2429
g18
(dp2430
g20
Nsg21
I77
sg22
Nsg23
Nsg24
Nsg25
Nsg26
Nssg5
S'C. S\xc3\xa1nchez'
p2431
sg28
I31
sg11
Nsg29
Nsg30
S'Colombia'
p2432
sg32
Nsba(i__main__
Player
p2433
(dp2434
g18
(dp2435
g20
Nsg21
I77
sg22
Nsg23
Nsg24
Nsg25
Nsg26
Nssg5
S'S. Arias'
p2436
sg28
I25
sg11
Nsg29
Nsg30
S'Colombia'
p2437
sg32
Nsba(i__main__
Player
p2438
(dp2439
g18
(dp2440
g20
Nsg21
I76
sg22
Nsg23
Nsg24
Nsg25
Nsg26
Nssg5
S'O. Murillo'
p2441
sg28
I29
sg11
Nsg29
Nsg30
S'Colombia'
p2442
sg32
Nsba(i__main__
Player
p2443
(dp2444
g18
(dp2445
g20
Nsg21
I75
sg22
Nsg23
Nsg24
Nsg25
Nsg26
Nssg5
S'A. Aguilar'
p2446
sg28
I32
sg11
Nsg29
Nsg30
S'Colombia'
p2447
sg32
Nsba(i__main__
Player
p2448
(dp2449
g18
(dp2450
g20
Nsg21
I75
sg22
Nsg23
Nsg24
Nsg25
Nsg26
Nssg5
S'C. Vargas'
p2451
sg28
I28
sg11
Nsg29
Nsg30
S'Colombia'
p2452
sg32
Nsba(i__main__
Player
p2453
(dp2454
g18
(dp2455
g20
Nsg21
I75
sg22
Nsg23
Nsg24
Nsg25
Nsg26
Nssg5
S'J. Lerma'
p2456
sg28
I22
sg11
Nsg29
Nsg30
S'Colombia'
p2457
sg32
Nsba(i__main__
Player
p2458
(dp2459
g18
(dp2460
g20
Nsg21
I74
sg22
Nsg23
Nsg24
Nsg25
Nsg26
Nssg5
S'J. Cuadrado'
p2461
sg28
I32
sg11
Nsg29
Nsg30
S'Colombia'
p2462
sg32
Nsba(i__main__
Player
p2463
(dp2464
g18
(dp2465
g20
Nsg21
I74
sg22
Nsg23
Nsg24
Nsg25
Nsg26
Nssg5
S'W. Barrios'
p2466
sg28
I23
sg11
Nsg29
Nsg30
S'Colombia'
p2467
sg32
Nsba(i__main__
Player
p2468
(dp2469
g18
(dp2470
g20
Nsg21
I74
sg22
Nsg23
Nsg24
Nsg25
Nsg26
Nssg5
S'F. Uribe'
p2471
sg28
I29
sg11
Nsg29
Nsg30
S'Colombia'
p2472
sg32
Nsba(i__main__
Player
p2473
(dp2474
g18
(dp2475
g20
Nsg21
I73
sg22
Nsg23
Nsg24
Nsg25
Nsg26
Nssg5
S'M. Uribe'
p2476
sg28
I26
sg11
Nsg29
Nsg30
S'Colombia'
p2477
sg32
Nsba(i__main__
Player
p2478
(dp2479
g18
(dp2480
g20
Nsg21
I73
sg22
Nsg23
Nsg24
Nsg25
Nsg26
Nssg5
S'F. D\xc3\xadaz'
p2481
sg28
I33
sg11
Nsg29
Nsg30
S'Colombia'
p2482
sg32
Nsba(i__main__
Player
p2483
(dp2484
g18
(dp2485
g20
Nsg21
I73
sg22
Nsg23
Nsg24
Nsg25
Nsg26
Nssg5
S'A. Rodr\xc3\xadguez'
p2486
sg28
I28
sg11
Nsg29
Nsg30
S'Colombia'
p2487
sg32
Nsba(i__main__
Player
p2488
(dp2489
g18
(dp2490
g20
Nsg21
I73
sg22
Nsg23
Nsg24
Nsg25
Nsg26
Nssg5
S'M. Barrios'
p2491
sg28
I26
sg11
Nsg29
Nsg30
S'Colombia'
p2492
sg32
Nsbasg143
I2
sg144
Nsba(i__main__
Team
p2493
(dp2494
g3
Nsg4
Nsg5
S'Iceland'
p2495
sg7
I0
sg8
I1
sg9
Nsg10
I3
sg11
(lp2496
sg13
I0
sg14
(lp2497
(i__main__
Player
p2498
(dp2499
g18
(dp2500
g20
Nsg21
I82
sg22
Nsg23
Nsg24
Nsg25
Nsg26
Nssg5
S'G. Sigur\xc3\xb0sson'
p2501
sg28
I27
sg11
Nsg29
Nsg30
S'Iceland'
p2502
sg32
Nsba(i__main__
Player
p2503
(dp2504
g18
(dp2505
g20
Nsg21
I76
sg22
Nsg23
Nsg24
Nsg25
Nsg26
Nssg5
S'A. Finnbogason'
p2506
sg28
I28
sg11
Nsg29
Nsg30
S'Iceland'
p2507
sg32
Nsba(i__main__
Player
p2508
(dp2509
g18
(dp2510
g20
Nsg21
I75
sg22
Nsg23
Nsg24
Nsg25
Nsg26
Nssg5
S'E. Hallfre\xc3\xb0sson'
p2511
sg28
I33
sg11
Nsg29
Nsg30
S'Iceland'
p2512
sg32
Nsba(i__main__
Player
p2513
(dp2514
g18
(dp2515
g20
Nsg21
I73
sg22
Nsg23
Nsg24
Nsg25
Nsg26
Nssg5
S'J. Gu\xc3\xb0mundsson'
p2516
sg28
I26
sg11
Nsg29
Nsg30
S'Iceland'
p2517
sg32
Nsba(i__main__
Player
p2518
(dp2519
g18
(dp2520
g20
Nsg21
I73
sg22
Nsg23
Nsg24
Nsg25
Nsg26
Nssg5
S'B. Bjarnason'
p2521
sg28
I29
sg11
Nsg29
Nsg30
S'Iceland'
p2522
sg32
Nsba(i__main__
Player
p2523
(dp2524
g18
(dp2525
g20
Nsg21
I73
sg22
Nsg23
Nsg24
Nsg25
Nsg26
Nssg5
S'B. Sigur\xc3\xb0arson'
p2526
sg28
I25
sg11
Nsg29
Nsg30
S'Iceland'
p2527
sg32
Nsba(i__main__
Player
p2528
(dp2529
g18
(dp2530
g20
Nsg21
I72
sg22
Nsg23
Nsg24
Nsg25
Nsg26
Nssg5
S'R. Sigur\xc3\xb0sson'
p2531
sg28
I31
sg11
Nsg29
Nsg30
S'Iceland'
p2532
sg32
Nsba(i__main__
Player
p2533
(dp2534
g18
(dp2535
g20
Nsg21
I72
sg22
Nsg23
Nsg24
Nsg25
Nsg26
Nssg5
S'S. Ingason'
p2536
sg28
I23
sg11
Nsg29
Nsg30
S'Iceland'
p2537
sg32
Nsba(i__main__
Player
p2538
(dp2539
g18
(dp2540
g20
Nsg21
I70
sg22
Nsg23
Nsg24
Nsg25
Nsg26
Nssg5
S'O. Sk\xc3\xbalason'
p2541
sg28
I34
sg11
Nsg29
Nsg30
S'Iceland'
p2542
sg32
Nsba(i__main__
Player
p2543
(dp2544
g18
(dp2545
g20
Nsg21
I70
sg22
Nsg23
Nsg24
Nsg25
Nsg26
Nssg5
S'K. \xc3\x81rnason'
p2546
sg28
I34
sg11
Nsg29
Nsg30
S'Iceland'
p2547
sg32
Nsba(i__main__
Player
p2548
(dp2549
g18
(dp2550
g20
Nsg21
I70
sg22
Nsg23
Nsg24
Nsg25
Nsg26
Nssg5
S'A. Traustason'
p2551
sg28
I24
sg11
Nsg29
Nsg30
S'Iceland'
p2552
sg32
Nsba(i__main__
Player
p2553
(dp2554
g18
(dp2555
g20
Nsg21
I69
sg22
Nsg23
Nsg24
Nsg25
Nsg26
Nssg5
S'J. B\xc3\xb6\xc3\xb0varsson'
p2556
sg28
I25
sg11
Nsg29
Nsg30
S'Iceland'
p2557
sg32
Nsba(i__main__
Player
p2558
(dp2559
g18
(dp2560
g20
Nsg21
I68
sg22
Nsg23
Nsg24
Nsg25
Nsg26
Nssg5
S'R. G\xc3\xadslason'
p2561
sg28
I29
sg11
Nsg29
Nsg30
S'Iceland'
p2562
sg32
Nsba(i__main__
Player
p2563
(dp2564
g18
(dp2565
g20
Nsg21
I68
sg22
Nsg23
Nsg24
Nsg25
Nsg26
Nssg5
S'H. Magn\xc3\xbasson'
p2566
sg28
I24
sg11
Nsg29
Nsg30
S'Iceland'
p2567
sg32
Nsba(i__main__
Player
p2568
(dp2569
g18
(dp2570
g20
Nsg21
I68
sg22
Nsg23
Nsg24
Nsg25
Nsg26
Nssg5
S'A. Sk\xc3\xbalason'
p2571
sg28
I30
sg11
Nsg29
Nsg30
S'Iceland'
p2572
sg32
Nsba(i__main__
Player
p2573
(dp2574
g18
(dp2575
g20
Nsg21
I67
sg22
Nsg23
Nsg24
Nsg25
Nsg26
Nssg5
S'H. Halld\xc3\xb3rsson'
p2576
sg28
I33
sg11
Nsg29
Nsg30
S'Iceland'
p2577
sg32
Nsba(i__main__
Player
p2578
(dp2579
g18
(dp2580
g20
Nsg21
I66
sg22
Nsg23
Nsg24
Nsg25
Nsg26
Nssg5
S'B. S\xc3\xa6varsson'
p2581
sg28
I32
sg11
Nsg29
Nsg30
S'Iceland'
p2582
sg32
Nsba(i__main__
Player
p2583
(dp2584
g18
(dp2585
g20
Nsg21
I66
sg22
Nsg23
Nsg24
Nsg25
Nsg26
Nssg5
S'A. Gu\xc3\xb0mundsson'
p2586
sg28
I20
sg11
Nsg29
Nsg30
S'Iceland'
p2587
sg32
Nsba(i__main__
Player
p2588
(dp2589
g18
(dp2590
g20
Nsg21
I66
sg22
Nsg23
Nsg24
Nsg25
Nsg26
Nssg5
S'A. Sigur\xc3\xb0arson'
p2591
sg28
I23
sg11
Nsg29
Nsg30
S'Iceland'
p2592
sg32
Nsba(i__main__
Player
p2593
(dp2594
g18
(dp2595
g20
Nsg21
I65
sg22
Nsg23
Nsg24
Nsg25
Nsg26
Nssg5
S'K. Finnbogason'
p2596
sg28
I30
sg11
Nsg29
Nsg30
S'Iceland'
p2597
sg32
Nsba(i__main__
Player
p2598
(dp2599
g18
(dp2600
g20
Nsg21
I64
sg22
Nsg23
Nsg24
Nsg25
Nsg26
Nssg5
S'R. R\xc3\xbanarsson'
p2601
sg28
I22
sg11
Nsg29
Nsg30
S'Iceland'
p2602
sg32
Nsba(i__main__
Player
p2603
(dp2604
g18
(dp2605
g20
Nsg21
I62
sg22
Nsg23
Nsg24
Nsg25
Nsg26
Nssg5
S'K. Sigur\xc3\xb0sson'
p2606
sg28
I25
sg11
Nsg29
Nsg30
S'Iceland'
p2607
sg32
Nsba(i__main__
Player
p2608
(dp2609
g18
(dp2610
g20
Nsg21
I53
sg22
Nsg23
Nsg24
Nsg25
Nsg26
Nssg5
S'A. Sigur\xc3\xb0sson'
p2611
sg28
I18
sg11
Nsg29
Nsg30
S'Iceland'
p2612
sg32
Nsbasg143
I2
sg144
Nsba(i__main__
Team
p2613
(dp2614
g3
Nsg4
Nsg5
S'Russia'
p2615
sg7
I0
sg8
I1
sg9
Nsg10
I3
sg11
(lp2616
sg13
I0
sg14
(lp2617
(i__main__
Player
p2618
(dp2619
g18
(dp2620
g20
Nsg21
I81
sg22
Nsg23
Nsg24
Nsg25
Nsg26
Nssg5
S'M\xc3\xa1rio Fernandes'
p2621
sg28
I26
sg11
Nsg29
Nsg30
S'Russia'
p2622
sg32
Nsba(i__main__
Player
p2623
(dp2624
g18
(dp2625
g20
Nsg21
I80
sg22
Nsg23
Nsg24
Nsg25
Nsg26
Nssg5
S'A. Dzagoev'
p2626
sg28
I27
sg11
Nsg29
Nsg30
S'Russia'
p2627
sg32
Nsba(i__main__
Player
p2628
(dp2629
g18
(dp2630
g20
Nsg21
I80
sg22
Nsg23
Nsg24
Nsg25
Nsg26
Nssg5
S'F. Smolov'
p2631
sg28
I27
sg11
Nsg29
Nsg30
S'Russia'
p2632
sg32
Nsba(i__main__
Player
p2633
(dp2634
g18
(dp2635
g20
Nsg21
I79
sg22
Nsg23
Nsg24
Nsg25
Nsg26
Nssg5
S'I. Smolnikov'
p2636
sg28
I28
sg11
Nsg29
Nsg30
S'Russia'
p2637
sg32
Nsba(i__main__
Player
p2638
(dp2639
g18
(dp2640
g20
Nsg21
I79
sg22
Nsg23
Nsg24
Nsg25
Nsg26
Nssg5
S'A. Samedov'
p2641
sg28
I32
sg11
Nsg29
Nsg30
S'Russia'
p2642
sg32
Nsba(i__main__
Player
p2643
(dp2644
g18
(dp2645
g20
Nsg21
I78
sg22
Nsg23
Nsg24
Nsg25
Nsg26
Nssg5
S'D. Cheryshev'
p2646
sg28
I26
sg11
Nsg29
Nsg30
S'Russia'
p2647
sg32
Nsba(i__main__
Player
p2648
(dp2649
g18
(dp2650
g20
Nsg21
I78
sg22
Nsg23
Nsg24
Nsg25
Nsg26
Nssg5
S'D. Cheryshev'
p2651
sg28
I26
sg11
Nsg29
Nsg30
S'Russia'
p2652
sg32
Nsba(i__main__
Player
p2653
(dp2654
g18
(dp2655
g20
Nsg21
I78
sg22
Nsg23
Nsg24
Nsg25
Nsg26
Nssg5
S'S. Ignashevich'
p2656
sg28
I37
sg11
Nsg29
Nsg30
S'Russia'
p2657
sg32
Nsba(i__main__
Player
p2658
(dp2659
g18
(dp2660
g20
Nsg21
I78
sg22
Nsg23
Nsg24
Nsg25
Nsg26
Nssg5
S'A. Dzyuba'
p2661
sg28
I28
sg11
Nsg29
Nsg30
S'Russia'
p2662
sg32
Nsba(i__main__
Player
p2663
(dp2664
g18
(dp2665
g20
Nsg21
I77
sg22
Nsg23
Nsg24
Nsg25
Nsg26
Nssg5
S'R. Zobnin'
p2666
sg28
I23
sg11
Nsg29
Nsg30
S'Russia'
p2667
sg32
Nsba(i__main__
Player
p2668
(dp2669
g18
(dp2670
g20
Nsg21
I76
sg22
Nsg23
Nsg24
Nsg25
Nsg26
Nssg5
S'Y. Zhirkov'
p2671
sg28
I33
sg11
Nsg29
Nsg30
S'Russia'
p2672
sg32
Nsba(i__main__
Player
p2673
(dp2674
g18
(dp2675
g20
Nsg21
I76
sg22
Nsg23
Nsg24
Nsg25
Nsg26
Nssg5
S'A. Golovin'
p2676
sg28
I21
sg11
Nsg29
Nsg30
S'Russia'
p2677
sg32
Nsba(i__main__
Player
p2678
(dp2679
g18
(dp2680
g20
Nsg21
I75
sg22
Nsg23
Nsg24
Nsg25
Nsg26
Nssg5
S'Y. Gazinskiy'
p2681
sg28
I27
sg11
Nsg29
Nsg30
S'Russia'
p2682
sg32
Nsba(i__main__
Player
p2683
(dp2684
g18
(dp2685
g20
Nsg21
I74
sg22
Nsg23
Nsg24
Nsg25
Nsg26
Nssg5
S'A. Miranchuk'
p2686
sg28
I21
sg11
Nsg29
Nsg30
S'Russia'
p2687
sg32
Nsba(i__main__
Player
p2688
(dp2689
g18
(dp2690
g20
Nsg21
I74
sg22
Nsg23
Nsg24
Nsg25
Nsg26
Nssg5
S'D. Kuzyaev'
p2691
sg28
I24
sg11
Nsg29
Nsg30
S'Russia'
p2692
sg32
Nsba(i__main__
Player
p2693
(dp2694
g18
(dp2695
g20
Nsg21
I74
sg22
Nsg23
Nsg24
Nsg25
Nsg26
Nssg5
S'V. Gabulov'
p2696
sg28
I33
sg11
Nsg29
Nsg30
S'Russia'
p2697
sg32
Nsba(i__main__
Player
p2698
(dp2699
g18
(dp2700
g20
Nsg21
I73
sg22
Nsg23
Nsg24
Nsg25
Nsg26
Nssg5
S'F. Kudryashov'
p2701
sg28
I30
sg11
Nsg29
Nsg30
S'Russia'
p2702
sg32
Nsba(i__main__
Player
p2703
(dp2704
g18
(dp2705
g20
Nsg21
I73
sg22
Nsg23
Nsg24
Nsg25
Nsg26
Nssg5
S'I. Kutepov'
p2706
sg28
I23
sg11
Nsg29
Nsg30
S'Russia'
p2707
sg32
Nsba(i__main__
Player
p2708
(dp2709
g18
(dp2710
g20
Nsg21
I72
sg22
Nsg23
Nsg24
Nsg25
Nsg26
Nssg5
S'V. Granat'
p2711
sg28
I30
sg11
Nsg29
Nsg30
S'Russia'
p2712
sg32
Nsba(i__main__
Player
p2713
(dp2714
g18
(dp2715
g20
Nsg21
I68
sg22
Nsg23
Nsg24
Nsg25
Nsg26
Nssg5
S'A. Miranchuk'
p2716
sg28
I21
sg11
Nsg29
Nsg30
S'Russia'
p2717
sg32
Nsba(i__main__
Player
p2718
(dp2719
g18
(dp2720
g20
Nsg21
I67
sg22
Nsg23
Nsg24
Nsg25
Nsg26
Nssg5
S'G. Gabulov'
p2721
sg28
I28
sg11
Nsg29
Nsg30
S'Russia'
p2722
sg32
Nsba(i__main__
Player
p2723
(dp2724
g18
(dp2725
g20
Nsg21
I75
sg22
Nsg23
Nsg24
Nsg25
Nsg26
Nssg5
g757
sg28
I27
sg11
Nsg29
Nsg30
g2615
sg32
Nsba(i__main__
Player
p2726
(dp2727
g18
(dp2728
g20
Nsg21
I75
sg22
Nsg23
Nsg24
Nsg25
Nsg26
Nssg5
g757
sg28
I27
sg11
Nsg29
Nsg30
g2615
sg32
Nsbasg143
I2
sg144
Nsba(i__main__
Team
p2729
(dp2730
g3
Nsg4
Nsg5
S'Portugal'
p2731
sg7
I0
sg8
I1
sg9
Nsg10
I3
sg11
(lp2732
sg13
I0
sg14
(lp2733
(i__main__
Player
p2734
(dp2735
g18
(dp2736
g20
Nsg21
I86
sg22
Nsg23
Nsg24
Nsg25
Nsg26
Nssg5
S'Pepe'
p2737
sg28
I34
sg11
Nsg29
Nsg30
S'Portugal'
p2738
sg32
Nsba(i__main__
Player
p2739
(dp2740
g18
(dp2741
g20
Nsg21
I84
sg22
Nsg23
Nsg24
Nsg25
Nsg26
Nssg5
S'Bernardo Silva'
p2742
sg28
I22
sg11
Nsg29
Nsg30
S'Portugal'
p2743
sg32
Nsba(i__main__
Player
p2744
(dp2745
g18
(dp2746
g20
Nsg21
I83
sg22
Nsg23
Nsg24
Nsg25
Nsg26
Nssg5
S'Jo\xc3\xa3o M\xc3\xa1rio'
p2747
sg28
I24
sg11
Nsg29
Nsg30
S'Portugal'
p2748
sg32
Nsba(i__main__
Player
p2749
(dp2750
g18
(dp2751
g20
Nsg21
I83
sg22
Nsg23
Nsg24
Nsg25
Nsg26
Nssg5
S'William Carvalho'
p2752
sg28
I25
sg11
Nsg29
Nsg30
S'Portugal'
p2753
sg32
Nsba(i__main__
Player
p2754
(dp2755
g18
(dp2756
g20
Nsg21
I83
sg22
Nsg23
Nsg24
Nsg25
Nsg26
Nssg5
S'Danilo Pereira'
p2757
sg28
I25
sg11
Nsg29
Nsg30
S'Portugal'
p2758
sg32
Nsba(i__main__
Player
p2759
(dp2760
g18
(dp2761
g20
Nsg21
I83
sg22
Nsg23
Nsg24
Nsg25
Nsg26
Nssg5
S'A. Lopes'
p2762
sg28
I26
sg11
Nsg29
Nsg30
S'Portugal'
p2763
sg32
Nsba(i__main__
Player
p2764
(dp2765
g18
(dp2766
g20
Nsg21
I83
sg22
Nsg23
Nsg24
Nsg25
Nsg26
Nssg5
S'Adrien Silva'
p2767
sg28
I28
sg11
Nsg29
Nsg30
S'Portugal'
p2768
sg32
Nsba(i__main__
Player
p2769
(dp2770
g18
(dp2771
g20
Nsg21
I83
sg22
Nsg23
Nsg24
Nsg25
Nsg26
Nssg5
S'Rui Patr\xc3\xadcio'
p2772
sg28
I29
sg11
Nsg29
Nsg30
S'Portugal'
p2773
sg32
Nsba(i__main__
Player
p2774
(dp2775
g18
(dp2776
g20
Nsg21
I83
sg22
Nsg23
Nsg24
Nsg25
Nsg26
Nssg5
S'Quaresma'
p2777
sg28
I33
sg11
Nsg29
Nsg30
S'Portugal'
p2778
sg32
Nsba(i__main__
Player
p2779
(dp2780
g18
(dp2781
g20
Nsg21
I82
sg22
Nsg23
Nsg24
Nsg25
Nsg26
Nssg5
S'Jo\xc3\xa3o Moutinho'
p2782
sg28
I30
sg11
Nsg29
Nsg30
S'Portugal'
p2783
sg32
Nsba(i__main__
Player
p2784
(dp2785
g18
(dp2786
g20
Nsg21
I81
sg22
Nsg23
Nsg24
Nsg25
Nsg26
Nssg5
S'Gelson Martins'
p2787
sg28
I22
sg11
Nsg29
Nsg30
S'Portugal'
p2788
sg32
Nsba(i__main__
Player
p2789
(dp2790
g18
(dp2791
g20
Nsg21
I81
sg22
Nsg23
Nsg24
Nsg25
Nsg26
Nssg5
S'R. Guerreiro'
p2792
sg28
I23
sg11
Nsg29
Nsg30
S'Portugal'
p2793
sg32
Nsba(i__main__
Player
p2794
(dp2795
g18
(dp2796
g20
Nsg21
I80
sg22
Nsg23
Nsg24
Nsg25
Nsg26
Nssg5
S'Ricardo Pereira'
p2797
sg28
I23
sg11
Nsg29
Nsg30
S'Portugal'
p2798
sg32
Nsba(i__main__
Player
p2799
(dp2800
g18
(dp2801
g20
Nsg21
I80
sg22
Nsg23
Nsg24
Nsg25
Nsg26
Nssg5
S'Manuel Fernandes'
p2802
sg28
I31
sg11
Nsg29
Nsg30
S'Portugal'
p2803
sg32
Nsba(i__main__
Player
p2804
(dp2805
g18
(dp2806
g20
Nsg21
I79
sg22
Nsg23
Nsg24
Nsg25
Nsg26
Nssg5
S'C\xc3\xa9dric'
p2807
sg28
I25
sg11
Nsg29
Nsg30
S'Portugal'
p2808
sg32
Nsba(i__main__
Player
p2809
(dp2810
g18
(dp2811
g20
Nsg21
I79
sg22
Nsg23
Nsg24
Nsg25
Nsg26
Nssg5
S'Jos\xc3\xa9 Fonte'
p2812
sg28
I33
sg11
Nsg29
Nsg30
S'Portugal'
p2813
sg32
Nsba(i__main__
Player
p2814
(dp2815
g18
(dp2816
g20
Nsg21
I78
sg22
Nsg23
Nsg24
Nsg25
Nsg26
Nssg5
S'Andr\xc3\xa9 Silva'
p2817
sg28
I21
sg11
Nsg29
Nsg30
S'Portugal'
p2818
sg32
Nsba(i__main__
Player
p2819
(dp2820
g18
(dp2821
g20
Nsg21
I78
sg22
Nsg23
Nsg24
Nsg25
Nsg26
Nssg5
S'Bruno Fernandes'
p2822
sg28
I22
sg11
Nsg29
Nsg30
S'Portugal'
p2823
sg32
Nsba(i__main__
Player
p2824
(dp2825
g18
(dp2826
g20
Nsg21
I78
sg22
Nsg23
Nsg24
Nsg25
Nsg26
Nssg5
S'Bruno Alves'
p2827
sg28
I35
sg11
Nsg29
Nsg30
S'Portugal'
p2828
sg32
Nsba(i__main__
Player
p2829
(dp2830
g18
(dp2831
g20
Nsg21
I78
sg22
Nsg23
Nsg24
Nsg25
Nsg26
Nssg5
S'Miguel Lopes'
p2832
sg28
I30
sg11
Nsg29
Nsg30
S'Portugal'
p2833
sg32
Nsba(i__main__
Player
p2834
(dp2835
g18
(dp2836
g20
Nsg21
I78
sg22
Nsg23
Nsg24
Nsg25
Nsg26
Nssg5
S'Bruno Fernandes'
p2837
sg28
I22
sg11
Nsg29
Nsg30
S'Portugal'
p2838
sg32
Nsba(i__main__
Player
p2839
(dp2840
g18
(dp2841
g20
Nsg21
I77
sg22
Nsg23
Nsg24
Nsg25
Nsg26
Nssg5
S'M\xc3\xa1rio Rui'
p2842
sg28
I26
sg11
Nsg29
Nsg30
S'Portugal'
p2843
sg32
Nsba(i__main__
Player
p2844
(dp2845
g18
(dp2846
g20
Nsg21
I77
sg22
Nsg23
Nsg24
Nsg25
Nsg26
Nssg5
S'Rony Lopes'
p2847
sg28
I21
sg11
Nsg29
Nsg30
S'Portugal'
p2848
sg32
Nsbasg143
I2
sg144
Nsba(i__main__
Team
p2849
(dp2850
g3
Nsg4
Nsg5
S'Denmark'
p2851
sg7
I0
sg8
I1
sg9
Nsg10
I3
sg11
(lp2852
sg13
I0
sg14
(lp2853
(i__main__
Player
p2854
(dp2855
g18
(dp2856
g20
Nsg21
I87
sg22
Nsg23
Nsg24
Nsg25
Nsg26
Nssg5
S'C. Eriksen'
p2857
sg28
I25
sg11
Nsg29
Nsg30
S'Denmark'
p2858
sg32
Nsba(i__main__
Player
p2859
(dp2860
g18
(dp2861
g20
Nsg21
I83
sg22
Nsg23
Nsg24
Nsg25
Nsg26
Nssg5
S'K. Schmeichel'
p2862
sg28
I30
sg11
Nsg29
Nsg30
S'Denmark'
p2863
sg32
Nsba(i__main__
Player
p2864
(dp2865
g18
(dp2866
g20
Nsg21
I81
sg22
Nsg23
Nsg24
Nsg25
Nsg26
Nssg5
S'A. Christensen'
p2867
sg28
I21
sg11
Nsg29
Nsg30
S'Denmark'
p2868
sg32
Nsba(i__main__
Player
p2869
(dp2870
g18
(dp2871
g20
Nsg21
I79
sg22
Nsg23
Nsg24
Nsg25
Nsg26
Nssg5
S'J. Vestergaard'
p2872
sg28
I24
sg11
Nsg29
Nsg30
S'Denmark'
p2873
sg32
Nsba(i__main__
Player
p2874
(dp2875
g18
(dp2876
g20
Nsg21
I79
sg22
Nsg23
Nsg24
Nsg25
Nsg26
Nssg5
S'N. J\xc3\xb8rgensen'
p2877
sg28
I26
sg11
Nsg29
Nsg30
S'Denmark'
p2878
sg32
Nsba(i__main__
Player
p2879
(dp2880
g18
(dp2881
g20
Nsg21
I79
sg22
Nsg23
Nsg24
Nsg25
Nsg26
Nssg5
S'M. Krohn-Dehli'
p2882
sg28
I34
sg11
Nsg29
Nsg30
S'Denmark'
p2883
sg32
Nsba(i__main__
Player
p2884
(dp2885
g18
(dp2886
g20
Nsg21
I78
sg22
Nsg23
Nsg24
Nsg25
Nsg26
Nssg5
S'K. Dolberg'
p2887
sg28
I19
sg11
Nsg29
Nsg30
S'Denmark'
p2888
sg32
Nsba(i__main__
Player
p2889
(dp2890
g18
(dp2891
g20
Nsg21
I77
sg22
Nsg23
Nsg24
Nsg25
Nsg26
Nssg5
S'M. Braithwaite'
p2892
sg28
I26
sg11
Nsg29
Nsg30
S'Denmark'
p2893
sg32
Nsba(i__main__
Player
p2894
(dp2895
g18
(dp2896
g20
Nsg21
I76
sg22
Nsg23
Nsg24
Nsg25
Nsg26
Nssg5
S'Y. Poulsen'
p2897
sg28
I23
sg11
Nsg29
Nsg30
S'Denmark'
p2898
sg32
Nsba(i__main__
Player
p2899
(dp2900
g18
(dp2901
g20
Nsg21
I75
sg22
Nsg23
Nsg24
Nsg25
Nsg26
Nssg5
S'L. Lerager'
p2902
sg28
I23
sg11
Nsg29
Nsg30
S'Denmark'
p2903
sg32
Nsba(i__main__
Player
p2904
(dp2905
g18
(dp2906
g20
Nsg21
I75
sg22
Nsg23
Nsg24
Nsg25
Nsg26
Nssg5
S'J. L\xc3\xb6ssl'
p2907
sg28
I28
sg11
Nsg29
Nsg30
S'Denmark'
p2908
sg32
Nsba(i__main__
Player
p2909
(dp2910
g18
(dp2911
g20
Nsg21
I75
sg22
Nsg23
Nsg24
Nsg25
Nsg26
Nssg5
S'V. Fischer'
p2912
sg28
I23
sg11
Nsg29
Nsg30
S'Denmark'
p2913
sg32
Nsba(i__main__
Player
p2914
(dp2915
g18
(dp2916
g20
Nsg21
I75
sg22
Nsg23
Nsg24
Nsg25
Nsg26
Nssg5
S'M. J\xc3\xb8rgensen'
p2917
sg28
I27
sg11
Nsg29
Nsg30
S'Denmark'
p2918
sg32
Nsba(i__main__
Player
p2919
(dp2920
g18
(dp2921
g20
Nsg21
I74
sg22
Nsg23
Nsg24
Nsg25
Nsg26
Nssg5
S'P. Sisto'
p2922
sg28
I22
sg11
Nsg29
Nsg30
S'Denmark'
p2923
sg32
Nsba(i__main__
Player
p2924
(dp2925
g18
(dp2926
g20
Nsg21
I73
sg22
Nsg23
Nsg24
Nsg25
Nsg26
Nssg5
S'F. R\xc3\xb8nnow'
p2927
sg28
I24
sg11
Nsg29
Nsg30
S'Denmark'
p2928
sg32
Nsba(i__main__
Player
p2929
(dp2930
g18
(dp2931
g20
Nsg21
I73
sg22
Nsg23
Nsg24
Nsg25
Nsg26
Nssg5
S'A. Cornelius'
p2932
sg28
I24
sg11
Nsg29
Nsg30
S'Denmark'
p2933
sg32
Nsba(i__main__
Player
p2934
(dp2935
g18
(dp2936
g20
Nsg21
I71
sg22
Nsg23
Nsg24
Nsg25
Nsg26
Nssg5
S'J. Poulsen'
p2937
sg28
I33
sg11
Nsg29
Nsg30
S'Denmark'
p2938
sg32
Nsba(i__main__
Player
p2939
(dp2940
g18
(dp2941
g20
Nsg21
I71
sg22
Nsg23
Nsg24
Nsg25
Nsg26
Nssg5
S'H. Dalsgaard'
p2942
sg28
I27
sg11
Nsg29
Nsg30
S'Denmark'
p2943
sg32
Nsba(i__main__
Player
p2944
(dp2945
g18
(dp2946
g20
Nsg21
I70
sg22
Nsg23
Nsg24
Nsg25
Nsg26
Nssg5
S'W. Kvist'
p2947
sg28
I32
sg11
Nsg29
Nsg30
S'Denmark'
p2948
sg32
Nsba(i__main__
Player
p2949
(dp2950
g18
(dp2951
g20
Nsg21
I70
sg22
Nsg23
Nsg24
Nsg25
Nsg26
Nssg5
S'K. Larsen'
p2952
sg28
I24
sg11
Nsg29
Nsg30
S'Denmark'
p2953
sg32
Nsba(i__main__
Player
p2954
(dp2955
g18
(dp2956
g20
Nsg21
I69
sg22
Nsg23
Nsg24
Nsg25
Nsg26
Nssg5
S'J. Knudsen'
p2957
sg28
I24
sg11
Nsg29
Nsg30
S'Denmark'
p2958
sg32
Nsba(i__main__
Player
p2959
(dp2960
g18
(dp2961
g20
Nsg21
I69
sg22
Nsg23
Nsg24
Nsg25
Nsg26
Nssg5
S'J. Stryger Larsen'
p2962
sg28
I26
sg11
Nsg29
Nsg30
S'Denmark'
p2963
sg32
Nsba(i__main__
Player
p2964
(dp2965
g18
(dp2966
g20
Nsg21
I68
sg22
Nsg23
Nsg24
Nsg25
Nsg26
Nssg5
S'L. Christensen'
p2967
sg28
I22
sg11
Nsg29
Nsg30
S'Denmark'
p2968
sg32
Nsbasg143
I2
sg144
Nsba(i__main__
Team
p2969
(dp2970
g3
Nsg4
Nsg5
S'Spain'
p2971
sg7
I0
sg8
I1
sg9
Nsg10
I3
sg11
(lp2972
sg13
I0
sg14
(lp2973
(i__main__
Player
p2974
(dp2975
g18
(dp2976
g20
Nsg21
I90
sg22
Nsg23
Nsg24
Nsg25
Nsg26
Nssg5
S'De Gea'
p2977
sg28
I26
sg11
Nsg29
Nsg30
S'Spain'
p2978
sg32
Nsba(i__main__
Player
p2979
(dp2980
g18
(dp2981
g20
Nsg21
I88
sg22
Nsg23
Nsg24
Nsg25
Nsg26
Nssg5
S'Thiago'
p2982
sg28
I26
sg11
Nsg29
Nsg30
S'Spain'
p2983
sg32
Nsba(i__main__
Player
p2984
(dp2985
g18
(dp2986
g20
Nsg21
I87
sg22
Nsg23
Nsg24
Nsg25
Nsg26
Nssg5
S'David Silva'
p2987
sg28
I31
sg11
Nsg29
Nsg30
S'Spain'
p2988
sg32
Nsba(i__main__
Player
p2989
(dp2990
g18
(dp2991
g20
Nsg21
I87
sg22
Nsg23
Nsg24
Nsg25
Nsg26
Nssg5
S'Piqu\xc3\xa9'
p2992
sg28
I30
sg11
Nsg29
Nsg30
S'Spain'
p2993
sg32
Nsba(i__main__
Player
p2994
(dp2995
g18
(dp2996
g20
Nsg21
I87
sg22
Nsg23
Nsg24
Nsg25
Nsg26
Nssg5
S'Iniesta'
p2997
sg28
I33
sg11
Nsg29
Nsg30
S'Spain'
p2998
sg32
Nsba(i__main__
Player
p2999
(dp3000
g18
(dp3001
g20
Nsg21
I86
sg22
Nsg23
Nsg24
Nsg25
Nsg26
Nssg5
S'Isco'
p3002
sg28
I25
sg11
Nsg29
Nsg30
S'Spain'
p3003
sg32
Nsba(i__main__
Player
p3004
(dp3005
g18
(dp3006
g20
Nsg21
I86
sg22
Nsg23
Nsg24
Nsg25
Nsg26
Nssg5
S'Sergio Busquets'
p3007
sg28
I28
sg11
Nsg29
Nsg30
S'Spain'
p3008
sg32
Nsba(i__main__
Player
p3009
(dp3010
g18
(dp3011
g20
Nsg21
I86
sg22
Nsg23
Nsg24
Nsg25
Nsg26
Nssg5
S'Diego Costa'
p3012
sg28
I28
sg11
Nsg29
Nsg30
S'Spain'
p3013
sg32
Nsba(i__main__
Player
p3014
(dp3015
g18
(dp3016
g20
Nsg21
I85
sg22
Nsg23
Nsg24
Nsg25
Nsg26
Nssg5
S'Jordi Alba'
p3017
sg28
I28
sg11
Nsg29
Nsg30
S'Spain'
p3018
sg32
Nsba(i__main__
Player
p3019
(dp3020
g18
(dp3021
g20
Nsg21
I85
sg22
Nsg23
Nsg24
Nsg25
Nsg26
Nssg5
S'Azpilicueta'
p3022
sg28
I27
sg11
Nsg29
Nsg30
S'Spain'
p3023
sg32
Nsba(i__main__
Player
p3024
(dp3025
g18
(dp3026
g20
Nsg21
I84
sg22
Nsg23
Nsg24
Nsg25
Nsg26
Nssg5
S'Marco Asensio'
p3027
sg28
I21
sg11
Nsg29
Nsg30
S'Spain'
p3028
sg32
Nsba(i__main__
Player
p3029
(dp3030
g18
(dp3031
g20
Nsg21
I84
sg22
Nsg23
Nsg24
Nsg25
Nsg26
Nssg5
S'Carvajal'
p3032
sg28
I25
sg11
Nsg29
Nsg30
S'Spain'
p3033
sg32
Nsba(i__main__
Player
p3034
(dp3035
g18
(dp3036
g20
Nsg21
I84
sg22
Nsg23
Nsg24
Nsg25
Nsg26
Nssg5
S'Koke'
p3037
sg28
I25
sg11
Nsg29
Nsg30
S'Spain'
p3038
sg32
Nsba(i__main__
Player
p3039
(dp3040
g18
(dp3041
g20
Nsg21
I83
sg22
Nsg23
Nsg24
Nsg25
Nsg26
Nssg5
S'Iago Aspas'
p3042
sg28
I29
sg11
Nsg29
Nsg30
S'Spain'
p3043
sg32
Nsba(i__main__
Player
p3044
(dp3045
g18
(dp3046
g20
Nsg21
I83
sg22
Nsg23
Nsg24
Nsg25
Nsg26
Nssg5
S'Jos\xc3\xa9 Reina'
p3047
sg28
I34
sg11
Nsg29
Nsg30
S'Spain'
p3048
sg32
Nsba(i__main__
Player
p3049
(dp3050
g18
(dp3051
g20
Nsg21
I82
sg22
Nsg23
Nsg24
Nsg25
Nsg26
Nssg5
S'Lucas V\xc3\xa1zquez'
p3052
sg28
I26
sg11
Nsg29
Nsg30
S'Spain'
p3053
sg32
Nsba(i__main__
Player
p3054
(dp3055
g18
(dp3056
g20
Nsg21
I82
sg22
Nsg23
Nsg24
Nsg25
Nsg26
Nssg5
S'Sa\xc3\xbal'
p3057
sg28
I22
sg11
Nsg29
Nsg30
S'Spain'
p3058
sg32
Nsba(i__main__
Player
p3059
(dp3060
g18
(dp3061
g20
Nsg21
I80
sg22
Nsg23
Nsg24
Nsg25
Nsg26
Nssg5
S'Arrizabalaga'
p3062
sg28
I22
sg11
Nsg29
Nsg30
S'Spain'
p3063
sg32
Nsba(i__main__
Player
p3064
(dp3065
g18
(dp3066
g20
Nsg21
I80
sg22
Nsg23
Nsg24
Nsg25
Nsg26
Nssg5
S'Nacho Monreal'
p3067
sg28
I31
sg11
Nsg29
Nsg30
S'Spain'
p3068
sg32
Nsba(i__main__
Player
p3069
(dp3070
g18
(dp3071
g20
Nsg21
I79
sg22
Nsg23
Nsg24
Nsg25
Nsg26
Nssg5
S'Jaume Costa'
p3072
sg28
I29
sg11
Nsg29
Nsg30
S'Spain'
p3073
sg32
Nsba(i__main__
Player
p3074
(dp3075
g18
(dp3076
g20
Nsg21
I78
sg22
Nsg23
Nsg24
Nsg25
Nsg26
Nssg5
S'Rodrigo'
p3077
sg28
I26
sg11
Nsg29
Nsg30
S'Spain'
p3078
sg32
Nsba(i__main__
Player
p3079
(dp3080
g18
(dp3081
g20
Nsg21
I78
sg22
Nsg23
Nsg24
Nsg25
Nsg26
Nssg5
S'Rodrigo'
p3082
sg28
I26
sg11
Nsg29
Nsg30
S'Spain'
p3083
sg32
Nsba(i__main__
Player
p3084
(dp3085
g18
(dp3086
g20
Nsg21
I76
sg22
Nsg23
Nsg24
Nsg25
Nsg26
Nssg5
S'V\xc3\xadctor V\xc3\xa1zquez'
p3087
sg28
I30
sg11
Nsg29
Nsg30
S'Spain'
p3088
sg32
Nsbasg143
I2
sg144
Nsba(i__main__
Team
p3089
(dp3090
g3
Nsg4
Nsg5
S'Mexico'
p3091
sg7
I0
sg8
I1
sg9
Nsg10
I3
sg11
(lp3092
sg13
I0
sg14
(lp3093
(i__main__
Player
p3094
(dp3095
g18
(dp3096
g20
Nsg21
I82
sg22
Nsg23
Nsg24
Nsg25
Nsg26
Nssg5
S'J. Hern\xc3\xa1ndez'
p3097
sg28
I29
sg11
Nsg29
Nsg30
S'Mexico'
p3098
sg32
Nsba(i__main__
Player
p3099
(dp3100
g18
(dp3101
g20
Nsg21
I82
sg22
Nsg23
Nsg24
Nsg25
Nsg26
Nssg5
S'C. Vela'
p3102
sg28
I28
sg11
Nsg29
Nsg30
S'Mexico'
p3103
sg32
Nsba(i__main__
Player
p3104
(dp3105
g18
(dp3106
g20
Nsg21
I81
sg22
Nsg23
Nsg24
Nsg25
Nsg26
Nssg5
S'J. Corona'
p3107
sg28
I24
sg11
Nsg29
Nsg30
S'Mexico'
p3108
sg32
Nsba(i__main__
Player
p3109
(dp3110
g18
(dp3111
g20
Nsg21
I80
sg22
Nsg23
Nsg24
Nsg25
Nsg26
Nssg5
S'H. Moreno'
p3112
sg28
I29
sg11
Nsg29
Nsg30
S'Mexico'
p3113
sg32
Nsba(i__main__
Player
p3114
(dp3115
g18
(dp3116
g20
Nsg21
I80
sg22
Nsg23
Nsg24
Nsg25
Nsg26
Nssg5
S'A. Guardado'
p3117
sg28
I30
sg11
Nsg29
Nsg30
S'Mexico'
p3118
sg32
Nsba(i__main__
Player
p3119
(dp3120
g18
(dp3121
g20
Nsg21
I80
sg22
Nsg23
Nsg24
Nsg25
Nsg26
Nssg5
S'J. dos Santos'
p3122
sg28
I27
sg11
Nsg29
Nsg30
S'Mexico'
p3123
sg32
Nsba(i__main__
Player
p3124
(dp3125
g18
(dp3126
g20
Nsg21
I79
sg22
Nsg23
Nsg24
Nsg25
Nsg26
Nssg5
S'M. Fabi\xc3\xa1n'
p3127
sg28
I27
sg11
Nsg29
Nsg30
S'Mexico'
p3128
sg32
Nsba(i__main__
Player
p3129
(dp3130
g18
(dp3131
g20
Nsg21
I79
sg22
Nsg23
Nsg24
Nsg25
Nsg26
Nssg5
S'G. dos Santos'
p3132
sg28
I28
sg11
Nsg29
Nsg30
S'Mexico'
p3133
sg32
Nsba(i__main__
Player
p3134
(dp3135
g18
(dp3136
g20
Nsg21
I79
sg22
Nsg23
Nsg24
Nsg25
Nsg26
Nssg5
S'H. Herrera'
p3137
sg28
I27
sg11
Nsg29
Nsg30
S'Mexico'
p3138
sg32
Nsba(i__main__
Player
p3139
(dp3140
g18
(dp3141
g20
Nsg21
I79
sg22
Nsg23
Nsg24
Nsg25
Nsg26
Nssg5
S'G. Ochoa'
p3142
sg28
I31
sg11
Nsg29
Nsg30
S'Mexico'
p3143
sg32
Nsba(i__main__
Player
p3144
(dp3145
g18
(dp3146
g20
Nsg21
I78
sg22
Nsg23
Nsg24
Nsg25
Nsg26
Nssg5
S'H. Lozano'
p3147
sg28
I21
sg11
Nsg29
Nsg30
S'Mexico'
p3148
sg32
Nsba(i__main__
Player
p3149
(dp3150
g18
(dp3151
g20
Nsg21
I78
sg22
Nsg23
Nsg24
Nsg25
Nsg26
Nssg5
S'R. Jim\xc3\xa9nez'
p3152
sg28
I26
sg11
Nsg29
Nsg30
S'Mexico'
p3153
sg32
Nsba(i__main__
Player
p3154
(dp3155
g18
(dp3156
g20
Nsg21
I78
sg22
Nsg23
Nsg24
Nsg25
Nsg26
Nssg5
S'M. Lay\xc3\xban'
p3157
sg28
I29
sg11
Nsg29
Nsg30
S'Mexico'
p3158
sg32
Nsba(i__main__
Player
p3159
(dp3160
g18
(dp3161
g20
Nsg21
I77
sg22
Nsg23
Nsg24
Nsg25
Nsg26
Nssg5
S'J. Aquino'
p3162
sg28
I27
sg11
Nsg29
Nsg30
S'Mexico'
p3163
sg32
Nsba(i__main__
Player
p3164
(dp3165
g18
(dp3166
g20
Nsg21
I77
sg22
Nsg23
Nsg24
Nsg25
Nsg26
Nssg5
S'E. Hern\xc3\xa1ndez'
p3167
sg28
I29
sg11
Nsg29
Nsg30
S'Mexico'
p3168
sg32
Nsba(i__main__
Player
p3169
(dp3170
g18
(dp3171
g20
Nsg21
I76
sg22
Nsg23
Nsg24
Nsg25
Nsg26
Nssg5
S'O. Peralta'
p3172
sg28
I33
sg11
Nsg29
Nsg30
S'Mexico'
p3173
sg32
Nsba(i__main__
Player
p3174
(dp3175
g18
(dp3176
g20
Nsg21
I76
sg22
Nsg23
Nsg24
Nsg25
Nsg26
Nssg5
S'E. Guti\xc3\xa9rrez'
p3177
sg28
I22
sg11
Nsg29
Nsg30
S'Mexico'
p3178
sg32
Nsba(i__main__
Player
p3179
(dp3180
g18
(dp3181
g20
Nsg21
I76
sg22
Nsg23
Nsg24
Nsg25
Nsg26
Nssg5
S'J. Corona'
p3182
sg28
I36
sg11
Nsg29
Nsg30
S'Mexico'
p3183
sg32
Nsba(i__main__
Player
p3184
(dp3185
g18
(dp3186
g20
Nsg21
I75
sg22
Nsg23
Nsg24
Nsg25
Nsg26
Nssg5
S'J. Hern\xc3\xa1ndez'
p3187
sg28
I28
sg11
Nsg29
Nsg30
S'Mexico'
p3188
sg32
Nsba(i__main__
Player
p3189
(dp3190
g18
(dp3191
g20
Nsg21
I75
sg22
Nsg23
Nsg24
Nsg25
Nsg26
Nssg5
S'H. Ayala'
p3192
sg28
I30
sg11
Nsg29
Nsg30
S'Mexico'
p3193
sg32
Nsba(i__main__
Player
p3194
(dp3195
g18
(dp3196
g20
Nsg21
I74
sg22
Nsg23
Nsg24
Nsg25
Nsg26
Nssg5
S'C. Salcedo'
p3197
sg28
I23
sg11
Nsg29
Nsg30
S'Mexico'
p3198
sg32
Nsba(i__main__
Player
p3199
(dp3200
g18
(dp3201
g20
Nsg21
I72
sg22
Nsg23
Nsg24
Nsg25
Nsg26
Nssg5
S'E. Hern\xc3\xa1ndez'
p3202
sg28
I30
sg11
Nsg29
Nsg30
S'Mexico'
p3203
sg32
Nsba(i__main__
Player
p3204
(dp3205
g18
(dp3206
g20
Nsg21
I72
sg22
Nsg23
Nsg24
Nsg25
Nsg26
Nssg5
S'I. Jim\xc3\xa9nez'
p3207
sg28
I27
sg11
Nsg29
Nsg30
S'Mexico'
p3208
sg32
Nsbasg143
I2
sg144
Nsba(i__main__
Team
p3209
(dp3210
g3
Nsg4
Nsg5
S'Croatia'
p3211
sg7
I0
sg8
I1
sg9
Nsg10
I3
sg11
(lp3212
sg13
I0
sg14
(lp3213
(i__main__
Player
p3214
(dp3215
g18
(dp3216
g20
Nsg21
I87
sg22
Nsg23
Nsg24
Nsg25
Nsg26
Nssg5
S'I. Rakiti\xc4\x87'
p3217
sg28
I29
sg11
Nsg29
Nsg30
S'Croatia'
p3218
sg32
Nsba(i__main__
Player
p3219
(dp3220
g18
(dp3221
g20
Nsg21
I85
sg22
Nsg23
Nsg24
Nsg25
Nsg26
Nssg5
S'D. Suba\xc5\xa1i\xc4\x87'
p3222
sg28
I32
sg11
Nsg29
Nsg30
S'Croatia'
p3223
sg32
Nsba(i__main__
Player
p3224
(dp3225
g18
(dp3226
g20
Nsg21
I84
sg22
Nsg23
Nsg24
Nsg25
Nsg26
Nssg5
S'I. Peri\xc5\xa1i\xc4\x87'
p3227
sg28
I28
sg11
Nsg29
Nsg30
S'Croatia'
p3228
sg32
Nsba(i__main__
Player
p3229
(dp3230
g18
(dp3231
g20
Nsg21
I83
sg22
Nsg23
Nsg24
Nsg25
Nsg26
Nssg5
S'M. Mand\xc5\xbeuki\xc4\x87'
p3232
sg28
I31
sg11
Nsg29
Nsg30
S'Croatia'
p3233
sg32
Nsba(i__main__
Player
p3234
(dp3235
g18
(dp3236
g20
Nsg21
I82
sg22
Nsg23
Nsg24
Nsg25
Nsg26
Nssg5
S'M. Kova\xc4\x8di\xc4\x87'
p3237
sg28
I23
sg11
Nsg29
Nsg30
S'Croatia'
p3238
sg32
Nsba(i__main__
Player
p3239
(dp3240
g18
(dp3241
g20
Nsg21
I82
sg22
Nsg23
Nsg24
Nsg25
Nsg26
Nssg5
S'V. \xc4\x86orluka'
p3242
sg28
I31
sg11
Nsg29
Nsg30
S'Croatia'
p3243
sg32
Nsba(i__main__
Player
p3244
(dp3245
g18
(dp3246
g20
Nsg21
I81
sg22
Nsg23
Nsg24
Nsg25
Nsg26
Nssg5
S'A. Kramari\xc4\x87'
p3247
sg28
I26
sg11
Nsg29
Nsg30
S'Croatia'
p3248
sg32
Nsba(i__main__
Player
p3249
(dp3250
g18
(dp3251
g20
Nsg21
I81
sg22
Nsg23
Nsg24
Nsg25
Nsg26
Nssg5
S'M. Brozovi\xc4\x87'
p3252
sg28
I24
sg11
Nsg29
Nsg30
S'Croatia'
p3253
sg32
Nsba(i__main__
Player
p3254
(dp3255
g18
(dp3256
g20
Nsg21
I81
sg22
Nsg23
Nsg24
Nsg25
Nsg26
Nssg5
S'D. Lovren'
p3257
sg28
I27
sg11
Nsg29
Nsg30
S'Croatia'
p3258
sg32
Nsba(i__main__
Player
p3259
(dp3260
g18
(dp3261
g20
Nsg21
I81
sg22
Nsg23
Nsg24
Nsg25
Nsg26
Nssg5
S'N. Kalini\xc4\x87'
p3262
sg28
I29
sg11
Nsg29
Nsg30
S'Croatia'
p3263
sg32
Nsba(i__main__
Player
p3264
(dp3265
g18
(dp3266
g20
Nsg21
I79
sg22
Nsg23
Nsg24
Nsg25
Nsg26
Nssg5
S'S. Vrsaljko'
p3267
sg28
I25
sg11
Nsg29
Nsg30
S'Croatia'
p3268
sg32
Nsba(i__main__
Player
p3269
(dp3270
g18
(dp3271
g20
Nsg21
I78
sg22
Nsg23
Nsg24
Nsg25
Nsg26
Nssg5
S'M. Badelj'
p3272
sg28
I28
sg11
Nsg29
Nsg30
S'Croatia'
p3273
sg32
Nsba(i__main__
Player
p3274
(dp3275
g18
(dp3276
g20
Nsg21
I78
sg22
Nsg23
Nsg24
Nsg25
Nsg26
Nssg5
S'M. Badelj'
p3277
sg28
I28
sg11
Nsg29
Nsg30
S'Croatia'
p3278
sg32
Nsba(i__main__
Player
p3279
(dp3280
g18
(dp3281
g20
Nsg21
I77
sg22
Nsg23
Nsg24
Nsg25
Nsg26
Nssg5
S'L. Kalini\xc4\x87'
p3282
sg28
I27
sg11
Nsg29
Nsg30
S'Croatia'
p3283
sg32
Nsba(i__main__
Player
p3284
(dp3285
g18
(dp3286
g20
Nsg21
I76
sg22
Nsg23
Nsg24
Nsg25
Nsg26
Nssg5
S'T. Jedvaj'
p3287
sg28
I21
sg11
Nsg29
Nsg30
S'Croatia'
p3288
sg32
Nsba(i__main__
Player
p3289
(dp3290
g18
(dp3291
g20
Nsg21
I76
sg22
Nsg23
Nsg24
Nsg25
Nsg26
Nssg5
S'M. Pjaca'
p3292
sg28
I22
sg11
Nsg29
Nsg30
S'Croatia'
p3293
sg32
Nsba(i__main__
Player
p3294
(dp3295
g18
(dp3296
g20
Nsg21
I75
sg22
Nsg23
Nsg24
Nsg25
Nsg26
Nssg5
S'I. Strini\xc4\x87'
p3297
sg28
I29
sg11
Nsg29
Nsg30
S'Croatia'
p3298
sg32
Nsba(i__main__
Player
p3299
(dp3300
g18
(dp3301
g20
Nsg21
I72
sg22
Nsg23
Nsg24
Nsg25
Nsg26
Nssg5
S'A. Rebi\xc4\x87'
p3302
sg28
I23
sg11
Nsg29
Nsg30
S'Croatia'
p3303
sg32
Nsba(i__main__
Player
p3304
(dp3305
g18
(dp3306
g20
Nsg21
I71
sg22
Nsg23
Nsg24
Nsg25
Nsg26
Nssg5
S'D. \xc4\x86aleta-Car'
p3307
sg28
I20
sg11
Nsg29
Nsg30
S'Croatia'
p3308
sg32
Nsba(i__main__
Player
p3309
(dp3310
g18
(dp3311
g20
Nsg21
I58
sg22
Nsg23
Nsg24
Nsg25
Nsg26
Nssg5
S'D. Lovren'
p3312
sg28
I18
sg11
Nsg29
Nsg30
S'Croatia'
p3313
sg32
Nsba(i__main__
Player
p3314
(dp3315
g18
(dp3316
g20
Nsg21
I58
sg22
Nsg23
Nsg24
Nsg25
Nsg26
Nssg5
S'D. Kova\xc4\x8di\xc4\x87'
p3317
sg28
I23
sg11
Nsg29
Nsg30
S'Croatia'
p3318
sg32
Nsba(i__main__
Player
p3319
(dp3320
g18
(dp3321
g20
Nsg21
I77
sg22
Nsg23
Nsg24
Nsg25
Nsg26
Nssg5
g757
sg28
I25
sg11
Nsg29
Nsg30
g3211
sg32
Nsba(i__main__
Player
p3322
(dp3323
g18
(dp3324
g20
Nsg21
I77
sg22
Nsg23
Nsg24
Nsg25
Nsg26
Nssg5
g757
sg28
I25
sg11
Nsg29
Nsg30
g3211
sg32
Nsbasg143
I2
sg144
Nsba(i__main__
Team
p3325
(dp3326
g3
Nsg4
Nsg5
S'Uruguay'
p3327
sg7
I0
sg8
I1
sg9
Nsg10
I3
sg11
(lp3328
sg13
I0
sg14
(lp3329
(i__main__
Player
p3330
(dp3331
g18
(dp3332
g20
Nsg21
I92
sg22
Nsg23
Nsg24
Nsg25
Nsg26
Nssg5
S'L. Su\xc3\xa1rez'
p3333
sg28
I30
sg11
Nsg29
Nsg30
S'Uruguay'
p3334
sg32
Nsba(i__main__
Player
p3335
(dp3336
g18
(dp3337
g20
Nsg21
I87
sg22
Nsg23
Nsg24
Nsg25
Nsg26
Nssg5
S'E. Cavani'
p3338
sg28
I30
sg11
Nsg29
Nsg30
S'Uruguay'
p3339
sg32
Nsba(i__main__
Player
p3340
(dp3341
g18
(dp3342
g20
Nsg21
I83
sg22
Nsg23
Nsg24
Nsg25
Nsg26
Nssg5
S'J. Gim\xc3\xa9nez'
p3343
sg28
I22
sg11
Nsg29
Nsg30
S'Uruguay'
p3344
sg32
Nsba(i__main__
Player
p3345
(dp3346
g18
(dp3347
g20
Nsg21
I82
sg22
Nsg23
Nsg24
Nsg25
Nsg26
Nssg5
S'F. Muslera'
p3348
sg28
I31
sg11
Nsg29
Nsg30
S'Uruguay'
p3349
sg32
Nsba(i__main__
Player
p3350
(dp3351
g18
(dp3352
g20
Nsg21
I81
sg22
Nsg23
Nsg24
Nsg25
Nsg26
Nssg5
S'S. Coates'
p3353
sg28
I26
sg11
Nsg29
Nsg30
S'Uruguay'
p3354
sg32
Nsba(i__main__
Player
p3355
(dp3356
g18
(dp3357
g20
Nsg21
I79
sg22
Nsg23
Nsg24
Nsg25
Nsg26
Nssg5
S'M. Campa\xc3\xb1a'
p3358
sg28
I28
sg11
Nsg29
Nsg30
S'Uruguay'
p3359
sg32
Nsba(i__main__
Player
p3360
(dp3361
g18
(dp3362
g20
Nsg21
I78
sg22
Nsg23
Nsg24
Nsg25
Nsg26
Nssg5
S'M. Vecino'
p3363
sg28
I25
sg11
Nsg29
Nsg30
S'Uruguay'
p3364
sg32
Nsba(i__main__
Player
p3365
(dp3366
g18
(dp3367
g20
Nsg21
I78
sg22
Nsg23
Nsg24
Nsg25
Nsg26
Nssg5
S'D. Laxalt'
p3368
sg28
I24
sg11
Nsg29
Nsg30
S'Uruguay'
p3369
sg32
Nsba(i__main__
Player
p3370
(dp3371
g18
(dp3372
g20
Nsg21
I78
sg22
Nsg23
Nsg24
Nsg25
Nsg26
Nssg5
S'D. Laxalt'
p3373
sg28
I24
sg11
Nsg29
Nsg30
S'Uruguay'
p3374
sg32
Nsba(i__main__
Player
p3375
(dp3376
g18
(dp3377
g20
Nsg21
I77
sg22
Nsg23
Nsg24
Nsg25
Nsg26
Nssg5
S'C. Stuani'
p3378
sg28
I30
sg11
Nsg29
Nsg30
S'Uruguay'
p3379
sg32
Nsba(i__main__
Player
p3380
(dp3381
g18
(dp3382
g20
Nsg21
I77
sg22
Nsg23
Nsg24
Nsg25
Nsg26
Nssg5
S'C. S\xc3\xa1nchez'
p3383
sg28
I32
sg11
Nsg29
Nsg30
S'Uruguay'
p3384
sg32
Nsba(i__main__
Player
p3385
(dp3386
g18
(dp3387
g20
Nsg21
I77
sg22
Nsg23
Nsg24
Nsg25
Nsg26
Nssg5
S'M. C\xc3\xa1ceres'
p3388
sg28
I30
sg11
Nsg29
Nsg30
S'Uruguay'
p3389
sg32
Nsba(i__main__
Player
p3390
(dp3391
g18
(dp3392
g20
Nsg21
I75
sg22
Nsg23
Nsg24
Nsg25
Nsg26
Nssg5
S'C. Rodr\xc3\xadguez'
p3393
sg28
I31
sg11
Nsg29
Nsg30
S'Uruguay'
p3394
sg32
Nsba(i__main__
Player
p3395
(dp3396
g18
(dp3397
g20
Nsg21
I75
sg22
Nsg23
Nsg24
Nsg25
Nsg26
Nssg5
S'L. Torreira'
p3398
sg28
I21
sg11
Nsg29
Nsg30
S'Uruguay'
p3399
sg32
Nsba(i__main__
Player
p3400
(dp3401
g18
(dp3402
g20
Nsg21
I74
sg22
Nsg23
Nsg24
Nsg25
Nsg26
Nssg5
S'D. Su\xc3\xa1rez'
p3403
sg28
I29
sg11
Nsg29
Nsg30
S'Uruguay'
p3404
sg32
Nsba(i__main__
Player
p3405
(dp3406
g18
(dp3407
g20
Nsg21
I74
sg22
Nsg23
Nsg24
Nsg25
Nsg26
Nssg5
S'J. Urretaviscaya'
p3408
sg28
I27
sg11
Nsg29
Nsg30
S'Uruguay'
p3409
sg32
Nsba(i__main__
Player
p3410
(dp3411
g18
(dp3412
g20
Nsg21
I73
sg22
Nsg23
Nsg24
Nsg25
Nsg26
Nssg5
S'M. G\xc3\xb3mez'
p3413
sg28
I20
sg11
Nsg29
Nsg30
S'Uruguay'
p3414
sg32
Nsba(i__main__
Player
p3415
(dp3416
g18
(dp3417
g20
Nsg21
I73
sg22
Nsg23
Nsg24
Nsg25
Nsg26
Nssg5
S'D. Rodr\xc3\xadguez'
p3418
sg28
I27
sg11
Nsg29
Nsg30
S'Uruguay'
p3419
sg32
Nsba(i__main__
Player
p3420
(dp3421
g18
(dp3422
g20
Nsg21
I73
sg22
Nsg23
Nsg24
Nsg25
Nsg26
Nssg5
S'A. Silva'
p3423
sg28
I27
sg11
Nsg29
Nsg30
S'Uruguay'
p3424
sg32
Nsba(i__main__
Player
p3425
(dp3426
g18
(dp3427
g20
Nsg21
I72
sg22
Nsg23
Nsg24
Nsg25
Nsg26
Nssg5
S'G. Silva'
p3428
sg28
I23
sg11
Nsg29
Nsg30
S'Uruguay'
p3429
sg32
Nsba(i__main__
Player
p3430
(dp3431
g18
(dp3432
g20
Nsg21
I72
sg22
Nsg23
Nsg24
Nsg25
Nsg26
Nssg5
S'J. Rodr\xc3\xadguez'
p3433
sg28
I23
sg11
Nsg29
Nsg30
S'Uruguay'
p3434
sg32
Nsba(i__main__
Player
p3435
(dp3436
g18
(dp3437
g20
Nsg21
I71
sg22
Nsg23
Nsg24
Nsg25
Nsg26
Nssg5
S'M. Silva'
p3438
sg28
I28
sg11
Nsg29
Nsg30
S'Uruguay'
p3439
sg32
Nsba(i__main__
Player
p3440
(dp3441
g18
(dp3442
g20
Nsg21
I70
sg22
Nsg23
Nsg24
Nsg25
Nsg26
Nssg5
S'N. N\xc3\xa1ndez'
p3443
sg28
I21
sg11
Nsg29
Nsg30
S'Uruguay'
p3444
sg32
Nsbasg143
I2
sg144
Nsba(i__main__
Team
p3445
(dp3446
g3
Nsg4
Nsg5
S'Saudi Arabia'
p3447
sg7
I0
sg8
I1
sg9
Nsg10
I3
sg11
(lp3448
sg13
I0
sg14
(lp3449
(i__main__
Player
p3450
(dp3451
g18
(dp3452
g20
Nsg21
I75
sg22
Nsg23
Nsg24
Nsg25
Nsg26
Nssg5
S'O. Hawsawi'
p3453
sg28
I33
sg11
Nsg29
Nsg30
S'Saudi Arabia'
p3454
sg32
Nsba(i__main__
Player
p3455
(dp3456
g18
(dp3457
g20
Nsg21
I74
sg22
Nsg23
Nsg24
Nsg25
Nsg26
Nssg5
S'M. Hawsawi'
p3458
sg28
I25
sg11
Nsg29
Nsg30
S'Saudi Arabia'
p3459
sg32
Nsba(i__main__
Player
p3460
(dp3461
g18
(dp3462
g20
Nsg21
I71
sg22
Nsg23
Nsg24
Nsg25
Nsg26
Nssg5
S'A. Asiri'
p3463
sg28
I25
sg11
Nsg29
Nsg30
S'Saudi Arabia'
p3464
sg32
Nsba(i__main__
Player
p3465
(dp3466
g18
(dp3467
g20
Nsg21
I67
sg22
Nsg23
Nsg24
Nsg25
Nsg26
Nssg5
S'M. Kanno'
p3468
sg28
I22
sg11
Nsg29
Nsg30
S'Saudi Arabia'
p3469
sg32
Nsba(i__main__
Player
p3470
(dp3471
g18
(dp3472
g20
Nsg21
I66
sg22
Nsg23
Nsg24
Nsg25
Nsg26
Nssg5
S'H. Bahebri'
p3473
sg28
I24
sg11
Nsg29
Nsg30
S'Saudi Arabia'
p3474
sg32
Nsba(i__main__
Player
p3475
(dp3476
g18
(dp3477
g20
Nsg21
I58
sg22
Nsg23
Nsg24
Nsg25
Nsg26
Nssg5
S'O. Hawsawi'
p3478
sg28
I24
sg11
Nsg29
Nsg30
S'Saudi Arabia'
p3479
sg32
Nsba(i__main__
Player
p3480
(dp3481
g18
(dp3482
g20
Nsg21
I58
sg22
Nsg23
Nsg24
Nsg25
Nsg26
Nssg5
S'S. Otayf'
p3483
sg28
I26
sg11
Nsg29
Nsg30
S'Saudi Arabia'
p3484
sg32
Nsba(i__main__
Player
p3485
(dp3486
g18
(dp3487
g20
Nsg21
I56
sg22
Nsg23
Nsg24
Nsg25
Nsg26
Nssg5
S'M. Asiri'
p3488
sg28
I24
sg11
Nsg29
Nsg30
S'Saudi Arabia'
p3489
sg32
Nsba(i__main__
Player
p3490
(dp3491
g18
(dp3492
g20
Nsg21
I55
sg22
Nsg23
Nsg24
Nsg25
Nsg26
Nssg5
S'S. Hawsawi'
p3493
sg28
I25
sg11
Nsg29
Nsg30
S'Saudi Arabia'
p3494
sg32
Nsba(i__main__
Player
p3495
(dp3496
g18
(dp3497
g20
Nsg21
I55
sg22
Nsg23
Nsg24
Nsg25
Nsg26
Nssg5
S'M. Asiri'
p3498
sg28
I25
sg11
Nsg29
Nsg30
S'Saudi Arabia'
p3499
sg32
Nsba(i__main__
Player
p3500
(dp3501
g18
(dp3502
g20
Nsg21
I55
sg22
Nsg23
Nsg24
Nsg25
Nsg26
Nssg5
S'A. Al Assiri'
p3503
sg28
I28
sg11
Nsg29
Nsg30
S'Saudi Arabia'
p3504
sg32
Nsba(i__main__
Player
p3505
(dp3506
g18
(dp3507
g20
Nsg21
I52
sg22
Nsg23
Nsg24
Nsg25
Nsg26
Nssg5
S'H. Hawsawi'
p3508
sg28
I20
sg11
Nsg29
Nsg30
S'Saudi Arabia'
p3509
sg32
Nsba(i__main__
Player
p3510
(dp3511
g18
(dp3512
g20
Nsg21
I61
sg22
Nsg23
Nsg24
Nsg25
Nsg26
Nssg5
g757
sg28
I25
sg11
Nsg29
Nsg30
g3447
sg32
Nsba(i__main__
Player
p3513
(dp3514
g18
(dp3515
g20
Nsg21
I61
sg22
Nsg23
Nsg24
Nsg25
Nsg26
Nssg5
g757
sg28
I25
sg11
Nsg29
Nsg30
g3447
sg32
Nsba(i__main__
Player
p3516
(dp3517
g18
(dp3518
g20
Nsg21
I61
sg22
Nsg23
Nsg24
Nsg25
Nsg26
Nssg5
g757
sg28
I25
sg11
Nsg29
Nsg30
g3447
sg32
Nsba(i__main__
Player
p3519
(dp3520
g18
(dp3521
g20
Nsg21
I61
sg22
Nsg23
Nsg24
Nsg25
Nsg26
Nssg5
g757
sg28
I25
sg11
Nsg29
Nsg30
g3447
sg32
Nsba(i__main__
Player
p3522
(dp3523
g18
(dp3524
g20
Nsg21
I61
sg22
Nsg23
Nsg24
Nsg25
Nsg26
Nssg5
g757
sg28
I25
sg11
Nsg29
Nsg30
g3447
sg32
Nsba(i__main__
Player
p3525
(dp3526
g18
(dp3527
g20
Nsg21
I61
sg22
Nsg23
Nsg24
Nsg25
Nsg26
Nssg5
g757
sg28
I25
sg11
Nsg29
Nsg30
g3447
sg32
Nsba(i__main__
Player
p3528
(dp3529
g18
(dp3530
g20
Nsg21
I61
sg22
Nsg23
Nsg24
Nsg25
Nsg26
Nssg5
g757
sg28
I25
sg11
Nsg29
Nsg30
g3447
sg32
Nsba(i__main__
Player
p3531
(dp3532
g18
(dp3533
g20
Nsg21
I61
sg22
Nsg23
Nsg24
Nsg25
Nsg26
Nssg5
g757
sg28
I25
sg11
Nsg29
Nsg30
g3447
sg32
Nsba(i__main__
Player
p3534
(dp3535
g18
(dp3536
g20
Nsg21
I61
sg22
Nsg23
Nsg24
Nsg25
Nsg26
Nssg5
g757
sg28
I25
sg11
Nsg29
Nsg30
g3447
sg32
Nsba(i__main__
Player
p3537
(dp3538
g18
(dp3539
g20
Nsg21
I61
sg22
Nsg23
Nsg24
Nsg25
Nsg26
Nssg5
g757
sg28
I25
sg11
Nsg29
Nsg30
g3447
sg32
Nsba(i__main__
Player
p3540
(dp3541
g18
(dp3542
g20
Nsg21
I61
sg22
Nsg23
Nsg24
Nsg25
Nsg26
Nssg5
g757
sg28
I25
sg11
Nsg29
Nsg30
g3447
sg32
Nsbasg143
I2
sg144
Nsba(i__main__
Team
p3543
(dp3544
g3
Nsg4
Nsg5
S'Iran'
p3545
sg7
I0
sg8
I1
sg9
Nsg10
I3
sg11
(lp3546
sg13
I0
sg14
(lp3547
(i__main__
Player
p3548
(dp3549
g18
(dp3550
g20
Nsg21
I77
sg22
Nsg23
Nsg24
Nsg25
Nsg26
Nssg5
S'S. Azmoun'
p3551
sg28
I22
sg11
Nsg29
Nsg30
S'Iran'
p3552
sg32
Nsba(i__main__
Player
p3553
(dp3554
g18
(dp3555
g20
Nsg21
I75
sg22
Nsg23
Nsg24
Nsg25
Nsg26
Nssg5
S'A. Jahanbakhsh'
p3556
sg28
I23
sg11
Nsg29
Nsg30
S'Iran'
p3557
sg32
Nsba(i__main__
Player
p3558
(dp3559
g18
(dp3560
g20
Nsg21
I73
sg22
Nsg23
Nsg24
Nsg25
Nsg26
Nssg5
S'M. Mohammadi'
p3561
sg28
I23
sg11
Nsg29
Nsg30
S'Iran'
p3562
sg32
Nsba(i__main__
Player
p3563
(dp3564
g18
(dp3565
g20
Nsg21
I73
sg22
Nsg23
Nsg24
Nsg25
Nsg26
Nssg5
S'K. Ansarifard'
p3566
sg28
I27
sg11
Nsg29
Nsg30
S'Iran'
p3567
sg32
Nsba(i__main__
Player
p3568
(dp3569
g18
(dp3570
g20
Nsg21
I72
sg22
Nsg23
Nsg24
Nsg25
Nsg26
Nssg5
S'R. Ghoochannejhad'
p3571
sg28
I29
sg11
Nsg29
Nsg30
S'Iran'
p3572
sg32
Nsba(i__main__
Player
p3573
(dp3574
g18
(dp3575
g20
Nsg21
I71
sg22
Nsg23
Nsg24
Nsg25
Nsg26
Nssg5
S'S. Ghoddos'
p3576
sg28
I23
sg11
Nsg29
Nsg30
S'Iran'
p3577
sg32
Nsba(i__main__
Player
p3578
(dp3579
g18
(dp3580
g20
Nsg21
I70
sg22
Nsg23
Nsg24
Nsg25
Nsg26
Nssg5
S'R. Rezaeian'
p3581
sg28
I27
sg11
Nsg29
Nsg30
S'Iran'
p3582
sg32
Nsba(i__main__
Player
p3583
(dp3584
g18
(dp3585
g20
Nsg21
I66
sg22
Nsg23
Nsg24
Nsg25
Nsg26
Nssg5
S'S. Ezatolahi'
p3586
sg28
I20
sg11
Nsg29
Nsg30
S'Iran'
p3587
sg32
Nsba(i__main__
Player
p3588
(dp3589
g18
(dp3590
g20
Nsg21
I62
sg22
Nsg23
Nsg24
Nsg25
Nsg26
Nssg5
S'A. Abedzadeh'
p3591
sg28
I24
sg11
Nsg29
Nsg30
S'Iran'
p3592
sg32
Nsba(i__main__
Player
p3593
(dp3594
g18
(dp3595
g20
Nsg21
I71
sg22
Nsg23
Nsg24
Nsg25
Nsg26
Nssg5
g757
sg28
I24
sg11
Nsg29
Nsg30
g3545
sg32
Nsba(i__main__
Player
p3596
(dp3597
g18
(dp3598
g20
Nsg21
I71
sg22
Nsg23
Nsg24
Nsg25
Nsg26
Nssg5
g757
sg28
I24
sg11
Nsg29
Nsg30
g3545
sg32
Nsba(i__main__
Player
p3599
(dp3600
g18
(dp3601
g20
Nsg21
I71
sg22
Nsg23
Nsg24
Nsg25
Nsg26
Nssg5
g757
sg28
I24
sg11
Nsg29
Nsg30
g3545
sg32
Nsba(i__main__
Player
p3602
(dp3603
g18
(dp3604
g20
Nsg21
I71
sg22
Nsg23
Nsg24
Nsg25
Nsg26
Nssg5
g757
sg28
I24
sg11
Nsg29
Nsg30
g3545
sg32
Nsba(i__main__
Player
p3605
(dp3606
g18
(dp3607
g20
Nsg21
I71
sg22
Nsg23
Nsg24
Nsg25
Nsg26
Nssg5
g757
sg28
I24
sg11
Nsg29
Nsg30
g3545
sg32
Nsba(i__main__
Player
p3608
(dp3609
g18
(dp3610
g20
Nsg21
I71
sg22
Nsg23
Nsg24
Nsg25
Nsg26
Nssg5
g757
sg28
I24
sg11
Nsg29
Nsg30
g3545
sg32
Nsba(i__main__
Player
p3611
(dp3612
g18
(dp3613
g20
Nsg21
I71
sg22
Nsg23
Nsg24
Nsg25
Nsg26
Nssg5
g757
sg28
I24
sg11
Nsg29
Nsg30
g3545
sg32
Nsba(i__main__
Player
p3614
(dp3615
g18
(dp3616
g20
Nsg21
I71
sg22
Nsg23
Nsg24
Nsg25
Nsg26
Nssg5
g757
sg28
I24
sg11
Nsg29
Nsg30
g3545
sg32
Nsba(i__main__
Player
p3617
(dp3618
g18
(dp3619
g20
Nsg21
I71
sg22
Nsg23
Nsg24
Nsg25
Nsg26
Nssg5
g757
sg28
I24
sg11
Nsg29
Nsg30
g3545
sg32
Nsba(i__main__
Player
p3620
(dp3621
g18
(dp3622
g20
Nsg21
I71
sg22
Nsg23
Nsg24
Nsg25
Nsg26
Nssg5
g757
sg28
I24
sg11
Nsg29
Nsg30
g3545
sg32
Nsba(i__main__
Player
p3623
(dp3624
g18
(dp3625
g20
Nsg21
I71
sg22
Nsg23
Nsg24
Nsg25
Nsg26
Nssg5
g757
sg28
I24
sg11
Nsg29
Nsg30
g3545
sg32
Nsba(i__main__
Player
p3626
(dp3627
g18
(dp3628
g20
Nsg21
I71
sg22
Nsg23
Nsg24
Nsg25
Nsg26
Nssg5
g757
sg28
I24
sg11
Nsg29
Nsg30
g3545
sg32
Nsba(i__main__
Player
p3629
(dp3630
g18
(dp3631
g20
Nsg21
I71
sg22
Nsg23
Nsg24
Nsg25
Nsg26
Nssg5
g757
sg28
I24
sg11
Nsg29
Nsg30
g3545
sg32
Nsba(i__main__
Player
p3632
(dp3633
g18
(dp3634
g20
Nsg21
I71
sg22
Nsg23
Nsg24
Nsg25
Nsg26
Nssg5
g757
sg28
I24
sg11
Nsg29
Nsg30
g3545
sg32
Nsbasg143
I2
sg144
Nsba.