(lp0
(i__main__
Team
p1
(dp2
S'trainer'
p3
NsS'gdp'
p4
I41432
sS'averagePace'
p5
I64
sS'name'
p6
S'Serbia'
p7
sS'power'
p8
F50.414320000000004
sS'regularPower'
p9
I78
sS'matchDraw'
p10
I1
sS'rank'
p11
I37
sS'matchWon'
p12
I3
sS'regular'
p13
(lp14
(i__main__
Player
p15
(dp16
S'stats'
p17
(dp18
S'dribbling'
p19
NsS'overall'
p20
I83
sS'pace'
p21
I64
sS'defending'
p22
NsS'phisichal'
p23
NsS'passing'
p24
NsS'shooting'
p25
Nssg6
S'N. Mati\xc4\x87'
p26
sS'age'
p27
I28
sg13
NsS'nAccidents'
p28
NsS'team'
p29
S'Serbia'
p30
sS'position'
p31
Nsba(i__main__
Player
p32
(dp33
g17
(dp34
g19
Nsg20
I82
sg21
I62
sg22
Nsg23
Nsg24
Nsg25
Nssg6
S'B. Ivanovi\xc4\x87'
p35
sg27
I33
sg13
Nsg28
Nsg29
S'Serbia'
p36
sg31
Nsba(i__main__
Player
p37
(dp38
g17
(dp39
g19
Nsg20
I80
sg21
I70
sg22
Nsg23
Nsg24
Nsg25
Nssg6
S'S. Milinkovi\xc4\x87-Savi\xc4\x87'
p40
sg27
I22
sg13
Nsg28
Nsg29
S'Serbia'
p41
sg31
Nsba(i__main__
Player
p42
(dp43
g17
(dp44
g19
Nsg20
I80
sg21
I70
sg22
Nsg23
Nsg24
Nsg25
Nssg6
S'D. Tadi\xc4\x87'
p45
sg27
I28
sg13
Nsg28
Nsg29
S'Serbia'
p46
sg31
Nsba(i__main__
Player
p47
(dp48
g17
(dp49
g19
Nsg20
I79
sg21
I80
sg22
Nsg23
Nsg24
Nsg25
Nssg6
S'A. Ljaji\xc4\x87'
p50
sg27
I25
sg13
Nsg28
Nsg29
S'Serbia'
p51
sg31
Nsba(i__main__
Player
p52
(dp53
g17
(dp54
g19
Nsg20
I78
sg21
I88
sg22
Nsg23
Nsg24
Nsg25
Nssg6
S'F. Kosti\xc4\x87'
p55
sg27
I24
sg13
Nsg28
Nsg29
S'Serbia'
p56
sg31
Nsba(i__main__
Player
p57
(dp58
g17
(dp59
g19
Nsg20
I78
sg21
I88
sg22
Nsg23
Nsg24
Nsg25
Nssg6
S'F. Kosti\xc4\x87'
p60
sg27
I24
sg13
Nsg28
Nsg29
S'Serbia'
p61
sg31
Nsba(i__main__
Player
p62
(dp63
g17
(dp64
g19
Nsg20
I77
sg21
I73
sg22
Nsg23
Nsg24
Nsg25
Nssg6
S'A. Rukavina'
p65
sg27
I33
sg13
Nsg28
Nsg29
S'Serbia'
p66
sg31
Nsba(i__main__
Player
p67
(dp68
g17
(dp69
g19
Nsg20
I77
sg21
I85
sg22
Nsg23
Nsg24
Nsg25
Nssg6
S'A. \xc5\xbdivkovi\xc4\x87'
p70
sg27
I20
sg13
Nsg28
Nsg29
S'Serbia'
p71
sg31
Nsba(i__main__
Player
p72
(dp73
g17
(dp74
g19
Nsg20
I77
sg21
I62
sg22
Nsg23
Nsg24
Nsg25
Nssg6
S'L. Milivojevi\xc4\x87'
p75
sg27
I26
sg13
Nsg28
Nsg29
S'Serbia'
p76
sg31
Nsba(i__main__
Player
p77
(dp78
g17
(dp79
g19
Nsg20
I75
sg21
I68
sg22
Nsg23
Nsg24
Nsg25
Nssg6
S'S. Rajkovi\xc4\x87'
p80
sg27
I28
sg13
Nsg28
Nsg29
S'Serbia'
p81
sg31
NsbasS'reservePower'
p82
I72
sS'reserve'
p83
(lp84
(i__main__
Player
p85
(dp86
g17
(dp87
g19
Nsg20
I75
sg21
I58
sg22
Nsg23
Nsg24
Nsg25
Nssg6
S'A. Mitrovi\xc4\x87'
p88
sg27
I22
sg13
Nsg28
Nsg29
S'Serbia'
p89
sg31
Nsba(i__main__
Player
p90
(dp91
g17
(dp92
g19
Nsg20
I74
sg21
I73
sg22
Nsg23
Nsg24
Nsg25
Nssg6
S'A. Prijovi\xc4\x87'
p93
sg27
I27
sg13
Nsg28
Nsg29
S'Serbia'
p94
sg31
Nsba(i__main__
Player
p95
(dp96
g17
(dp97
g19
Nsg20
I74
sg21
I37
sg22
Nsg23
Nsg24
Nsg25
Nssg6
S'M. Dmitrovi\xc4\x87'
p98
sg27
I25
sg13
Nsg28
Nsg29
S'Serbia'
p99
sg31
Nsba(i__main__
Player
p100
(dp101
g17
(dp102
g19
Nsg20
I74
sg21
I37
sg22
Nsg23
Nsg24
Nsg25
Nssg6
S'D. To\xc5\xa1i\xc4\x87'
p103
sg27
I32
sg13
Nsg28
Nsg29
S'Serbia'
p104
sg31
Nsba(i__main__
Player
p105
(dp106
g17
(dp107
g19
Nsg20
I73
sg21
I68
sg22
Nsg23
Nsg24
Nsg25
Nssg6
S'U. Spaji\xc4\x87'
p108
sg27
I24
sg13
Nsg28
Nsg29
S'Serbia'
p109
sg31
Nsba(i__main__
Player
p110
(dp111
g17
(dp112
g19
Nsg20
I73
sg21
I44
sg22
Nsg23
Nsg24
Nsg25
Nssg6
S'S. Mitrovi\xc4\x87'
p113
sg27
I27
sg13
Nsg28
Nsg29
S'Serbia'
p114
sg31
Nsba(i__main__
Player
p115
(dp116
g17
(dp117
g19
Nsg20
I73
sg21
I54
sg22
Nsg23
Nsg24
Nsg25
Nssg6
S'M. Veljkovi\xc4\x87'
p118
sg27
I21
sg13
Nsg28
Nsg29
S'Serbia'
p119
sg31
Nsba(i__main__
Player
p120
(dp121
g17
(dp122
g19
Nsg20
I71
sg21
I67
sg22
Nsg23
Nsg24
Nsg25
Nssg6
S'M. Gruji\xc4\x87'
p123
sg27
I21
sg13
Nsg28
Nsg29
S'Serbia'
p124
sg31
Nsba(i__main__
Player
p125
(dp126
g17
(dp127
g19
Nsg20
I70
sg21
I48
sg22
Nsg23
Nsg24
Nsg25
Nssg6
S'N. Milenkovi\xc4\x87'
p128
sg27
I19
sg13
Nsg28
Nsg29
S'Serbia'
p129
sg31
Nsba(i__main__
Player
p130
(dp131
g17
(dp132
g19
Nsg20
I70
sg21
I67
sg22
Nsg23
Nsg24
Nsg25
Nssg6
S'U. Mati\xc4\x87'
p133
sg27
I27
sg13
Nsg28
Nsg29
S'Serbia'
p134
sg31
Nsba(i__main__
Player
p135
(dp136
g17
(dp137
g19
Nsg20
I70
sg21
I75
sg22
Nsg23
Nsg24
Nsg25
Nssg6
S'L. Jovi\xc4\x87'
p138
sg27
I19
sg13
Nsg28
Nsg29
S'Serbia'
p139
sg31
Nsba(i__main__
Player
p140
(dp141
g17
(dp142
g19
Nsg20
I69
sg21
I42
sg22
Nsg23
Nsg24
Nsg25
Nssg6
S'V. Milinkovi\xc4\x87-Savi\xc4\x87'
p143
sg27
I20
sg13
Nsg28
Nsg29
S'Serbia'
p144
sg31
NsbasS'matchLose'
p145
I2
sS'quotation'
p146
F100.0
sba(i__main__
Team
p147
(dp148
g3
Nsg4
I4872137
sg5
I64
sg6
S'Japan'
p149
sg8
F-155.27863
sg9
I76
sg10
I1
sg11
I55
sg12
I3
sg13
(lp150
(i__main__
Player
p151
(dp152
g17
(dp153
g19
Nsg20
I83
sg21
I70
sg22
Nsg23
Nsg24
Nsg25
Nssg6
S'S. Kagawa'
p154
sg27
I28
sg13
Nsg28
Nsg29
S'Japan'
p155
sg31
Nsba(i__main__
Player
p156
(dp157
g17
(dp158
g19
Nsg20
I78
sg21
I83
sg22
Nsg23
Nsg24
Nsg25
Nssg6
S'T. Inui'
p159
sg27
I29
sg13
Nsg28
Nsg29
S'Japan'
p160
sg31
Nsba(i__main__
Player
p161
(dp162
g17
(dp163
g19
Nsg20
I78
sg21
I76
sg22
Nsg23
Nsg24
Nsg25
Nssg6
S'K. Honda'
p164
sg27
I31
sg13
Nsg28
Nsg29
S'Japan'
p165
sg31
Nsba(i__main__
Player
p166
(dp167
g17
(dp168
g19
Nsg20
I77
sg21
I74
sg22
Nsg23
Nsg24
Nsg25
Nssg6
S'S. Okazaki'
p169
sg27
I31
sg13
Nsg28
Nsg29
S'Japan'
p170
sg31
Nsba(i__main__
Player
p171
(dp172
g17
(dp173
g19
Nsg20
I75
sg21
I85
sg22
Nsg23
Nsg24
Nsg25
Nssg6
S'G. Haraguchi'
p174
sg27
I26
sg13
Nsg28
Nsg29
S'Japan'
p175
sg31
Nsba(i__main__
Player
p176
(dp177
g17
(dp178
g19
Nsg20
I75
sg21
I76
sg22
Nsg23
Nsg24
Nsg25
Nssg6
S'H. Sakai'
p179
sg27
I27
sg13
Nsg28
Nsg29
S'Japan'
p180
sg31
Nsba(i__main__
Player
p181
(dp182
g17
(dp183
g19
Nsg20
I75
sg21
I61
sg22
Nsg23
Nsg24
Nsg25
Nssg6
S'M. Yoshida'
p184
sg27
I28
sg13
Nsg28
Nsg29
S'Japan'
p185
sg31
Nsba(i__main__
Player
p186
(dp187
g17
(dp188
g19
Nsg20
I75
sg21
I71
sg22
Nsg23
Nsg24
Nsg25
Nssg6
S'G. Shibasaki'
p189
sg27
I25
sg13
Nsg28
Nsg29
S'Japan'
p190
sg31
Nsba(i__main__
Player
p191
(dp192
g17
(dp193
g19
Nsg20
I74
sg21
I75
sg22
Nsg23
Nsg24
Nsg25
Nssg6
S'G. Sakai'
p194
sg27
I26
sg13
Nsg28
Nsg29
S'Japan'
p195
sg31
Nsba(i__main__
Player
p196
(dp197
g17
(dp198
g19
Nsg20
I74
sg21
I77
sg22
Nsg23
Nsg24
Nsg25
Nssg6
S'T. Usami'
p199
sg27
I25
sg13
Nsg28
Nsg29
S'Japan'
p200
sg31
Nsba(i__main__
Player
p201
(dp202
g17
(dp203
g19
Nsg20
I73
sg21
I53
sg22
Nsg23
Nsg24
Nsg25
Nssg6
S'K. Nakamura'
p204
sg27
I36
sg13
Nsg28
Nsg29
S'Japan'
p205
sg31
Nsbasg82
I70
sg83
(lp206
(i__main__
Player
p207
(dp208
g17
(dp209
g19
Nsg20
I73
sg21
I83
sg22
Nsg23
Nsg24
Nsg25
Nssg6
S'Y. Nagatomo'
p210
sg27
I30
sg13
Nsg28
Nsg29
S'Japan'
p211
sg31
Nsba(i__main__
Player
p212
(dp213
g17
(dp214
g19
Nsg20
I73
sg21
I80
sg22
Nsg23
Nsg24
Nsg25
Nssg6
S'G. Shoji'
p215
sg27
I24
sg13
Nsg28
Nsg29
S'Japan'
p216
sg31
Nsba(i__main__
Player
p217
(dp218
g17
(dp219
g19
Nsg20
I72
sg21
I42
sg22
Nsg23
Nsg24
Nsg25
Nssg6
S'E. Kawashima'
p220
sg27
I34
sg13
Nsg28
Nsg29
S'Japan'
p221
sg31
Nsba(i__main__
Player
p222
(dp223
g17
(dp224
g19
Nsg20
I72
sg21
I35
sg22
Nsg23
Nsg24
Nsg25
Nssg6
S'Y. Endo'
p225
sg27
I37
sg13
Nsg28
Nsg29
S'Japan'
p226
sg31
Nsba(i__main__
Player
p227
(dp228
g17
(dp229
g19
Nsg20
I72
sg21
I33
sg22
Nsg23
Nsg24
Nsg25
Nssg6
S'M. Higashiguchi'
p230
sg27
I31
sg13
Nsg28
Nsg29
S'Japan'
p231
sg31
Nsba(i__main__
Player
p232
(dp233
g17
(dp234
g19
Nsg20
I71
sg21
I31
sg22
Nsg23
Nsg24
Nsg25
Nssg6
S'S. Nakamura'
p235
sg27
I39
sg13
Nsg28
Nsg29
S'Japan'
p236
sg31
Nsba(i__main__
Player
p237
(dp238
g17
(dp239
g19
Nsg20
I70
sg21
I77
sg22
Nsg23
Nsg24
Nsg25
Nssg6
S'H. Yamaguchi'
p240
sg27
I26
sg13
Nsg28
Nsg29
S'Japan'
p241
sg31
Nsba(i__main__
Player
p242
(dp243
g17
(dp244
g19
Nsg20
I70
sg21
I68
sg22
Nsg23
Nsg24
Nsg25
Nssg6
S'N. Ueda'
p245
sg27
I22
sg13
Nsg28
Nsg29
S'Japan'
p246
sg31
Nsba(i__main__
Player
p247
(dp248
g17
(dp249
g19
Nsg20
I70
sg21
I66
sg22
Nsg23
Nsg24
Nsg25
Nssg6
S'K. Shibasaki'
p250
sg27
I32
sg13
Nsg28
Nsg29
S'Japan'
p251
sg31
Nsba(i__main__
Player
p252
(dp253
g17
(dp254
g19
Nsg20
I69
sg21
I76
sg22
Nsg23
Nsg24
Nsg25
Nssg6
S'W. Endo'
p255
sg27
I24
sg13
Nsg28
Nsg29
S'Japan'
p256
sg31
Nsba(i__main__
Player
p257
(dp258
g17
(dp259
g19
Nsg20
I69
sg21
I67
sg22
Nsg23
Nsg24
Nsg25
Nssg6
S'T. Makino'
p260
sg27
I30
sg13
Nsg28
Nsg29
S'Japan'
p261
sg31
Nsba(i__main__
Player
p262
(dp263
g17
(dp264
g19
Nsg20
I69
sg21
I28
sg22
Nsg23
Nsg24
Nsg25
Nssg6
S'K. Nakamura'
p265
sg27
I22
sg13
Nsg28
Nsg29
S'Japan'
p266
sg31
Nsbasg145
I2
sg146
F350.0
sba(i__main__
Team
p267
(dp268
g3
Nsg4
I2055506
sg5
I73
sg6
S'Brazil'
p269
sg8
F179.30506
sg9
I85
sg10
I1
sg11
I2
sg12
I3
sg13
(lp270
(i__main__
Player
p271
(dp272
g17
(dp273
g19
Nsg20
I92
sg21
I92
sg22
Nsg23
Nsg24
Nsg25
Nssg6
S'Neymar'
p274
sg27
I25
sg13
Nsg28
Nsg29
S'Brazil'
p275
sg31
Nsba(i__main__
Player
p276
(dp277
g17
(dp278
g19
Nsg20
I88
sg21
I72
sg22
Nsg23
Nsg24
Nsg25
Nssg6
S'Thiago Silva'
p279
sg27
I32
sg13
Nsg28
Nsg29
S'Brazil'
p280
sg31
Nsba(i__main__
Player
p281
(dp282
g17
(dp283
g19
Nsg20
I86
sg21
I82
sg22
Nsg23
Nsg24
Nsg25
Nssg6
S'Coutinho'
p284
sg27
I25
sg13
Nsg28
Nsg29
S'Brazil'
p285
sg31
Nsba(i__main__
Player
p286
(dp287
g17
(dp288
g19
Nsg20
I86
sg21
I70
sg22
Nsg23
Nsg24
Nsg25
Nssg6
S'Miranda'
p289
sg27
I32
sg13
Nsg28
Nsg29
S'Brazil'
p290
sg31
Nsba(i__main__
Player
p291
(dp292
g17
(dp293
g19
Nsg20
I85
sg21
I62
sg22
Nsg23
Nsg24
Nsg25
Nssg6
S'Casemiro'
p294
sg27
I25
sg13
Nsg28
Nsg29
S'Brazil'
p295
sg31
Nsba(i__main__
Player
p296
(dp297
g17
(dp298
g19
Nsg20
I85
sg21
I78
sg22
Nsg23
Nsg24
Nsg25
Nssg6
S'Filipe Lu\xc3\xads'
p299
sg27
I31
sg13
Nsg28
Nsg29
S'Brazil'
p300
sg31
Nsba(i__main__
Player
p301
(dp302
g17
(dp303
g19
Nsg20
I84
sg21
I88
sg22
Nsg23
Nsg24
Nsg25
Nssg6
S'Willian'
p304
sg27
I28
sg13
Nsg28
Nsg29
S'Brazil'
p305
sg31
Nsba(i__main__
Player
p306
(dp307
g17
(dp308
g19
Nsg20
I83
sg21
I63
sg22
Nsg23
Nsg24
Nsg25
Nssg6
S'Ederson'
p309
sg27
I23
sg13
Nsg28
Nsg29
S'Brazil'
p310
sg31
Nsba(i__main__
Player
p311
(dp312
g17
(dp313
g19
Nsg20
I83
sg21
I70
sg22
Nsg23
Nsg24
Nsg25
Nssg6
S'Marquinhos'
p314
sg27
I23
sg13
Nsg28
Nsg29
S'Brazil'
p315
sg31
Nsba(i__main__
Player
p316
(dp317
g17
(dp318
g19
Nsg20
I83
sg21
I77
sg22
Nsg23
Nsg24
Nsg25
Nssg6
S'Roberto Firmino'
p319
sg27
I25
sg13
Nsg28
Nsg29
S'Brazil'
p320
sg31
Nsba(i__main__
Player
p321
(dp322
g17
(dp323
g19
Nsg20
I82
sg21
I92
sg22
Nsg23
Nsg24
Nsg25
Nssg6
S'Douglas Costa'
p324
sg27
I26
sg13
Nsg28
Nsg29
S'Brazil'
p325
sg31
Nsbasg82
I79
sg83
(lp326
(i__main__
Player
p327
(dp328
g17
(dp329
g19
Nsg20
I82
sg21
I92
sg22
Nsg23
Nsg24
Nsg25
Nssg6
S'Taison'
p330
sg27
I29
sg13
Nsg28
Nsg29
S'Brazil'
p331
sg31
Nsba(i__main__
Player
p332
(dp333
g17
(dp334
g19
Nsg20
I82
sg21
I73
sg22
Nsg23
Nsg24
Nsg25
Nssg6
S'Fernandinho'
p335
sg27
I32
sg13
Nsg28
Nsg29
S'Brazil'
p336
sg31
Nsba(i__main__
Player
p337
(dp338
g17
(dp339
g19
Nsg20
I81
sg21
I87
sg22
Nsg23
Nsg24
Nsg25
Nssg6
S'Gabriel Jesus'
p340
sg27
I20
sg13
Nsg28
Nsg29
S'Brazil'
p341
sg31
Nsba(i__main__
Player
p342
(dp343
g17
(dp344
g19
Nsg20
I81
sg21
I76
sg22
Nsg23
Nsg24
Nsg25
Nssg6
S'Paulinho'
p345
sg27
I28
sg13
Nsg28
Nsg29
S'Brazil'
p346
sg31
Nsba(i__main__
Player
p347
(dp348
g17
(dp349
g19
Nsg20
I80
sg21
I39
sg22
Nsg23
Nsg24
Nsg25
Nssg6
S'Alisson'
p350
sg27
I24
sg13
Nsg28
Nsg29
S'Brazil'
p351
sg31
Nsba(i__main__
Player
p352
(dp353
g17
(dp354
g19
Nsg20
I80
sg21
I82
sg22
Nsg23
Nsg24
Nsg25
Nssg6
S'Fred'
p355
sg27
I24
sg13
Nsg28
Nsg29
S'Brazil'
p356
sg31
Nsba(i__main__
Player
p357
(dp358
g17
(dp359
g19
Nsg20
I80
sg21
I66
sg22
Nsg23
Nsg24
Nsg25
Nssg6
S'Renato Augusto'
p360
sg27
I29
sg13
Nsg28
Nsg29
S'Brazil'
p361
sg31
Nsba(i__main__
Player
p362
(dp363
g17
(dp364
g19
Nsg20
I79
sg21
I50
sg22
Nsg23
Nsg24
Nsg25
Nssg6
S'Danilo'
p365
sg27
I33
sg13
Nsg28
Nsg29
S'Brazil'
p366
sg31
Nsba(i__main__
Player
p367
(dp368
g17
(dp369
g19
Nsg20
I78
sg21
I77
sg22
Nsg23
Nsg24
Nsg25
Nssg6
S'Danilo'
p370
sg27
I25
sg13
Nsg28
Nsg29
S'Brazil'
p371
sg31
Nsba(i__main__
Player
p372
(dp373
g17
(dp374
g19
Nsg20
I78
sg21
I77
sg22
Nsg23
Nsg24
Nsg25
Nssg6
S'Danilo'
p375
sg27
I25
sg13
Nsg28
Nsg29
S'Brazil'
p376
sg31
Nsba(i__main__
Player
p377
(dp378
g17
(dp379
g19
Nsg20
I77
sg21
I78
sg22
Nsg23
Nsg24
Nsg25
Nssg6
S'Juan Jesus'
p380
sg27
I26
sg13
Nsg28
Nsg29
S'Brazil'
p381
sg31
Nsba(i__main__
Player
p382
(dp383
g17
(dp384
g19
Nsg20
I75
sg21
I45
sg22
Nsg23
Nsg24
Nsg25
Nssg6
S'C\xc3\xa1ssio'
p385
sg27
I36
sg13
Nsg28
Nsg29
S'Brazil'
p386
sg31
Nsbasg145
I2
sg146
F5.25
sba(i__main__
Team
p387
(dp388
g3
Nsg4
I538040
sg5
I59
sg6
S'Sweden'
p389
sg8
F-44.6196
sg9
I77
sg10
I1
sg11
I18
sg12
I3
sg13
(lp390
(i__main__
Player
p391
(dp392
g17
(dp393
g19
Nsg20
I83
sg21
I75
sg22
Nsg23
Nsg24
Nsg25
Nssg6
S'E. Forsberg'
p394
sg27
I25
sg13
Nsg28
Nsg29
S'Sweden'
p395
sg31
Nsba(i__main__
Player
p396
(dp397
g17
(dp398
g19
Nsg20
I80
sg21
I74
sg22
Nsg23
Nsg24
Nsg25
Nssg6
S'M. Berg'
p399
sg27
I30
sg13
Nsg28
Nsg29
S'Sweden'
p400
sg31
Nsba(i__main__
Player
p401
(dp402
g17
(dp403
g19
Nsg20
I79
sg21
I70
sg22
Nsg23
Nsg24
Nsg25
Nssg6
S'V. Lindel\xc3\xb6f'
p404
sg27
I22
sg13
Nsg28
Nsg29
S'Sweden'
p405
sg31
Nsba(i__main__
Player
p406
(dp407
g17
(dp408
g19
Nsg20
I78
sg21
I65
sg22
Nsg23
Nsg24
Nsg25
Nssg6
S'J. Guidetti'
p409
sg27
I25
sg13
Nsg28
Nsg29
S'Sweden'
p410
sg31
Nsba(i__main__
Player
p411
(dp412
g17
(dp413
g19
Nsg20
I78
sg21
I65
sg22
Nsg23
Nsg24
Nsg25
Nssg6
S'J. Guidetti'
p414
sg27
I25
sg13
Nsg28
Nsg29
S'Sweden'
p415
sg31
Nsba(i__main__
Player
p416
(dp417
g17
(dp418
g19
Nsg20
I77
sg21
I61
sg22
Nsg23
Nsg24
Nsg25
Nssg6
S'P. Jansson'
p419
sg27
I26
sg13
Nsg28
Nsg29
S'Sweden'
p420
sg31
Nsba(i__main__
Player
p421
(dp422
g17
(dp423
g19
Nsg20
I76
sg21
I47
sg22
Nsg23
Nsg24
Nsg25
Nssg6
S'J. Olsson'
p424
sg27
I34
sg13
Nsg28
Nsg29
S'Sweden'
p425
sg31
Nsba(i__main__
Player
p426
(dp427
g17
(dp428
g19
Nsg20
I76
sg21
I54
sg22
Nsg23
Nsg24
Nsg25
Nssg6
S'A. Ekdal'
p429
sg27
I27
sg13
Nsg28
Nsg29
S'Sweden'
p430
sg31
Nsba(i__main__
Player
p431
(dp432
g17
(dp433
g19
Nsg20
I76
sg21
I76
sg22
Nsg23
Nsg24
Nsg25
Nssg6
S'S. Larsson'
p434
sg27
I24
sg13
Nsg28
Nsg29
S'Sweden'
p435
sg31
Nsba(i__main__
Player
p436
(dp437
g17
(dp438
g19
Nsg20
I75
sg21
I80
sg22
Nsg23
Nsg24
Nsg25
Nssg6
S'J. Durmaz'
p439
sg27
I28
sg13
Nsg28
Nsg29
S'Sweden'
p440
sg31
Nsba(i__main__
Player
p441
(dp442
g17
(dp443
g19
Nsg20
I75
sg21
I81
sg22
Nsg23
Nsg24
Nsg25
Nssg6
S'M. Olsson'
p444
sg27
I29
sg13
Nsg28
Nsg29
S'Sweden'
p445
sg31
Nsbasg82
I73
sg83
(lp446
(i__main__
Player
p447
(dp448
g17
(dp449
g19
Nsg20
I75
sg21
I52
sg22
Nsg23
Nsg24
Nsg25
Nssg6
S'O. Toivonen'
p450
sg27
I30
sg13
Nsg28
Nsg29
S'Sweden'
p451
sg31
Nsba(i__main__
Player
p452
(dp453
g17
(dp454
g19
Nsg20
I75
sg21
I49
sg22
Nsg23
Nsg24
Nsg25
Nssg6
S'K. Johnsson'
p455
sg27
I27
sg13
Nsg28
Nsg29
S'Sweden'
p456
sg31
Nsba(i__main__
Player
p457
(dp458
g17
(dp459
g19
Nsg20
I74
sg21
I53
sg22
Nsg23
Nsg24
Nsg25
Nssg6
S'G. Svensson'
p460
sg27
I30
sg13
Nsg28
Nsg29
S'Sweden'
p461
sg31
Nsba(i__main__
Player
p462
(dp463
g17
(dp464
g19
Nsg20
I74
sg21
I56
sg22
Nsg23
Nsg24
Nsg25
Nssg6
S'S. Larsson'
p465
sg27
I32
sg13
Nsg28
Nsg29
S'Sweden'
p466
sg31
Nsba(i__main__
Player
p467
(dp468
g17
(dp469
g19
Nsg20
I74
sg21
I55
sg22
Nsg23
Nsg24
Nsg25
Nssg6
S'J. Johansson'
p470
sg27
I27
sg13
Nsg28
Nsg29
S'Sweden'
p471
sg31
Nsba(i__main__
Player
p472
(dp473
g17
(dp474
g19
Nsg20
I74
sg21
I34
sg22
Nsg23
Nsg24
Nsg25
Nssg6
S'R. Olsen'
p475
sg27
I27
sg13
Nsg28
Nsg29
S'Sweden'
p476
sg31
Nsba(i__main__
Player
p477
(dp478
g17
(dp479
g19
Nsg20
I73
sg21
I39
sg22
Nsg23
Nsg24
Nsg25
Nssg6
S'A. Johansson'
p480
sg27
I35
sg13
Nsg28
Nsg29
S'Sweden'
p481
sg31
Nsba(i__main__
Player
p482
(dp483
g17
(dp484
g19
Nsg20
I73
sg21
I75
sg22
Nsg23
Nsg24
Nsg25
Nssg6
S'E. Krafth'
p485
sg27
I22
sg13
Nsg28
Nsg29
S'Sweden'
p486
sg31
Nsba(i__main__
Player
p487
(dp488
g17
(dp489
g19
Nsg20
I73
sg21
I57
sg22
Nsg23
Nsg24
Nsg25
Nssg6
S'M. Lustig'
p490
sg27
I30
sg13
Nsg28
Nsg29
S'Sweden'
p491
sg31
Nsba(i__main__
Player
p492
(dp493
g17
(dp494
g19
Nsg20
I73
sg21
I53
sg22
Nsg23
Nsg24
Nsg25
Nssg6
S'K. Nordfeldt'
p495
sg27
I28
sg13
Nsg28
Nsg29
S'Sweden'
p496
sg31
Nsba(i__main__
Player
p497
(dp498
g17
(dp499
g19
Nsg20
I73
sg21
I37
sg22
Nsg23
Nsg24
Nsg25
Nssg6
S'N. Johansson'
p500
sg27
I37
sg13
Nsg28
Nsg29
S'Sweden'
p501
sg31
Nsba(i__main__
Player
p502
(dp503
g17
(dp504
g19
Nsg20
I73
sg21
I70
sg22
Nsg23
Nsg24
Nsg25
Nssg6
S'O. Hiljemark'
p505
sg27
I25
sg13
Nsg28
Nsg29
S'Sweden'
p506
sg31
Nsbasg145
I2
sg146
F200.0
sba(i__main__
Team
p507
(dp508
g3
Nsg4
I3677439
sg5
I69
sg6
S'Germany'
p509
sg8
F193.77439
sg9
I86
sg10
I1
sg11
I1
sg12
I3
sg13
(lp510
(i__main__
Player
p511
(dp512
g17
(dp513
g19
Nsg20
I90
sg21
I56
sg22
Nsg23
Nsg24
Nsg25
Nssg6
S'T. Kroos'
p514
sg27
I27
sg13
Nsg28
Nsg29
S'Germany'
p515
sg31
Nsba(i__main__
Player
p516
(dp517
g17
(dp518
g19
Nsg20
I88
sg21
I75
sg22
Nsg23
Nsg24
Nsg25
Nssg6
S'J. Boateng'
p519
sg27
I28
sg13
Nsg28
Nsg29
S'Germany'
p520
sg31
Nsba(i__main__
Player
p521
(dp522
g17
(dp523
g19
Nsg20
I88
sg21
I63
sg22
Nsg23
Nsg24
Nsg25
Nssg6
S'M. Hummels'
p524
sg27
I28
sg13
Nsg28
Nsg29
S'Germany'
p525
sg31
Nsba(i__main__
Player
p526
(dp527
g17
(dp528
g19
Nsg20
I88
sg21
I71
sg22
Nsg23
Nsg24
Nsg25
Nssg6
S'M. \xc3\x96zil'
p529
sg27
I28
sg13
Nsg28
Nsg29
S'Germany'
p530
sg31
Nsba(i__main__
Player
p531
(dp532
g17
(dp533
g19
Nsg20
I86
sg21
I77
sg22
Nsg23
Nsg24
Nsg25
Nssg6
S'T. M\xc3\xbcller'
p534
sg27
I27
sg13
Nsg28
Nsg29
S'Germany'
p535
sg31
Nsba(i__main__
Player
p536
(dp537
g17
(dp538
g19
Nsg20
I86
sg21
I88
sg22
Nsg23
Nsg24
Nsg25
Nssg6
S'M. Reus'
p539
sg27
I28
sg13
Nsg28
Nsg29
S'Germany'
p540
sg31
Nsba(i__main__
Player
p541
(dp542
g17
(dp543
g19
Nsg20
I85
sg21
I44
sg22
Nsg23
Nsg24
Nsg25
Nssg6
S'M. ter Stegen'
p544
sg27
I25
sg13
Nsg28
Nsg29
S'Germany'
p545
sg31
Nsba(i__main__
Player
p546
(dp547
g17
(dp548
g19
Nsg20
I85
sg21
I71
sg22
Nsg23
Nsg24
Nsg25
Nssg6
S'I. G\xc3\xbcndo\xc4\x9fan'
p549
sg27
I26
sg13
Nsg28
Nsg29
S'Germany'
p550
sg31
Nsba(i__main__
Player
p551
(dp552
g17
(dp553
g19
Nsg20
I84
sg21
I77
sg22
Nsg23
Nsg24
Nsg25
Nssg6
S'J. Draxler'
p554
sg27
I23
sg13
Nsg28
Nsg29
S'Germany'
p555
sg31
Nsba(i__main__
Player
p556
(dp557
g17
(dp558
g19
Nsg20
I84
sg21
I64
sg22
Nsg23
Nsg24
Nsg25
Nssg6
S'S. Khedira'
p559
sg27
I30
sg13
Nsg28
Nsg29
S'Germany'
p560
sg31
Nsba(i__main__
Player
p561
(dp562
g17
(dp563
g19
Nsg20
I83
sg21
I63
sg22
Nsg23
Nsg24
Nsg25
Nssg6
S'N. S\xc3\xbcle'
p564
sg27
I21
sg13
Nsg28
Nsg29
S'Germany'
p565
sg31
Nsbasg82
I80
sg83
(lp566
(i__main__
Player
p567
(dp568
g17
(dp569
g19
Nsg20
I82
sg21
I91
sg22
Nsg23
Nsg24
Nsg25
Nssg6
S'T. Werner'
p570
sg27
I21
sg13
Nsg28
Nsg29
S'Germany'
p571
sg31
Nsba(i__main__
Player
p572
(dp573
g17
(dp574
g19
Nsg20
I82
sg21
I84
sg22
Nsg23
Nsg24
Nsg25
Nssg6
S'L. Goretzka'
p575
sg27
I22
sg13
Nsg28
Nsg29
S'Germany'
p576
sg31
Nsba(i__main__
Player
p577
(dp578
g17
(dp579
g19
Nsg20
I82
sg21
I74
sg22
Nsg23
Nsg24
Nsg25
Nssg6
S'A. R\xc3\xbcdiger'
p580
sg27
I24
sg13
Nsg28
Nsg29
S'Germany'
p581
sg31
Nsba(i__main__
Player
p582
(dp583
g17
(dp584
g19
Nsg20
I82
sg21
I48
sg22
Nsg23
Nsg24
Nsg25
Nssg6
S'K. Trapp'
p585
sg27
I26
sg13
Nsg28
Nsg29
S'Germany'
p586
sg31
Nsba(i__main__
Player
p587
(dp588
g17
(dp589
g19
Nsg20
I82
sg21
I71
sg22
Nsg23
Nsg24
Nsg25
Nssg6
S'M. G\xc3\xb3mez'
p590
sg27
I31
sg13
Nsg28
Nsg29
S'Germany'
p591
sg31
Nsba(i__main__
Player
p592
(dp593
g17
(dp594
g19
Nsg20
I81
sg21
I70
sg22
Nsg23
Nsg24
Nsg25
Nssg6
S'J. Kimmich'
p595
sg27
I22
sg13
Nsg28
Nsg29
S'Germany'
p596
sg31
Nsba(i__main__
Player
p597
(dp598
g17
(dp599
g19
Nsg20
I81
sg21
I71
sg22
Nsg23
Nsg24
Nsg25
Nssg6
S'S. Rudy'
p600
sg27
I27
sg13
Nsg28
Nsg29
S'Germany'
p601
sg31
Nsba(i__main__
Player
p602
(dp603
g17
(dp604
g19
Nsg20
I80
sg21
I81
sg22
Nsg23
Nsg24
Nsg25
Nssg6
S'J. Brandt'
p605
sg27
I21
sg13
Nsg28
Nsg29
S'Germany'
p606
sg31
Nsba(i__main__
Player
p607
(dp608
g17
(dp609
g19
Nsg20
I80
sg21
I76
sg22
Nsg23
Nsg24
Nsg25
Nssg6
S'J. Hector'
p610
sg27
I27
sg13
Nsg28
Nsg29
S'Germany'
p611
sg31
Nsba(i__main__
Player
p612
(dp613
g17
(dp614
g19
Nsg20
I78
sg21
I63
sg22
Nsg23
Nsg24
Nsg25
Nssg6
S'M. Ginter'
p615
sg27
I23
sg13
Nsg28
Nsg29
S'Germany'
p616
sg31
Nsba(i__main__
Player
p617
(dp618
g17
(dp619
g19
Nsg20
I78
sg21
I63
sg22
Nsg23
Nsg24
Nsg25
Nssg6
S'M. Ginter'
p620
sg27
I23
sg13
Nsg28
Nsg29
S'Germany'
p621
sg31
Nsba(i__main__
Player
p622
(dp623
g17
(dp624
g19
Nsg20
I73
sg21
I65
sg22
Nsg23
Nsg24
Nsg25
Nssg6
S'F. Kroos'
p625
sg27
I26
sg13
Nsg28
Nsg29
S'Germany'
p626
sg31
Nsbasg145
I2
sg146
F9.0
sba(i__main__
Team
p627
(dp628
g3
Nsg4
I16375
sg5
I69
sg6
S'Senegal'
p629
sg8
F25.16375
sg9
I79
sg10
I1
sg11
I23
sg12
I3
sg13
(lp630
(i__main__
Player
p631
(dp632
g17
(dp633
g19
Nsg20
I84
sg21
I93
sg22
Nsg23
Nsg24
Nsg25
Nssg6
S'S. Man\xc3\xa9'
p634
sg27
I25
sg13
Nsg28
Nsg29
S'Senegal'
p635
sg31
Nsba(i__main__
Player
p636
(dp637
g17
(dp638
g19
Nsg20
I84
sg21
I72
sg22
Nsg23
Nsg24
Nsg25
Nssg6
S'K. Koulibaly'
p639
sg27
I26
sg13
Nsg28
Nsg29
S'Senegal'
p640
sg31
Nsba(i__main__
Player
p641
(dp642
g17
(dp643
g19
Nsg20
I83
sg21
I76
sg22
Nsg23
Nsg24
Nsg25
Nssg6
S'I. Gueye'
p644
sg27
I27
sg13
Nsg28
Nsg29
S'Senegal'
p645
sg31
Nsba(i__main__
Player
p646
(dp647
g17
(dp648
g19
Nsg20
I79
sg21
I65
sg22
Nsg23
Nsg24
Nsg25
Nssg6
S'S. San\xc3\xa9'
p649
sg27
I26
sg13
Nsg28
Nsg29
S'Senegal'
p650
sg31
Nsba(i__main__
Player
p651
(dp652
g17
(dp653
g19
Nsg20
I78
sg21
I73
sg22
Nsg23
Nsg24
Nsg25
Nssg6
S'K. Mbodj'
p654
sg27
I27
sg13
Nsg28
Nsg29
S'Senegal'
p655
sg31
Nsba(i__main__
Player
p656
(dp657
g17
(dp658
g19
Nsg20
I78
sg21
I73
sg22
Nsg23
Nsg24
Nsg25
Nssg6
S'K. Mbodj'
p659
sg27
I27
sg13
Nsg28
Nsg29
S'Senegal'
p660
sg31
Nsba(i__main__
Player
p661
(dp662
g17
(dp663
g19
Nsg20
I78
sg21
I71
sg22
Nsg23
Nsg24
Nsg25
Nssg6
S"A. N'Diaye"
p664
sg27
I27
sg13
Nsg28
Nsg29
S'Senegal'
p665
sg31
Nsba(i__main__
Player
p666
(dp667
g17
(dp668
g19
Nsg20
I77
sg21
I85
sg22
Nsg23
Nsg24
Nsg25
Nssg6
S'Badou Ndiaye'
p669
sg27
I26
sg13
Nsg28
Nsg29
S'Senegal'
p670
sg31
Nsba(i__main__
Player
p671
(dp672
g17
(dp673
g19
Nsg20
I77
sg21
I59
sg22
Nsg23
Nsg24
Nsg25
Nssg6
S'L. San\xc3\xa9'
p674
sg27
I30
sg13
Nsg28
Nsg29
S'Senegal'
p675
sg31
Nsba(i__main__
Player
p676
(dp677
g17
(dp678
g19
Nsg20
I77
sg21
I83
sg22
Nsg23
Nsg24
Nsg25
Nssg6
S'M. Diouf'
p679
sg27
I29
sg13
Nsg28
Nsg29
S'Senegal'
p680
sg31
Nsba(i__main__
Player
p681
(dp682
g17
(dp683
g19
Nsg20
I76
sg21
I57
sg22
Nsg23
Nsg24
Nsg25
Nssg6
S"C. N'Doye"
p684
sg27
I31
sg13
Nsg28
Nsg29
S'Senegal'
p685
sg31
Nsbasg82
I71
sg83
(lp686
(i__main__
Player
p687
(dp688
g17
(dp689
g19
Nsg20
I75
sg21
I72
sg22
Nsg23
Nsg24
Nsg25
Nssg6
S'D. Sakho'
p690
sg27
I27
sg13
Nsg28
Nsg29
S'Senegal'
p691
sg31
Nsba(i__main__
Player
p692
(dp693
g17
(dp694
g19
Nsg20
I74
sg21
I90
sg22
Nsg23
Nsg24
Nsg25
Nssg6
S'M. Konat\xc3\xa9'
p695
sg27
I24
sg13
Nsg28
Nsg29
S'Senegal'
p696
sg31
Nsba(i__main__
Player
p697
(dp698
g17
(dp699
g19
Nsg20
I73
sg21
I92
sg22
Nsg23
Nsg24
Nsg25
Nssg6
S'I. Sarr'
p700
sg27
I19
sg13
Nsg28
Nsg29
S'Senegal'
p701
sg31
Nsba(i__main__
Player
p702
(dp703
g17
(dp704
g19
Nsg20
I73
sg21
I42
sg22
Nsg23
Nsg24
Nsg25
Nssg6
S'A. Gomis'
p705
sg27
I23
sg13
Nsg28
Nsg29
S'Senegal'
p706
sg31
Nsba(i__main__
Player
p707
(dp708
g17
(dp709
g19
Nsg20
I72
sg21
I49
sg22
Nsg23
Nsg24
Nsg25
Nssg6
S'M. Diallo'
p710
sg27
I31
sg13
Nsg28
Nsg29
S'Senegal'
p711
sg31
Nsba(i__main__
Player
p712
(dp713
g17
(dp714
g19
Nsg20
I71
sg21
I67
sg22
Nsg23
Nsg24
Nsg25
Nssg6
S'B. Sarr'
p715
sg27
I26
sg13
Nsg28
Nsg29
S'Senegal'
p716
sg31
Nsba(i__main__
Player
p717
(dp718
g17
(dp719
g19
Nsg20
I71
sg21
I77
sg22
Nsg23
Nsg24
Nsg25
Nssg6
S'P. San\xc3\xa9'
p720
sg27
I25
sg13
Nsg28
Nsg29
S'Senegal'
p721
sg31
Nsba(i__main__
Player
p722
(dp723
g17
(dp724
g19
Nsg20
I71
sg21
I73
sg22
Nsg23
Nsg24
Nsg25
Nssg6
S"D. N'Doye"
p725
sg27
I32
sg13
Nsg28
Nsg29
S'Senegal'
p726
sg31
Nsba(i__main__
Player
p727
(dp728
g17
(dp729
g19
Nsg20
I71
sg21
I60
sg22
Nsg23
Nsg24
Nsg25
Nssg6
S'I. Sarr'
p730
sg27
I30
sg13
Nsg28
Nsg29
S'Senegal'
p731
sg31
Nsba(i__main__
Player
p732
(dp733
g17
(dp734
g19
Nsg20
I70
sg21
I41
sg22
Nsg23
Nsg24
Nsg25
Nssg6
S'A. Diallo'
p735
sg27
I25
sg13
Nsg28
Nsg29
S'Senegal'
p736
sg31
Nsba(i__main__
Player
p737
(dp738
g17
(dp739
g19
Nsg20
I70
sg21
I66
sg22
Nsg23
Nsg24
Nsg25
Nssg6
S'V. San\xc3\xa9'
p740
sg27
I27
sg13
Nsg28
Nsg29
S'Senegal'
p741
sg31
Nsba(i__main__
Player
p742
(dp743
g17
(dp744
g19
Nsg20
I68
sg21
I72
sg22
Nsg23
Nsg24
Nsg25
Nssg6
S'A. Mbengue'
p745
sg27
I25
sg13
Nsg28
Nsg29
S'Senegal'
p746
sg31
Nsbasg145
I2
sg146
F125.0
sba(i__main__
Team
p747
(dp748
g3
Nsg4
I1530751
sg5
I65
sg6
S'South Korea'
p749
sg8
F-604.69249
sg9
I65
sg10
I1
sg11
I59
sg12
I3
sg13
(lp750
(i__main__
Player
p751
(dp752
g17
(dp753
g19
Nsg20
I65
sg21
I65
sg22
Nsg23
Nsg24
Nsg25
Nssg6
S'Dummy boy'
p754
sg27
I25
sg13
Nsg28
Nsg29
g749
sg31
Nsba(i__main__
Player
p755
(dp756
g17
(dp757
g19
Nsg20
I65
sg21
I65
sg22
Nsg23
Nsg24
Nsg25
Nssg6
S'Almost a dummy boy'
p758
sg27
I25
sg13
Nsg28
Nsg29
g749
sg31
Nsba(i__main__
Player
p759
(dp760
g17
(dp761
g19
Nsg20
I65
sg21
I65
sg22
Nsg23
Nsg24
Nsg25
Nssg6
g758
sg27
I25
sg13
Nsg28
Nsg29
g749
sg31
Nsba(i__main__
Player
p762
(dp763
g17
(dp764
g19
Nsg20
I65
sg21
I65
sg22
Nsg23
Nsg24
Nsg25
Nssg6
g758
sg27
I25
sg13
Nsg28
Nsg29
g749
sg31
Nsba(i__main__
Player
p765
(dp766
g17
(dp767
g19
Nsg20
I65
sg21
I65
sg22
Nsg23
Nsg24
Nsg25
Nssg6
g758
sg27
I25
sg13
Nsg28
Nsg29
g749
sg31
Nsba(i__main__
Player
p768
(dp769
g17
(dp770
g19
Nsg20
I65
sg21
I65
sg22
Nsg23
Nsg24
Nsg25
Nssg6
g758
sg27
I25
sg13
Nsg28
Nsg29
g749
sg31
Nsba(i__main__
Player
p771
(dp772
g17
(dp773
g19
Nsg20
I65
sg21
I65
sg22
Nsg23
Nsg24
Nsg25
Nssg6
g758
sg27
I25
sg13
Nsg28
Nsg29
g749
sg31
Nsba(i__main__
Player
p774
(dp775
g17
(dp776
g19
Nsg20
I65
sg21
I65
sg22
Nsg23
Nsg24
Nsg25
Nssg6
g758
sg27
I25
sg13
Nsg28
Nsg29
g749
sg31
Nsba(i__main__
Player
p777
(dp778
g17
(dp779
g19
Nsg20
I65
sg21
I65
sg22
Nsg23
Nsg24
Nsg25
Nssg6
g758
sg27
I25
sg13
Nsg28
Nsg29
g749
sg31
Nsba(i__main__
Player
p780
(dp781
g17
(dp782
g19
Nsg20
I65
sg21
I65
sg22
Nsg23
Nsg24
Nsg25
Nssg6
g758
sg27
I25
sg13
Nsg28
Nsg29
g749
sg31
Nsba(i__main__
Player
p783
(dp784
g17
(dp785
g19
Nsg20
I65
sg21
I65
sg22
Nsg23
Nsg24
Nsg25
Nssg6
g758
sg27
I25
sg13
Nsg28
Nsg29
g749
sg31
Nsbasg82
I65
sg83
(lp786
(i__main__
Player
p787
(dp788
g17
(dp789
g19
Nsg20
I65
sg21
I65
sg22
Nsg23
Nsg24
Nsg25
Nssg6
g758
sg27
I25
sg13
Nsg28
Nsg29
g749
sg31
Nsba(i__main__
Player
p790
(dp791
g17
(dp792
g19
Nsg20
I65
sg21
I65
sg22
Nsg23
Nsg24
Nsg25
Nssg6
g758
sg27
I25
sg13
Nsg28
Nsg29
g749
sg31
Nsba(i__main__
Player
p793
(dp794
g17
(dp795
g19
Nsg20
I65
sg21
I65
sg22
Nsg23
Nsg24
Nsg25
Nssg6
g758
sg27
I25
sg13
Nsg28
Nsg29
g749
sg31
Nsba(i__main__
Player
p796
(dp797
g17
(dp798
g19
Nsg20
I65
sg21
I65
sg22
Nsg23
Nsg24
Nsg25
Nssg6
g758
sg27
I25
sg13
Nsg28
Nsg29
g749
sg31
Nsba(i__main__
Player
p799
(dp800
g17
(dp801
g19
Nsg20
I65
sg21
I65
sg22
Nsg23
Nsg24
Nsg25
Nssg6
g758
sg27
I25
sg13
Nsg28
Nsg29
g749
sg31
Nsba(i__main__
Player
p802
(dp803
g17
(dp804
g19
Nsg20
I65
sg21
I65
sg22
Nsg23
Nsg24
Nsg25
Nssg6
g758
sg27
I25
sg13
Nsg28
Nsg29
g749
sg31
Nsba(i__main__
Player
p805
(dp806
g17
(dp807
g19
Nsg20
I65
sg21
I65
sg22
Nsg23
Nsg24
Nsg25
Nssg6
g758
sg27
I25
sg13
Nsg28
Nsg29
g749
sg31
Nsba(i__main__
Player
p808
(dp809
g17
(dp810
g19
Nsg20
I65
sg21
I65
sg22
Nsg23
Nsg24
Nsg25
Nssg6
g758
sg27
I25
sg13
Nsg28
Nsg29
g749
sg31
Nsba(i__main__
Player
p811
(dp812
g17
(dp813
g19
Nsg20
I65
sg21
I65
sg22
Nsg23
Nsg24
Nsg25
Nssg6
g758
sg27
I25
sg13
Nsg28
Nsg29
g749
sg31
Nsba(i__main__
Player
p814
(dp815
g17
(dp816
g19
Nsg20
I65
sg21
I65
sg22
Nsg23
Nsg24
Nsg25
Nssg6
g758
sg27
I25
sg13
Nsg28
Nsg29
g749
sg31
Nsba(i__main__
Player
p817
(dp818
g17
(dp819
g19
Nsg20
I65
sg21
I65
sg22
Nsg23
Nsg24
Nsg25
Nssg6
g758
sg27
I25
sg13
Nsg28
Nsg29
g749
sg31
Nsba(i__main__
Player
p820
(dp821
g17
(dp822
g19
Nsg20
I65
sg21
I65
sg22
Nsg23
Nsg24
Nsg25
Nssg6
g758
sg27
I25
sg13
Nsg28
Nsg29
g749
sg31
Nsbasg145
I2
sg146
F750.0
sba(i__main__
Team
p823
(dp824
g3
Nsg4
I109139
sg5
I68
sg6
S'Morocco'
p825
sg8
F-51.90861
sg9
I76
sg10
I1
sg11
I40
sg12
I3
sg13
(lp826
(i__main__
Player
p827
(dp828
g17
(dp829
g19
Nsg20
I81
sg21
I75
sg22
Nsg23
Nsg24
Nsg25
Nssg6
S'H. Ziyech'
p830
sg27
I24
sg13
Nsg28
Nsg29
S'Morocco'
p831
sg31
Nsba(i__main__
Player
p832
(dp833
g17
(dp834
g19
Nsg20
I81
sg21
I75
sg22
Nsg23
Nsg24
Nsg25
Nssg6
S'Y. Belhanda'
p835
sg27
I27
sg13
Nsg28
Nsg29
S'Morocco'
p836
sg31
Nsba(i__main__
Player
p837
(dp838
g17
(dp839
g19
Nsg20
I80
sg21
I65
sg22
Nsg23
Nsg24
Nsg25
Nssg6
S'K. El Ahmadi'
p840
sg27
I32
sg13
Nsg28
Nsg29
S'Morocco'
p841
sg31
Nsba(i__main__
Player
p842
(dp843
g17
(dp844
g19
Nsg20
I79
sg21
I81
sg22
Nsg23
Nsg24
Nsg25
Nssg6
S'N. Amrabat'
p845
sg27
I30
sg13
Nsg28
Nsg29
S'Morocco'
p846
sg31
Nsba(i__main__
Player
p847
(dp848
g17
(dp849
g19
Nsg20
I76
sg21
I77
sg22
Nsg23
Nsg24
Nsg25
Nssg6
S'N. Dirar'
p850
sg27
I31
sg13
Nsg28
Nsg29
S'Morocco'
p851
sg31
Nsba(i__main__
Player
p852
(dp853
g17
(dp854
g19
Nsg20
I76
sg21
I66
sg22
Nsg23
Nsg24
Nsg25
Nssg6
S'R. Sa\xc3\xafss'
p855
sg27
I27
sg13
Nsg28
Nsg29
S'Morocco'
p856
sg31
Nsba(i__main__
Player
p857
(dp858
g17
(dp859
g19
Nsg20
I75
sg21
I67
sg22
Nsg23
Nsg24
Nsg25
Nssg6
S'F. Fajr'
p860
sg27
I28
sg13
Nsg28
Nsg29
S'Morocco'
p861
sg31
Nsba(i__main__
Player
p862
(dp863
g17
(dp864
g19
Nsg20
I74
sg21
I68
sg22
Nsg23
Nsg24
Nsg25
Nssg6
S'S. Amrabat'
p865
sg27
I20
sg13
Nsg28
Nsg29
S'Morocco'
p866
sg31
Nsba(i__main__
Player
p867
(dp868
g17
(dp869
g19
Nsg20
I73
sg21
I65
sg22
Nsg23
Nsg24
Nsg25
Nssg6
S'A. Bouhaddouz'
p870
sg27
I30
sg13
Nsg28
Nsg29
S'Morocco'
p871
sg31
Nsba(i__main__
Player
p872
(dp873
g17
(dp874
g19
Nsg20
I73
sg21
I68
sg22
Nsg23
Nsg24
Nsg25
Nssg6
g758
sg27
I25
sg13
Nsg28
Nsg29
g825
sg31
Nsba(i__main__
Player
p875
(dp876
g17
(dp877
g19
Nsg20
I73
sg21
I68
sg22
Nsg23
Nsg24
Nsg25
Nssg6
g758
sg27
I25
sg13
Nsg28
Nsg29
g825
sg31
Nsbasg82
I71
sg83
(lp878
(i__main__
Player
p879
(dp880
g17
(dp881
g19
Nsg20
I73
sg21
I68
sg22
Nsg23
Nsg24
Nsg25
Nssg6
g758
sg27
I25
sg13
Nsg28
Nsg29
g825
sg31
Nsba(i__main__
Player
p882
(dp883
g17
(dp884
g19
Nsg20
I73
sg21
I68
sg22
Nsg23
Nsg24
Nsg25
Nssg6
g758
sg27
I25
sg13
Nsg28
Nsg29
g825
sg31
Nsba(i__main__
Player
p885
(dp886
g17
(dp887
g19
Nsg20
I73
sg21
I68
sg22
Nsg23
Nsg24
Nsg25
Nssg6
g758
sg27
I25
sg13
Nsg28
Nsg29
g825
sg31
Nsba(i__main__
Player
p888
(dp889
g17
(dp890
g19
Nsg20
I73
sg21
I68
sg22
Nsg23
Nsg24
Nsg25
Nssg6
g758
sg27
I25
sg13
Nsg28
Nsg29
g825
sg31
Nsba(i__main__
Player
p891
(dp892
g17
(dp893
g19
Nsg20
I72
sg21
I57
sg22
Nsg23
Nsg24
Nsg25
Nssg6
S'Manuel da Costa'
p894
sg27
I31
sg13
Nsg28
Nsg29
S'Morocco'
p895
sg31
Nsba(i__main__
Player
p896
(dp897
g17
(dp898
g19
Nsg20
I72
sg21
I72
sg22
Nsg23
Nsg24
Nsg25
Nssg6
S'Y. Ait Bennasser'
p899
sg27
I20
sg13
Nsg28
Nsg29
S'Morocco'
p900
sg31
Nsba(i__main__
Player
p901
(dp902
g17
(dp903
g19
Nsg20
I71
sg21
I60
sg22
Nsg23
Nsg24
Nsg25
Nssg6
S'K. Bouta\xc3\xafb'
p904
sg27
I30
sg13
Nsg28
Nsg29
S'Morocco'
p905
sg31
Nsba(i__main__
Player
p906
(dp907
g17
(dp908
g19
Nsg20
I71
sg21
I35
sg22
Nsg23
Nsg24
Nsg25
Nssg6
S'Y. Bounou'
p909
sg27
I26
sg13
Nsg28
Nsg29
S'Morocco'
p910
sg31
Nsba(i__main__
Player
p911
(dp912
g17
(dp913
g19
Nsg20
I71
sg21
I76
sg22
Nsg23
Nsg24
Nsg25
Nssg6
S'A. Harit'
p914
sg27
I20
sg13
Nsg28
Nsg29
S'Morocco'
p915
sg31
Nsba(i__main__
Player
p916
(dp917
g17
(dp918
g19
Nsg20
I71
sg21
I77
sg22
Nsg23
Nsg24
Nsg25
Nssg6
S'A. Hakimi'
p919
sg27
I18
sg13
Nsg28
Nsg29
S'Morocco'
p920
sg31
Nsba(i__main__
Player
p921
(dp922
g17
(dp923
g19
Nsg20
I69
sg21
I76
sg22
Nsg23
Nsg24
Nsg25
Nssg6
S'Y. En-Nesyri'
p924
sg27
I20
sg13
Nsg28
Nsg29
S'Morocco'
p925
sg31
Nsba(i__main__
Player
p926
(dp927
g17
(dp928
g19
Nsg20
I63
sg21
I77
sg22
Nsg23
Nsg24
Nsg25
Nssg6
S'H. Mendyl'
p929
sg27
I19
sg13
Nsg28
Nsg29
S'Morocco'
p930
sg31
Nsbasg145
I2
sg146
F200.0
sba(i__main__
Team
p931
(dp932
g3
Nsg4
I235369
sg5
I69
sg6
S'Egypt'
p933
sg8
F43.35369
sg9
I73
sg10
I1
sg11
I31
sg12
I3
sg13
(lp934
(i__main__
Player
p935
(dp936
g17
(dp937
g19
Nsg20
I83
sg21
I93
sg22
Nsg23
Nsg24
Nsg25
Nssg6
S'M. Salah'
p938
sg27
I25
sg13
Nsg28
Nsg29
S'Egypt'
p939
sg31
Nsba(i__main__
Player
p940
(dp941
g17
(dp942
g19
Nsg20
I77
sg21
I59
sg22
Nsg23
Nsg24
Nsg25
Nssg6
S'M. Elneny'
p943
sg27
I24
sg13
Nsg28
Nsg29
S'Egypt'
p944
sg31
Nsba(i__main__
Player
p945
(dp946
g17
(dp947
g19
Nsg20
I75
sg21
I83
sg22
Nsg23
Nsg24
Nsg25
Nssg6
S'Kahraba'
p948
sg27
I23
sg13
Nsg28
Nsg29
S'Egypt'
p949
sg31
Nsba(i__main__
Player
p950
(dp951
g17
(dp952
g19
Nsg20
I74
sg21
I75
sg22
Nsg23
Nsg24
Nsg25
Nssg6
S'R. Sobhi'
p953
sg27
I20
sg13
Nsg28
Nsg29
S'Egypt'
p954
sg31
Nsba(i__main__
Player
p955
(dp956
g17
(dp957
g19
Nsg20
I73
sg21
I34
sg22
Nsg23
Nsg24
Nsg25
Nssg6
S'A. El-Shenawy'
p958
sg27
I26
sg13
Nsg28
Nsg29
S'Egypt'
p959
sg31
Nsba(i__main__
Player
p960
(dp961
g17
(dp962
g19
Nsg20
I72
sg21
I77
sg22
Nsg23
Nsg24
Nsg25
Nssg6
S'A. Elmohamady'
p963
sg27
I29
sg13
Nsg28
Nsg29
S'Egypt'
p964
sg31
Nsba(i__main__
Player
p965
(dp966
g17
(dp967
g19
Nsg20
I71
sg21
I79
sg22
Nsg23
Nsg24
Nsg25
Nssg6
S'A. Warda'
p968
sg27
I23
sg13
Nsg28
Nsg29
S'Egypt'
p969
sg31
Nsba(i__main__
Player
p970
(dp971
g17
(dp972
g19
Nsg20
I71
sg21
I69
sg22
Nsg23
Nsg24
Nsg25
Nssg6
g758
sg27
I26
sg13
Nsg28
Nsg29
g933
sg31
Nsba(i__main__
Player
p973
(dp974
g17
(dp975
g19
Nsg20
I71
sg21
I69
sg22
Nsg23
Nsg24
Nsg25
Nssg6
g758
sg27
I26
sg13
Nsg28
Nsg29
g933
sg31
Nsba(i__main__
Player
p976
(dp977
g17
(dp978
g19
Nsg20
I71
sg21
I69
sg22
Nsg23
Nsg24
Nsg25
Nssg6
g758
sg27
I26
sg13
Nsg28
Nsg29
g933
sg31
Nsba(i__main__
Player
p979
(dp980
g17
(dp981
g19
Nsg20
I71
sg21
I69
sg22
Nsg23
Nsg24
Nsg25
Nssg6
g758
sg27
I26
sg13
Nsg28
Nsg29
g933
sg31
Nsbasg82
I68
sg83
(lp982
(i__main__
Player
p983
(dp984
g17
(dp985
g19
Nsg20
I71
sg21
I69
sg22
Nsg23
Nsg24
Nsg25
Nssg6
g758
sg27
I26
sg13
Nsg28
Nsg29
g933
sg31
Nsba(i__main__
Player
p986
(dp987
g17
(dp988
g19
Nsg20
I71
sg21
I69
sg22
Nsg23
Nsg24
Nsg25
Nssg6
g758
sg27
I26
sg13
Nsg28
Nsg29
g933
sg31
Nsba(i__main__
Player
p989
(dp990
g17
(dp991
g19
Nsg20
I71
sg21
I69
sg22
Nsg23
Nsg24
Nsg25
Nssg6
g758
sg27
I26
sg13
Nsg28
Nsg29
g933
sg31
Nsba(i__main__
Player
p992
(dp993
g17
(dp994
g19
Nsg20
I71
sg21
I69
sg22
Nsg23
Nsg24
Nsg25
Nssg6
g758
sg27
I26
sg13
Nsg28
Nsg29
g933
sg31
Nsba(i__main__
Player
p995
(dp996
g17
(dp997
g19
Nsg20
I70
sg21
I77
sg22
Nsg23
Nsg24
Nsg25
Nssg6
S'Shikabala'
p998
sg27
I31
sg13
Nsg28
Nsg29
S'Egypt'
p999
sg31
Nsba(i__main__
Player
p1000
(dp1001
g17
(dp1002
g19
Nsg20
I69
sg21
I76
sg22
Nsg23
Nsg24
Nsg25
Nssg6
S'O. Gaber'
p1003
sg27
I25
sg13
Nsg28
Nsg29
S'Egypt'
p1004
sg31
Nsba(i__main__
Player
p1005
(dp1006
g17
(dp1007
g19
Nsg20
I69
sg21
I57
sg22
Nsg23
Nsg24
Nsg25
Nssg6
S'S. Ekramy'
p1008
sg27
I33
sg13
Nsg28
Nsg29
S'Egypt'
p1009
sg31
Nsba(i__main__
Player
p1010
(dp1011
g17
(dp1012
g19
Nsg20
I68
sg21
I65
sg22
Nsg23
Nsg24
Nsg25
Nssg6
S'S. Morsy'
p1013
sg27
I25
sg13
Nsg28
Nsg29
S'Egypt'
p1014
sg31
Nsba(i__main__
Player
p1015
(dp1016
g17
(dp1017
g19
Nsg20
I67
sg21
I63
sg22
Nsg23
Nsg24
Nsg25
Nssg6
S'A. Gabr'
p1018
sg27
I30
sg13
Nsg28
Nsg29
S'Egypt'
p1019
sg31
Nsba(i__main__
Player
p1020
(dp1021
g17
(dp1022
g19
Nsg20
I66
sg21
I64
sg22
Nsg23
Nsg24
Nsg25
Nssg6
S'T. Hamed'
p1023
sg27
I28
sg13
Nsg28
Nsg29
S'Egypt'
p1024
sg31
Nsba(i__main__
Player
p1025
(dp1026
g17
(dp1027
g19
Nsg20
I66
sg21
I73
sg22
Nsg23
Nsg24
Nsg25
Nssg6
S'I. Salah'
p1028
sg27
I30
sg13
Nsg28
Nsg29
S'Egypt'
p1029
sg31
Nsba(i__main__
Player
p1030
(dp1031
g17
(dp1032
g19
Nsg20
I65
sg21
I67
sg22
Nsg23
Nsg24
Nsg25
Nssg6
S'M. Mohsen'
p1033
sg27
I28
sg13
Nsg28
Nsg29
S'Egypt'
p1034
sg31
Nsbasg145
I2
sg146
F100.0
sba(i__main__
Team
p1035
(dp1036
g3
Nsg4
I1323421
sg5
I70
sg6
S'Australia'
p1037
sg8
F-848.76579
sg9
I73
sg10
I1
sg11
I39
sg12
I3
sg13
(lp1038
(i__main__
Player
p1039
(dp1040
g17
(dp1041
g19
Nsg20
I77
sg21
I52
sg22
Nsg23
Nsg24
Nsg25
Nssg6
S'M. Ryan'
p1042
sg27
I25
sg13
Nsg28
Nsg29
S'Australia'
p1043
sg31
Nsba(i__main__
Player
p1044
(dp1045
g17
(dp1046
g19
Nsg20
I77
sg21
I53
sg22
Nsg23
Nsg24
Nsg25
Nssg6
S'B. Jones'
p1047
sg27
I35
sg13
Nsg28
Nsg29
S'Australia'
p1048
sg31
Nsba(i__main__
Player
p1049
(dp1050
g17
(dp1051
g19
Nsg20
I77
sg21
I68
sg22
Nsg23
Nsg24
Nsg25
Nssg6
S'A. Mooy'
p1052
sg27
I26
sg13
Nsg28
Nsg29
S'Australia'
p1053
sg31
Nsba(i__main__
Player
p1054
(dp1055
g17
(dp1056
g19
Nsg20
I74
sg21
I73
sg22
Nsg23
Nsg24
Nsg25
Nssg6
S'T. Sainsbury'
p1057
sg27
I25
sg13
Nsg28
Nsg29
S'Australia'
p1058
sg31
Nsba(i__main__
Player
p1059
(dp1060
g17
(dp1061
g19
Nsg20
I74
sg21
I67
sg22
Nsg23
Nsg24
Nsg25
Nssg6
S'M. Milligan'
p1062
sg27
I31
sg13
Nsg28
Nsg29
S'Australia'
p1063
sg31
Nsba(i__main__
Player
p1064
(dp1065
g17
(dp1066
g19
Nsg20
I73
sg21
I86
sg22
Nsg23
Nsg24
Nsg25
Nssg6
S'J. Maclaren'
p1067
sg27
I23
sg13
Nsg28
Nsg29
S'Australia'
p1068
sg31
Nsba(i__main__
Player
p1069
(dp1070
g17
(dp1071
g19
Nsg20
I73
sg21
I83
sg22
Nsg23
Nsg24
Nsg25
Nssg6
S'A. Behich'
p1072
sg27
I26
sg13
Nsg28
Nsg29
S'Australia'
p1073
sg31
Nsba(i__main__
Player
p1074
(dp1075
g17
(dp1076
g19
Nsg20
I72
sg21
I80
sg22
Nsg23
Nsg24
Nsg25
Nssg6
S'R. Kruse'
p1077
sg27
I28
sg13
Nsg28
Nsg29
S'Australia'
p1078
sg31
Nsba(i__main__
Player
p1079
(dp1080
g17
(dp1081
g19
Nsg20
I72
sg21
I92
sg22
Nsg23
Nsg24
Nsg25
Nssg6
S'M. Leckie'
p1082
sg27
I26
sg13
Nsg28
Nsg29
S'Australia'
p1083
sg31
Nsba(i__main__
Player
p1084
(dp1085
g17
(dp1086
g19
Nsg20
I71
sg21
I73
sg22
Nsg23
Nsg24
Nsg25
Nssg6
S'M. Luongo'
p1087
sg27
I24
sg13
Nsg28
Nsg29
S'Australia'
p1088
sg31
Nsba(i__main__
Player
p1089
(dp1090
g17
(dp1091
g19
Nsg20
I71
sg21
I76
sg22
Nsg23
Nsg24
Nsg25
Nssg6
S'J. Irvine'
p1092
sg27
I24
sg13
Nsg28
Nsg29
S'Australia'
p1093
sg31
Nsbasg82
I65
sg83
(lp1094
(i__main__
Player
p1095
(dp1096
g17
(dp1097
g19
Nsg20
I70
sg21
I77
sg22
Nsg23
Nsg24
Nsg25
Nssg6
S'J. Risdon'
p1098
sg27
I24
sg13
Nsg28
Nsg29
S'Australia'
p1099
sg31
Nsba(i__main__
Player
p1100
(dp1101
g17
(dp1102
g19
Nsg20
I70
sg21
I66
sg22
Nsg23
Nsg24
Nsg25
Nssg6
S'M. Degenek'
p1103
sg27
I23
sg13
Nsg28
Nsg29
S'Australia'
p1104
sg31
Nsba(i__main__
Player
p1105
(dp1106
g17
(dp1107
g19
Nsg20
I70
sg21
I60
sg22
Nsg23
Nsg24
Nsg25
Nssg6
S'T. Cahill'
p1108
sg27
I37
sg13
Nsg28
Nsg29
S'Australia'
p1109
sg31
Nsba(i__main__
Player
p1110
(dp1111
g17
(dp1112
g19
Nsg20
I70
sg21
I50
sg22
Nsg23
Nsg24
Nsg25
Nssg6
S'D. Vukovic'
p1113
sg27
I32
sg13
Nsg28
Nsg29
S'Australia'
p1114
sg31
Nsba(i__main__
Player
p1115
(dp1116
g17
(dp1117
g19
Nsg20
I69
sg21
I52
sg22
Nsg23
Nsg24
Nsg25
Nssg6
S'M. Jurman'
p1118
sg27
I27
sg13
Nsg28
Nsg29
S'Australia'
p1119
sg31
Nsba(i__main__
Player
p1120
(dp1121
g17
(dp1122
g19
Nsg20
I69
sg21
I70
sg22
Nsg23
Nsg24
Nsg25
Nssg6
g758
sg27
I25
sg13
Nsg28
Nsg29
g1037
sg31
Nsba(i__main__
Player
p1123
(dp1124
g17
(dp1125
g19
Nsg20
I68
sg21
I78
sg22
Nsg23
Nsg24
Nsg25
Nssg6
S'J. Meredith'
p1126
sg27
I29
sg13
Nsg28
Nsg29
S'Australia'
p1127
sg31
Nsba(i__main__
Player
p1128
(dp1129
g17
(dp1130
g19
Nsg20
I66
sg21
I84
sg22
Nsg23
Nsg24
Nsg25
Nssg6
S'D. Petratos'
p1131
sg27
I24
sg13
Nsg28
Nsg29
S'Australia'
p1132
sg31
Nsba(i__main__
Player
p1133
(dp1134
g17
(dp1135
g19
Nsg20
I65
sg21
I78
sg22
Nsg23
Nsg24
Nsg25
Nssg6
S'A. Nabbout'
p1136
sg27
I24
sg13
Nsg28
Nsg29
S'Australia'
p1137
sg31
Nsba(i__main__
Player
p1138
(dp1139
g17
(dp1140
g19
Nsg20
I59
sg21
I63
sg22
Nsg23
Nsg24
Nsg25
Nssg6
S'D. Ryan'
p1141
sg27
I17
sg13
Nsg28
Nsg29
S'Australia'
p1142
sg31
Nsba(i__main__
Player
p1143
(dp1144
g17
(dp1145
g19
Nsg20
I58
sg21
I75
sg22
Nsg23
Nsg24
Nsg25
Nssg6
S'D. Arzani'
p1146
sg27
I18
sg13
Nsg28
Nsg29
S'Australia'
p1147
sg31
Nsba(i__main__
Player
p1148
(dp1149
g17
(dp1150
g19
Nsg20
I57
sg21
I74
sg22
Nsg23
Nsg24
Nsg25
Nssg6
S'K. Petratos'
p1151
sg27
I19
sg13
Nsg28
Nsg29
S'Australia'
p1152
sg31
Nsbasg145
I2
sg146
F1000.0
sba(i__main__
Team
p1153
(dp1154
g3
Nsg4
I524510
sg5
I67
sg6
S'Poland'
p1155
sg8
F-46.7549
sg9
I79
sg10
I1
sg11
I7
sg12
I3
sg13
(lp1156
(i__main__
Player
p1157
(dp1158
g17
(dp1159
g19
Nsg20
I85
sg21
I55
sg22
Nsg23
Nsg24
Nsg25
Nssg6
S'K. Glik'
p1160
sg27
I29
sg13
Nsg28
Nsg29
S'Poland'
p1161
sg31
Nsba(i__main__
Player
p1162
(dp1163
g17
(dp1164
g19
Nsg20
I83
sg21
I78
sg22
Nsg23
Nsg24
Nsg25
Nssg6
S'L. Piszczek'
p1165
sg27
I32
sg13
Nsg28
Nsg29
S'Poland'
p1166
sg31
Nsba(i__main__
Player
p1167
(dp1168
g17
(dp1169
g19
Nsg20
I82
sg21
I49
sg22
Nsg23
Nsg24
Nsg25
Nssg6
S'W. Szcz\xc4\x99sny'
p1170
sg27
I27
sg13
Nsg28
Nsg29
S'Poland'
p1171
sg31
Nsba(i__main__
Player
p1172
(dp1173
g17
(dp1174
g19
Nsg20
I81
sg21
I65
sg22
Nsg23
Nsg24
Nsg25
Nssg6
S'G. Krychowiak'
p1175
sg27
I27
sg13
Nsg28
Nsg29
S'Poland'
p1176
sg31
Nsba(i__main__
Player
p1177
(dp1178
g17
(dp1179
g19
Nsg20
I80
sg21
I82
sg22
Nsg23
Nsg24
Nsg25
Nssg6
S'P. Zieli\xc5\x84ski'
p1180
sg27
I23
sg13
Nsg28
Nsg29
S'Poland'
p1181
sg31
Nsba(i__main__
Player
p1182
(dp1183
g17
(dp1184
g19
Nsg20
I80
sg21
I48
sg22
Nsg23
Nsg24
Nsg25
Nssg6
S'L. Fabia\xc5\x84ski'
p1185
sg27
I32
sg13
Nsg28
Nsg29
S'Poland'
p1186
sg31
Nsba(i__main__
Player
p1187
(dp1188
g17
(dp1189
g19
Nsg20
I79
sg21
I72
sg22
Nsg23
Nsg24
Nsg25
Nssg6
S'A. Milik'
p1190
sg27
I23
sg13
Nsg28
Nsg29
S'Poland'
p1191
sg31
Nsba(i__main__
Player
p1192
(dp1193
g17
(dp1194
g19
Nsg20
I78
sg21
I70
sg22
Nsg23
Nsg24
Nsg25
Nssg6
S'L. Teodorczyk'
p1195
sg27
I26
sg13
Nsg28
Nsg29
S'Poland'
p1196
sg31
Nsba(i__main__
Player
p1197
(dp1198
g17
(dp1199
g19
Nsg20
I76
sg21
I85
sg22
Nsg23
Nsg24
Nsg25
Nssg6
S'K. Grosicki'
p1200
sg27
I29
sg13
Nsg28
Nsg29
S'Poland'
p1201
sg31
Nsba(i__main__
Player
p1202
(dp1203
g17
(dp1204
g19
Nsg20
I76
sg21
I76
sg22
Nsg23
Nsg24
Nsg25
Nssg6
S'J. B\xc5\x82aszczykowski'
p1205
sg27
I31
sg13
Nsg28
Nsg29
S'Poland'
p1206
sg31
Nsba(i__main__
Player
p1207
(dp1208
g17
(dp1209
g19
Nsg20
I76
sg21
I53
sg22
Nsg23
Nsg24
Nsg25
Nssg6
S'M. Pazdan'
p1210
sg27
I29
sg13
Nsg28
Nsg29
S'Poland'
p1211
sg31
Nsbasg82
I69
sg83
(lp1212
(i__main__
Player
p1213
(dp1214
g17
(dp1215
g19
Nsg20
I75
sg21
I70
sg22
Nsg23
Nsg24
Nsg25
Nssg6
S'K. Linetty'
p1216
sg27
I22
sg13
Nsg28
Nsg29
S'Poland'
p1217
sg31
Nsba(i__main__
Player
p1218
(dp1219
g17
(dp1220
g19
Nsg20
I74
sg21
I42
sg22
Nsg23
Nsg24
Nsg25
Nssg6
S'B. Bia\xc5\x82kowski'
p1221
sg27
I29
sg13
Nsg28
Nsg29
S'Poland'
p1222
sg31
Nsba(i__main__
Player
p1223
(dp1224
g17
(dp1225
g19
Nsg20
I73
sg21
I82
sg22
Nsg23
Nsg24
Nsg25
Nssg6
S'B. Bereszy\xc5\x84ski'
p1226
sg27
I24
sg13
Nsg28
Nsg29
S'Poland'
p1227
sg31
Nsba(i__main__
Player
p1228
(dp1229
g17
(dp1230
g19
Nsg20
I73
sg21
I71
sg22
Nsg23
Nsg24
Nsg25
Nssg6
S'J. G\xc3\xb3ralski'
p1231
sg27
I24
sg13
Nsg28
Nsg29
S'Poland'
p1232
sg31
Nsba(i__main__
Player
p1233
(dp1234
g17
(dp1235
g19
Nsg20
I73
sg21
I73
sg22
Nsg23
Nsg24
Nsg25
Nssg6
S'A. J\xc4\x99drzejczyk'
p1236
sg27
I29
sg13
Nsg28
Nsg29
S'Poland'
p1237
sg31
Nsba(i__main__
Player
p1238
(dp1239
g17
(dp1240
g19
Nsg20
I72
sg21
I77
sg22
Nsg23
Nsg24
Nsg25
Nssg6
S'M. Rybus'
p1241
sg27
I27
sg13
Nsg28
Nsg29
S'Poland'
p1242
sg31
Nsba(i__main__
Player
p1243
(dp1244
g17
(dp1245
g19
Nsg20
I71
sg21
I69
sg22
Nsg23
Nsg24
Nsg25
Nssg6
S'Thiago Cionek'
p1246
sg27
I31
sg13
Nsg28
Nsg29
S'Poland'
p1247
sg31
Nsba(i__main__
Player
p1248
(dp1249
g17
(dp1250
g19
Nsg20
I69
sg21
I66
sg22
Nsg23
Nsg24
Nsg25
Nssg6
S'S. Peszko'
p1251
sg27
I32
sg13
Nsg28
Nsg29
S'Poland'
p1252
sg31
Nsba(i__main__
Player
p1253
(dp1254
g17
(dp1255
g19
Nsg20
I68
sg21
I66
sg22
Nsg23
Nsg24
Nsg25
Nssg6
S'J. Bednarek'
p1256
sg27
I21
sg13
Nsg28
Nsg29
S'Poland'
p1257
sg31
Nsba(i__main__
Player
p1258
(dp1259
g17
(dp1260
g19
Nsg20
I68
sg21
I76
sg22
Nsg23
Nsg24
Nsg25
Nssg6
S'D. Kownacki'
p1261
sg27
I20
sg13
Nsg28
Nsg29
S'Poland'
p1262
sg31
Nsba(i__main__
Player
p1263
(dp1264
g17
(dp1265
g19
Nsg20
I67
sg21
I55
sg22
Nsg23
Nsg24
Nsg25
Nssg6
S'R. Kurzawa'
p1266
sg27
I24
sg13
Nsg28
Nsg29
S'Poland'
p1267
sg31
Nsba(i__main__
Player
p1268
(dp1269
g17
(dp1270
g19
Nsg20
I56
sg21
I69
sg22
Nsg23
Nsg24
Nsg25
Nssg6
S'D. Zieli\xc5\x84ski'
p1271
sg27
I20
sg13
Nsg28
Nsg29
S'Poland'
p1272
sg31
Nsbasg145
I2
sg146
F200.0
sba(i__main__
Team
p1273
(dp1274
g3
Nsg4
I678887
sg5
I66
sg6
S'Switzerland'
p1275
sg8
F57.78887
sg9
I79
sg10
I1
sg11
I8
sg12
I3
sg13
(lp1276
(i__main__
Player
p1277
(dp1278
g17
(dp1279
g19
Nsg20
I84
sg21
I48
sg22
Nsg23
Nsg24
Nsg25
Nssg6
S'R. B\xc3\xbcrki'
p1280
sg27
I26
sg13
Nsg28
Nsg29
S'Switzerland'
p1281
sg31
Nsba(i__main__
Player
p1282
(dp1283
g17
(dp1284
g19
Nsg20
I83
sg21
I51
sg22
Nsg23
Nsg24
Nsg25
Nssg6
S'Y. Sommer'
p1285
sg27
I28
sg13
Nsg28
Nsg29
S'Switzerland'
p1286
sg31
Nsba(i__main__
Player
p1287
(dp1288
g17
(dp1289
g19
Nsg20
I82
sg21
I49
sg22
Nsg23
Nsg24
Nsg25
Nssg6
S'G. Xhaka'
p1290
sg27
I24
sg13
Nsg28
Nsg29
S'Switzerland'
p1291
sg31
Nsba(i__main__
Player
p1292
(dp1293
g17
(dp1294
g19
Nsg20
I82
sg21
I83
sg22
Nsg23
Nsg24
Nsg25
Nssg6
S'X. Shaqiri'
p1295
sg27
I25
sg13
Nsg28
Nsg29
S'Switzerland'
p1296
sg31
Nsba(i__main__
Player
p1297
(dp1298
g17
(dp1299
g19
Nsg20
I81
sg21
I73
sg22
Nsg23
Nsg24
Nsg25
Nssg6
S'R. Rodr\xc3\xadguez'
p1300
sg27
I24
sg13
Nsg28
Nsg29
S'Switzerland'
p1301
sg31
Nsba(i__main__
Player
p1302
(dp1303
g17
(dp1304
g19
Nsg20
I78
sg21
I66
sg22
Nsg23
Nsg24
Nsg25
Nssg6
S'B. D\xc5\xbeemaili'
p1305
sg27
I31
sg13
Nsg28
Nsg29
S'Switzerland'
p1306
sg31
Nsba(i__main__
Player
p1307
(dp1308
g17
(dp1309
g19
Nsg20
I77
sg21
I63
sg22
Nsg23
Nsg24
Nsg25
Nssg6
S'V. Behrami'
p1310
sg27
I32
sg13
Nsg28
Nsg29
S'Switzerland'
p1311
sg31
Nsba(i__main__
Player
p1312
(dp1313
g17
(dp1314
g19
Nsg20
I77
sg21
I73
sg22
Nsg23
Nsg24
Nsg25
Nssg6
S'M. Lang'
p1315
sg27
I26
sg13
Nsg28
Nsg29
S'Switzerland'
p1316
sg31
Nsba(i__main__
Player
p1317
(dp1318
g17
(dp1319
g19
Nsg20
I76
sg21
I81
sg22
Nsg23
Nsg24
Nsg25
Nssg6
S'B. Embolo'
p1320
sg27
I20
sg13
Nsg28
Nsg29
S'Switzerland'
p1321
sg31
Nsba(i__main__
Player
p1322
(dp1323
g17
(dp1324
g19
Nsg20
I76
sg21
I67
sg22
Nsg23
Nsg24
Nsg25
Nssg6
S'Gelson Fernandes'
p1325
sg27
I30
sg13
Nsg28
Nsg29
S'Switzerland'
p1326
sg31
Nsba(i__main__
Player
p1327
(dp1328
g17
(dp1329
g19
Nsg20
I75
sg21
I69
sg22
Nsg23
Nsg24
Nsg25
Nssg6
S'R. Freuler'
p1330
sg27
I25
sg13
Nsg28
Nsg29
S'Switzerland'
p1331
sg31
Nsbasg82
I72
sg83
(lp1332
(i__main__
Player
p1333
(dp1334
g17
(dp1335
g19
Nsg20
I75
sg21
I78
sg22
Nsg23
Nsg24
Nsg25
Nssg6
S'S. Zuber'
p1336
sg27
I25
sg13
Nsg28
Nsg29
S'Switzerland'
p1337
sg31
Nsba(i__main__
Player
p1338
(dp1339
g17
(dp1340
g19
Nsg20
I75
sg21
I57
sg22
Nsg23
Nsg24
Nsg25
Nssg6
S'F. Sch\xc3\xa4r'
p1341
sg27
I25
sg13
Nsg28
Nsg29
S'Switzerland'
p1342
sg31
Nsba(i__main__
Player
p1343
(dp1344
g17
(dp1345
g19
Nsg20
I75
sg21
I42
sg22
Nsg23
Nsg24
Nsg25
Nssg6
S'Y. Mvogo'
p1346
sg27
I23
sg13
Nsg28
Nsg29
S'Switzerland'
p1347
sg31
Nsba(i__main__
Player
p1348
(dp1349
g17
(dp1350
g19
Nsg20
I74
sg21
I69
sg22
Nsg23
Nsg24
Nsg25
Nssg6
S'N. Elvedi'
p1351
sg27
I20
sg13
Nsg28
Nsg29
S'Switzerland'
p1352
sg31
Nsba(i__main__
Player
p1353
(dp1354
g17
(dp1355
g19
Nsg20
I74
sg21
I76
sg22
Nsg23
Nsg24
Nsg25
Nssg6
S'J. Drmi\xc4\x87'
p1356
sg27
I24
sg13
Nsg28
Nsg29
S'Switzerland'
p1357
sg31
Nsba(i__main__
Player
p1358
(dp1359
g17
(dp1360
g19
Nsg20
I74
sg21
I69
sg22
Nsg23
Nsg24
Nsg25
Nssg6
S'H. Seferovi\xc4\x87'
p1361
sg27
I25
sg13
Nsg28
Nsg29
S'Switzerland'
p1362
sg31
Nsba(i__main__
Player
p1363
(dp1364
g17
(dp1365
g19
Nsg20
I74
sg21
I71
sg22
Nsg23
Nsg24
Nsg25
Nssg6
S'F. Moubandje'
p1366
sg27
I27
sg13
Nsg28
Nsg29
S'Switzerland'
p1367
sg31
Nsba(i__main__
Player
p1368
(dp1369
g17
(dp1370
g19
Nsg20
I73
sg21
I68
sg22
Nsg23
Nsg24
Nsg25
Nssg6
S'J. Djourou'
p1371
sg27
I30
sg13
Nsg28
Nsg29
S'Switzerland'
p1372
sg31
Nsba(i__main__
Player
p1373
(dp1374
g17
(dp1375
g19
Nsg20
I72
sg21
I56
sg22
Nsg23
Nsg24
Nsg25
Nssg6
S'M. Akanji'
p1376
sg27
I21
sg13
Nsg28
Nsg29
S'Switzerland'
p1377
sg31
Nsba(i__main__
Player
p1378
(dp1379
g17
(dp1380
g19
Nsg20
I72
sg21
I69
sg22
Nsg23
Nsg24
Nsg25
Nssg6
S'D. Zakaria'
p1381
sg27
I20
sg13
Nsg28
Nsg29
S'Switzerland'
p1382
sg31
Nsba(i__main__
Player
p1383
(dp1384
g17
(dp1385
g19
Nsg20
I69
sg21
I79
sg22
Nsg23
Nsg24
Nsg25
Nssg6
S'E. Fernandes'
p1386
sg27
I21
sg13
Nsg28
Nsg29
S'Switzerland'
p1387
sg31
Nsba(i__main__
Player
p1388
(dp1389
g17
(dp1390
g19
Nsg20
I68
sg21
I78
sg22
Nsg23
Nsg24
Nsg25
Nssg6
S'F. Rodr\xc3\xadguez'
p1391
sg27
I21
sg13
Nsg28
Nsg29
S'Switzerland'
p1392
sg31
Nsbasg145
I2
sg146
F100.0
sba(i__main__
Team
p1393
(dp1394
g3
Nsg4
I492681
sg5
I70
sg6
S'Belgium'
p1395
sg8
F160.92681
sg9
I86
sg10
I1
sg11
I5
sg12
I3
sg13
(lp1396
(i__main__
Player
p1397
(dp1398
g17
(dp1399
g19
Nsg20
I90
sg21
I90
sg22
Nsg23
Nsg24
Nsg25
Nssg6
S'E. Hazard'
p1400
sg27
I26
sg13
Nsg28
Nsg29
S'Belgium'
p1401
sg31
Nsba(i__main__
Player
p1402
(dp1403
g17
(dp1404
g19
Nsg20
I89
sg21
I75
sg22
Nsg23
Nsg24
Nsg25
Nssg6
S'K. De Bruyne'
p1405
sg27
I26
sg13
Nsg28
Nsg29
S'Belgium'
p1406
sg31
Nsba(i__main__
Player
p1407
(dp1408
g17
(dp1409
g19
Nsg20
I89
sg21
I49
sg22
Nsg23
Nsg24
Nsg25
Nssg6
S'T. Courtois'
p1410
sg27
I25
sg13
Nsg28
Nsg29
S'Belgium'
p1411
sg31
Nsba(i__main__
Player
p1412
(dp1413
g17
(dp1414
g19
Nsg20
I86
sg21
I82
sg22
Nsg23
Nsg24
Nsg25
Nssg6
S'R. Lukaku'
p1415
sg27
I24
sg13
Nsg28
Nsg29
S'Belgium'
p1416
sg31
Nsba(i__main__
Player
p1417
(dp1418
g17
(dp1419
g19
Nsg20
I86
sg21
I65
sg22
Nsg23
Nsg24
Nsg25
Nssg6
S'T. Alderweireld'
p1420
sg27
I28
sg13
Nsg28
Nsg29
S'Belgium'
p1421
sg31
Nsba(i__main__
Player
p1422
(dp1423
g17
(dp1424
g19
Nsg20
I86
sg21
I90
sg22
Nsg23
Nsg24
Nsg25
Nssg6
S'D. Mertens'
p1425
sg27
I30
sg13
Nsg28
Nsg29
S'Belgium'
p1426
sg31
Nsba(i__main__
Player
p1427
(dp1428
g17
(dp1429
g19
Nsg20
I85
sg21
I88
sg22
Nsg23
Nsg24
Nsg25
Nssg6
S'Y. Carrasco'
p1430
sg27
I23
sg13
Nsg28
Nsg29
S'Belgium'
p1431
sg31
Nsba(i__main__
Player
p1432
(dp1433
g17
(dp1434
g19
Nsg20
I85
sg21
I67
sg22
Nsg23
Nsg24
Nsg25
Nssg6
S'J. Vertonghen'
p1435
sg27
I30
sg13
Nsg28
Nsg29
S'Belgium'
p1436
sg31
Nsba(i__main__
Player
p1437
(dp1438
g17
(dp1439
g19
Nsg20
I85
sg21
I62
sg22
Nsg23
Nsg24
Nsg25
Nssg6
S'V. Kompany'
p1440
sg27
I31
sg13
Nsg28
Nsg29
S'Belgium'
p1441
sg31
Nsba(i__main__
Player
p1442
(dp1443
g17
(dp1444
g19
Nsg20
I83
sg21
I76
sg22
Nsg23
Nsg24
Nsg25
Nssg6
S'M. Demb\xc3\xa9l\xc3\xa9'
p1445
sg27
I29
sg13
Nsg28
Nsg29
S'Belgium'
p1446
sg31
Nsba(i__main__
Player
p1447
(dp1448
g17
(dp1449
g19
Nsg20
I82
sg21
I70
sg22
Nsg23
Nsg24
Nsg25
Nssg6
S'A. Witsel'
p1450
sg27
I28
sg13
Nsg28
Nsg29
S'Belgium'
p1451
sg31
Nsbasg82
I79
sg83
(lp1452
(i__main__
Player
p1453
(dp1454
g17
(dp1455
g19
Nsg20
I81
sg21
I76
sg22
Nsg23
Nsg24
Nsg25
Nssg6
S'T. Meunier'
p1456
sg27
I25
sg13
Nsg28
Nsg29
S'Belgium'
p1457
sg31
Nsba(i__main__
Player
p1458
(dp1459
g17
(dp1460
g19
Nsg20
I81
sg21
I55
sg22
Nsg23
Nsg24
Nsg25
Nssg6
S'S. Mignolet'
p1461
sg27
I29
sg13
Nsg28
Nsg29
S'Belgium'
p1462
sg31
Nsba(i__main__
Player
p1463
(dp1464
g17
(dp1465
g19
Nsg20
I80
sg21
I52
sg22
Nsg23
Nsg24
Nsg25
Nssg6
S'Y. Tielemans'
p1466
sg27
I20
sg13
Nsg28
Nsg29
S'Belgium'
p1467
sg31
Nsba(i__main__
Player
p1468
(dp1469
g17
(dp1470
g19
Nsg20
I80
sg21
I78
sg22
Nsg23
Nsg24
Nsg25
Nssg6
S'M. Batshuayi'
p1471
sg27
I23
sg13
Nsg28
Nsg29
S'Belgium'
p1472
sg31
Nsba(i__main__
Player
p1473
(dp1474
g17
(dp1475
g19
Nsg20
I80
sg21
I81
sg22
Nsg23
Nsg24
Nsg25
Nssg6
S'T. Hazard'
p1476
sg27
I24
sg13
Nsg28
Nsg29
S'Belgium'
p1477
sg31
Nsba(i__main__
Player
p1478
(dp1479
g17
(dp1480
g19
Nsg20
I79
sg21
I68
sg22
Nsg23
Nsg24
Nsg25
Nssg6
S'L. Dendoncker'
p1481
sg27
I22
sg13
Nsg28
Nsg29
S'Belgium'
p1482
sg31
Nsba(i__main__
Player
p1483
(dp1484
g17
(dp1485
g19
Nsg20
I79
sg21
I50
sg22
Nsg23
Nsg24
Nsg25
Nssg6
S'M. Fellaini'
p1486
sg27
I29
sg13
Nsg28
Nsg29
S'Belgium'
p1487
sg31
Nsba(i__main__
Player
p1488
(dp1489
g17
(dp1490
g19
Nsg20
I78
sg21
I76
sg22
Nsg23
Nsg24
Nsg25
Nssg6
S'N. Chadli'
p1491
sg27
I27
sg13
Nsg28
Nsg29
S'Belgium'
p1492
sg31
Nsba(i__main__
Player
p1493
(dp1494
g17
(dp1495
g19
Nsg20
I78
sg21
I68
sg22
Nsg23
Nsg24
Nsg25
Nssg6
S'T. Vermaelen'
p1496
sg27
I31
sg13
Nsg28
Nsg29
S'Belgium'
p1497
sg31
Nsba(i__main__
Player
p1498
(dp1499
g17
(dp1500
g19
Nsg20
I78
sg21
I45
sg22
Nsg23
Nsg24
Nsg25
Nssg6
S'K. Casteels'
p1501
sg27
I25
sg13
Nsg28
Nsg29
S'Belgium'
p1502
sg31
Nsba(i__main__
Player
p1503
(dp1504
g17
(dp1505
g19
Nsg20
I77
sg21
I89
sg22
Nsg23
Nsg24
Nsg25
Nssg6
S'J. Lukaku'
p1506
sg27
I22
sg13
Nsg28
Nsg29
S'Belgium'
p1507
sg31
Nsba(i__main__
Player
p1508
(dp1509
g17
(dp1510
g19
Nsg20
I77
sg21
I79
sg22
Nsg23
Nsg24
Nsg25
Nssg6
S'A. Januzaj'
p1511
sg27
I22
sg13
Nsg28
Nsg29
S'Belgium'
p1512
sg31
Nsbasg145
I2
sg146
F9.0
sba(i__main__
Team
p1513
(dp1514
g3
Nsg4
I61838
sg5
I64
sg6
S'Panama'
p1515
sg8
F-867.38162
sg9
I67
sg10
I1
sg11
I56
sg12
I3
sg13
(lp1516
(i__main__
Player
p1517
(dp1518
g17
(dp1519
g19
Nsg20
I71
sg21
I63
sg22
Nsg23
Nsg24
Nsg25
Nssg6
S'A. Machado'
p1520
sg27
I32
sg13
Nsg28
Nsg29
S'Panama'
p1521
sg31
Nsba(i__main__
Player
p1522
(dp1523
g17
(dp1524
g19
Nsg20
I71
sg21
I48
sg22
Nsg23
Nsg24
Nsg25
Nssg6
S'A. Godoy'
p1525
sg27
I27
sg13
Nsg28
Nsg29
S'Panama'
p1526
sg31
Nsba(i__main__
Player
p1527
(dp1528
g17
(dp1529
g19
Nsg20
I70
sg21
I65
sg22
Nsg23
Nsg24
Nsg25
Nssg6
S'G. G\xc3\xb3mez'
p1530
sg27
I33
sg13
Nsg28
Nsg29
S'Panama'
p1531
sg31
Nsba(i__main__
Player
p1532
(dp1533
g17
(dp1534
g19
Nsg20
I70
sg21
I32
sg22
Nsg23
Nsg24
Nsg25
Nssg6
S'R. Torres'
p1535
sg27
I31
sg13
Nsg28
Nsg29
S'Panama'
p1536
sg31
Nsba(i__main__
Player
p1537
(dp1538
g17
(dp1539
g19
Nsg20
I68
sg21
I77
sg22
Nsg23
Nsg24
Nsg25
Nssg6
S'G. Torres'
p1540
sg27
I28
sg13
Nsg28
Nsg29
S'Panama'
p1541
sg31
Nsba(i__main__
Player
p1542
(dp1543
g17
(dp1544
g19
Nsg20
I67
sg21
I78
sg22
Nsg23
Nsg24
Nsg25
Nssg6
S'A. Cooper'
p1545
sg27
I29
sg13
Nsg28
Nsg29
S'Panama'
p1546
sg31
Nsba(i__main__
Player
p1547
(dp1548
g17
(dp1549
g19
Nsg20
I66
sg21
I58
sg22
Nsg23
Nsg24
Nsg25
Nssg6
S'H. Cummings'
p1550
sg27
I25
sg13
Nsg28
Nsg29
S'Panama'
p1551
sg31
Nsba(i__main__
Player
p1552
(dp1553
g17
(dp1554
g19
Nsg20
I66
sg21
I64
sg22
Nsg23
Nsg24
Nsg25
Nssg6
g758
sg27
I27
sg13
Nsg28
Nsg29
g1515
sg31
Nsba(i__main__
Player
p1555
(dp1556
g17
(dp1557
g19
Nsg20
I66
sg21
I64
sg22
Nsg23
Nsg24
Nsg25
Nssg6
g758
sg27
I27
sg13
Nsg28
Nsg29
g1515
sg31
Nsba(i__main__
Player
p1558
(dp1559
g17
(dp1560
g19
Nsg20
I66
sg21
I64
sg22
Nsg23
Nsg24
Nsg25
Nssg6
g758
sg27
I27
sg13
Nsg28
Nsg29
g1515
sg31
Nsba(i__main__
Player
p1561
(dp1562
g17
(dp1563
g19
Nsg20
I66
sg21
I64
sg22
Nsg23
Nsg24
Nsg25
Nssg6
g758
sg27
I27
sg13
Nsg28
Nsg29
g1515
sg31
Nsbasg82
I65
sg83
(lp1564
(i__main__
Player
p1565
(dp1566
g17
(dp1567
g19
Nsg20
I66
sg21
I64
sg22
Nsg23
Nsg24
Nsg25
Nssg6
g758
sg27
I27
sg13
Nsg28
Nsg29
g1515
sg31
Nsba(i__main__
Player
p1568
(dp1569
g17
(dp1570
g19
Nsg20
I66
sg21
I64
sg22
Nsg23
Nsg24
Nsg25
Nssg6
g758
sg27
I27
sg13
Nsg28
Nsg29
g1515
sg31
Nsba(i__main__
Player
p1571
(dp1572
g17
(dp1573
g19
Nsg20
I66
sg21
I64
sg22
Nsg23
Nsg24
Nsg25
Nssg6
g758
sg27
I27
sg13
Nsg28
Nsg29
g1515
sg31
Nsba(i__main__
Player
p1574
(dp1575
g17
(dp1576
g19
Nsg20
I66
sg21
I64
sg22
Nsg23
Nsg24
Nsg25
Nssg6
g758
sg27
I27
sg13
Nsg28
Nsg29
g1515
sg31
Nsba(i__main__
Player
p1577
(dp1578
g17
(dp1579
g19
Nsg20
I66
sg21
I64
sg22
Nsg23
Nsg24
Nsg25
Nssg6
g758
sg27
I27
sg13
Nsg28
Nsg29
g1515
sg31
Nsba(i__main__
Player
p1580
(dp1581
g17
(dp1582
g19
Nsg20
I66
sg21
I64
sg22
Nsg23
Nsg24
Nsg25
Nssg6
g758
sg27
I27
sg13
Nsg28
Nsg29
g1515
sg31
Nsba(i__main__
Player
p1583
(dp1584
g17
(dp1585
g19
Nsg20
I66
sg21
I64
sg22
Nsg23
Nsg24
Nsg25
Nssg6
g758
sg27
I27
sg13
Nsg28
Nsg29
g1515
sg31
Nsba(i__main__
Player
p1586
(dp1587
g17
(dp1588
g19
Nsg20
I66
sg21
I64
sg22
Nsg23
Nsg24
Nsg25
Nssg6
g758
sg27
I27
sg13
Nsg28
Nsg29
g1515
sg31
Nsba(i__main__
Player
p1589
(dp1590
g17
(dp1591
g19
Nsg20
I66
sg21
I64
sg22
Nsg23
Nsg24
Nsg25
Nssg6
g758
sg27
I27
sg13
Nsg28
Nsg29
g1515
sg31
Nsba(i__main__
Player
p1592
(dp1593
g17
(dp1594
g19
Nsg20
I65
sg21
I76
sg22
Nsg23
Nsg24
Nsg25
Nssg6
S'F. Escobar'
p1595
sg27
I22
sg13
Nsg28
Nsg29
S'Panama'
p1596
sg31
Nsba(i__main__
Player
p1597
(dp1598
g17
(dp1599
g19
Nsg20
I64
sg21
I78
sg22
Nsg23
Nsg24
Nsg25
Nssg6
S'M. Murillo'
p1600
sg27
I21
sg13
Nsg28
Nsg29
S'Panama'
p1601
sg31
Nsba(i__main__
Player
p1602
(dp1603
g17
(dp1604
g19
Nsg20
I57
sg21
I69
sg22
Nsg23
Nsg24
Nsg25
Nssg6
S'L. Ovalle'
p1605
sg27
I28
sg13
Nsg28
Nsg29
S'Panama'
p1606
sg31
Nsbasg145
I2
sg146
F1000.0
sba(i__main__
Team
p1607
(dp1608
g3
Nsg4
I2622434
sg5
I71
sg6
S'England'
p1609
sg8
F170.22434
sg9
I81
sg10
I1
sg11
I15
sg12
I3
sg13
(lp1610
(i__main__
Player
p1611
(dp1612
g17
(dp1613
g19
Nsg20
I84
sg21
I76
sg22
Nsg23
Nsg24
Nsg25
Nssg6
S'D. Alli'
p1614
sg27
I21
sg13
Nsg28
Nsg29
S'England'
p1615
sg31
Nsba(i__main__
Player
p1616
(dp1617
g17
(dp1618
g19
Nsg20
I84
sg21
I62
sg22
Nsg23
Nsg24
Nsg25
Nssg6
S'G. Cahill'
p1619
sg27
I31
sg13
Nsg28
Nsg29
S'England'
p1620
sg31
Nsba(i__main__
Player
p1621
(dp1622
g17
(dp1623
g19
Nsg20
I83
sg21
I89
sg22
Nsg23
Nsg24
Nsg25
Nssg6
S'K. Walker'
p1624
sg27
I27
sg13
Nsg28
Nsg29
S'England'
p1625
sg31
Nsba(i__main__
Player
p1626
(dp1627
g17
(dp1628
g19
Nsg20
I82
sg21
I93
sg22
Nsg23
Nsg24
Nsg25
Nssg6
S'R. Sterling'
p1629
sg27
I22
sg13
Nsg28
Nsg29
S'England'
p1630
sg31
Nsba(i__main__
Player
p1631
(dp1632
g17
(dp1633
g19
Nsg20
I82
sg21
I72
sg22
Nsg23
Nsg24
Nsg25
Nssg6
S'E. Dier'
p1634
sg27
I23
sg13
Nsg28
Nsg29
S'England'
p1635
sg31
Nsba(i__main__
Player
p1636
(dp1637
g17
(dp1638
g19
Nsg20
I82
sg21
I72
sg22
Nsg23
Nsg24
Nsg25
Nssg6
S'J. Henderson'
p1639
sg27
I27
sg13
Nsg28
Nsg29
S'England'
p1640
sg31
Nsba(i__main__
Player
p1641
(dp1642
g17
(dp1643
g19
Nsg20
I82
sg21
I80
sg22
Nsg23
Nsg24
Nsg25
Nssg6
S'D. Rose'
p1644
sg27
I26
sg13
Nsg28
Nsg29
S'England'
p1645
sg31
Nsba(i__main__
Player
p1646
(dp1647
g17
(dp1648
g19
Nsg20
I81
sg21
I91
sg22
Nsg23
Nsg24
Nsg25
Nssg6
S'J. Vardy'
p1649
sg27
I30
sg13
Nsg28
Nsg29
S'England'
p1650
sg31
Nsba(i__main__
Player
p1651
(dp1652
g17
(dp1653
g19
Nsg20
I81
sg21
I40
sg22
Nsg23
Nsg24
Nsg25
Nssg6
S'J. Butland'
p1654
sg27
I24
sg13
Nsg28
Nsg29
S'England'
p1655
sg31
Nsba(i__main__
Player
p1656
(dp1657
g17
(dp1658
g19
Nsg20
I80
sg21
I92
sg22
Nsg23
Nsg24
Nsg25
Nssg6
S'M. Rashford'
p1659
sg27
I19
sg13
Nsg28
Nsg29
S'England'
p1660
sg31
Nsba(i__main__
Player
p1661
(dp1662
g17
(dp1663
g19
Nsg20
I80
sg21
I83
sg22
Nsg23
Nsg24
Nsg25
Nssg6
S'D. Welbeck'
p1664
sg27
I26
sg13
Nsg28
Nsg29
S'England'
p1665
sg31
Nsbasg82
I75
sg83
(lp1666
(i__main__
Player
p1667
(dp1668
g17
(dp1669
g19
Nsg20
I79
sg21
I71
sg22
Nsg23
Nsg24
Nsg25
Nssg6
S'J. Stones'
p1670
sg27
I23
sg13
Nsg28
Nsg29
S'England'
p1671
sg31
Nsba(i__main__
Player
p1672
(dp1673
g17
(dp1674
g19
Nsg20
I79
sg21
I57
sg22
Nsg23
Nsg24
Nsg25
Nssg6
S'P. Jones'
p1675
sg27
I25
sg13
Nsg28
Nsg29
S'England'
p1676
sg31
Nsba(i__main__
Player
p1677
(dp1678
g17
(dp1679
g19
Nsg20
I78
sg21
I83
sg22
Nsg23
Nsg24
Nsg25
Nssg6
S'J. Lingard'
p1680
sg27
I24
sg13
Nsg28
Nsg29
S'England'
p1681
sg31
Nsba(i__main__
Player
p1682
(dp1683
g17
(dp1684
g19
Nsg20
I78
sg21
I83
sg22
Nsg23
Nsg24
Nsg25
Nssg6
S'J. Lingard'
p1685
sg27
I24
sg13
Nsg28
Nsg29
S'England'
p1686
sg31
Nsba(i__main__
Player
p1687
(dp1688
g17
(dp1689
g19
Nsg20
I78
sg21
I77
sg22
Nsg23
Nsg24
Nsg25
Nssg6
S'K. Trippier'
p1690
sg27
I26
sg13
Nsg28
Nsg29
S'England'
p1691
sg31
Nsba(i__main__
Player
p1692
(dp1693
g17
(dp1694
g19
Nsg20
I77
sg21
I74
sg22
Nsg23
Nsg24
Nsg25
Nssg6
S'F. Delph'
p1695
sg27
I27
sg13
Nsg28
Nsg29
S'England'
p1696
sg31
Nsba(i__main__
Player
p1697
(dp1698
g17
(dp1699
g19
Nsg20
I77
sg21
I44
sg22
Nsg23
Nsg24
Nsg25
Nssg6
S'J. Pickford'
p1700
sg27
I23
sg13
Nsg28
Nsg29
S'England'
p1701
sg31
Nsba(i__main__
Player
p1702
(dp1703
g17
(dp1704
g19
Nsg20
I77
sg21
I45
sg22
Nsg23
Nsg24
Nsg25
Nssg6
S'H. Maguire'
p1705
sg27
I24
sg13
Nsg28
Nsg29
S'England'
p1706
sg31
Nsba(i__main__
Player
p1707
(dp1708
g17
(dp1709
g19
Nsg20
I75
sg21
I77
sg22
Nsg23
Nsg24
Nsg25
Nssg6
S'A. Young'
p1710
sg27
I31
sg13
Nsg28
Nsg29
S'England'
p1711
sg31
Nsba(i__main__
Player
p1712
(dp1713
g17
(dp1714
g19
Nsg20
I71
sg21
I63
sg22
Nsg23
Nsg24
Nsg25
Nssg6
S'D. Jones'
p1715
sg27
I32
sg13
Nsg28
Nsg29
S'England'
p1716
sg31
Nsba(i__main__
Player
p1717
(dp1718
g17
(dp1719
g19
Nsg20
I71
sg21
I64
sg22
Nsg23
Nsg24
Nsg25
Nssg6
S'B. Jones'
p1720
sg27
I30
sg13
Nsg28
Nsg29
S'England'
p1721
sg31
Nsba(i__main__
Player
p1722
(dp1723
g17
(dp1724
g19
Nsg20
I70
sg21
I67
sg22
Nsg23
Nsg24
Nsg25
Nssg6
S'R. Loftus-Cheek'
p1725
sg27
I21
sg13
Nsg28
Nsg29
S'England'
p1726
sg31
Nsbasg145
I2
sg146
F12.0
sba(i__main__
Team
p1727
(dp1728
g3
Nsg4
I40257
sg5
I64
sg6
S'Tunisia'
p1729
sg8
F-862.59743
sg9
I70
sg10
I1
sg11
I27
sg12
I3
sg13
(lp1730
(i__main__
Player
p1731
(dp1732
g17
(dp1733
g19
Nsg20
I75
sg21
I64
sg22
Nsg23
Nsg24
Nsg25
Nssg6
S'Y. Benalouane'
p1734
sg27
I30
sg13
Nsg28
Nsg29
S'Tunisia'
p1735
sg31
Nsba(i__main__
Player
p1736
(dp1737
g17
(dp1738
g19
Nsg20
I74
sg21
I67
sg22
Nsg23
Nsg24
Nsg25
Nssg6
S'E. Skhiri'
p1739
sg27
I22
sg13
Nsg28
Nsg29
S'Tunisia'
p1740
sg31
Nsba(i__main__
Player
p1741
(dp1742
g17
(dp1743
g19
Nsg20
I72
sg21
I63
sg22
Nsg23
Nsg24
Nsg25
Nssg6
S'S. Ben Youssef'
p1744
sg27
I28
sg13
Nsg28
Nsg29
S'Tunisia'
p1745
sg31
Nsba(i__main__
Player
p1746
(dp1747
g17
(dp1748
g19
Nsg20
I72
sg21
I74
sg22
Nsg23
Nsg24
Nsg25
Nssg6
S'N. Sliti'
p1749
sg27
I24
sg13
Nsg28
Nsg29
S'Tunisia'
p1750
sg31
Nsba(i__main__
Player
p1751
(dp1752
g17
(dp1753
g19
Nsg20
I69
sg21
I64
sg22
Nsg23
Nsg24
Nsg25
Nssg6
g758
sg27
I24
sg13
Nsg28
Nsg29
g1729
sg31
Nsba(i__main__
Player
p1754
(dp1755
g17
(dp1756
g19
Nsg20
I69
sg21
I64
sg22
Nsg23
Nsg24
Nsg25
Nssg6
g758
sg27
I24
sg13
Nsg28
Nsg29
g1729
sg31
Nsba(i__main__
Player
p1757
(dp1758
g17
(dp1759
g19
Nsg20
I69
sg21
I64
sg22
Nsg23
Nsg24
Nsg25
Nssg6
g758
sg27
I24
sg13
Nsg28
Nsg29
g1729
sg31
Nsba(i__main__
Player
p1760
(dp1761
g17
(dp1762
g19
Nsg20
I69
sg21
I64
sg22
Nsg23
Nsg24
Nsg25
Nssg6
g758
sg27
I24
sg13
Nsg28
Nsg29
g1729
sg31
Nsba(i__main__
Player
p1763
(dp1764
g17
(dp1765
g19
Nsg20
I69
sg21
I64
sg22
Nsg23
Nsg24
Nsg25
Nssg6
g758
sg27
I24
sg13
Nsg28
Nsg29
g1729
sg31
Nsba(i__main__
Player
p1766
(dp1767
g17
(dp1768
g19
Nsg20
I69
sg21
I64
sg22
Nsg23
Nsg24
Nsg25
Nssg6
g758
sg27
I24
sg13
Nsg28
Nsg29
g1729
sg31
Nsba(i__main__
Player
p1769
(dp1770
g17
(dp1771
g19
Nsg20
I69
sg21
I64
sg22
Nsg23
Nsg24
Nsg25
Nssg6
g758
sg27
I24
sg13
Nsg28
Nsg29
g1729
sg31
Nsbasg82
I67
sg83
(lp1772
(i__main__
Player
p1773
(dp1774
g17
(dp1775
g19
Nsg20
I69
sg21
I64
sg22
Nsg23
Nsg24
Nsg25
Nssg6
g758
sg27
I24
sg13
Nsg28
Nsg29
g1729
sg31
Nsba(i__main__
Player
p1776
(dp1777
g17
(dp1778
g19
Nsg20
I69
sg21
I64
sg22
Nsg23
Nsg24
Nsg25
Nssg6
g758
sg27
I24
sg13
Nsg28
Nsg29
g1729
sg31
Nsba(i__main__
Player
p1779
(dp1780
g17
(dp1781
g19
Nsg20
I69
sg21
I64
sg22
Nsg23
Nsg24
Nsg25
Nssg6
g758
sg27
I24
sg13
Nsg28
Nsg29
g1729
sg31
Nsba(i__main__
Player
p1782
(dp1783
g17
(dp1784
g19
Nsg20
I69
sg21
I64
sg22
Nsg23
Nsg24
Nsg25
Nssg6
g758
sg27
I24
sg13
Nsg28
Nsg29
g1729
sg31
Nsba(i__main__
Player
p1785
(dp1786
g17
(dp1787
g19
Nsg20
I69
sg21
I64
sg22
Nsg23
Nsg24
Nsg25
Nssg6
g758
sg27
I24
sg13
Nsg28
Nsg29
g1729
sg31
Nsba(i__main__
Player
p1788
(dp1789
g17
(dp1790
g19
Nsg20
I69
sg21
I64
sg22
Nsg23
Nsg24
Nsg25
Nssg6
g758
sg27
I24
sg13
Nsg28
Nsg29
g1729
sg31
Nsba(i__main__
Player
p1791
(dp1792
g17
(dp1793
g19
Nsg20
I69
sg21
I64
sg22
Nsg23
Nsg24
Nsg25
Nssg6
g758
sg27
I24
sg13
Nsg28
Nsg29
g1729
sg31
Nsba(i__main__
Player
p1794
(dp1795
g17
(dp1796
g19
Nsg20
I69
sg21
I64
sg22
Nsg23
Nsg24
Nsg25
Nssg6
g758
sg27
I24
sg13
Nsg28
Nsg29
g1729
sg31
Nsba(i__main__
Player
p1797
(dp1798
g17
(dp1799
g19
Nsg20
I68
sg21
I75
sg22
Nsg23
Nsg24
Nsg25
Nssg6
S'B. Srarfi'
p1800
sg27
I20
sg13
Nsg28
Nsg29
S'Tunisia'
p1801
sg31
Nsba(i__main__
Player
p1802
(dp1803
g17
(dp1804
g19
Nsg20
I66
sg21
I60
sg22
Nsg23
Nsg24
Nsg25
Nssg6
S'O. Haddadi'
p1805
sg27
I25
sg13
Nsg28
Nsg29
S'Tunisia'
p1806
sg31
Nsba(i__main__
Player
p1807
(dp1808
g17
(dp1809
g19
Nsg20
I65
sg21
I63
sg22
Nsg23
Nsg24
Nsg25
Nssg6
S'D. Bronn'
p1810
sg27
I22
sg13
Nsg28
Nsg29
S'Tunisia'
p1811
sg31
Nsba(i__main__
Player
p1812
(dp1813
g17
(dp1814
g19
Nsg20
I63
sg21
I47
sg22
Nsg23
Nsg24
Nsg25
Nssg6
S'F. Ben Mustapha'
p1815
sg27
I28
sg13
Nsg28
Nsg29
S'Tunisia'
p1816
sg31
Nsbasg145
I2
sg146
F1000.0
sba(i__main__
Team
p1817
(dp1818
g3
Nsg4
I57057
sg5
I70
sg6
S'Costa Rica'
p1819
sg8
F-605.42943
sg9
I74
sg10
I1
sg11
I26
sg12
I3
sg13
(lp1820
(i__main__
Player
p1821
(dp1822
g17
(dp1823
g19
Nsg20
I85
sg21
I53
sg22
Nsg23
Nsg24
Nsg25
Nssg6
S'K. Navas'
p1824
sg27
I30
sg13
Nsg28
Nsg29
S'Costa Rica'
p1825
sg31
Nsba(i__main__
Player
p1826
(dp1827
g17
(dp1828
g19
Nsg20
I77
sg21
I64
sg22
Nsg23
Nsg24
Nsg25
Nssg6
S'O. Duarte'
p1829
sg27
I28
sg13
Nsg28
Nsg29
S'Costa Rica'
p1830
sg31
Nsba(i__main__
Player
p1831
(dp1832
g17
(dp1833
g19
Nsg20
I77
sg21
I85
sg22
Nsg23
Nsg24
Nsg25
Nssg6
S'J. Campbell'
p1834
sg27
I25
sg13
Nsg28
Nsg29
S'Costa Rica'
p1835
sg31
Nsba(i__main__
Player
p1836
(dp1837
g17
(dp1838
g19
Nsg20
I75
sg21
I71
sg22
Nsg23
Nsg24
Nsg25
Nssg6
S'G. Gonz\xc3\xa1lez'
p1839
sg27
I29
sg13
Nsg28
Nsg29
S'Costa Rica'
p1840
sg31
Nsba(i__main__
Player
p1841
(dp1842
g17
(dp1843
g19
Nsg20
I74
sg21
I54
sg22
Nsg23
Nsg24
Nsg25
Nssg6
S'K. Waston'
p1844
sg27
I29
sg13
Nsg28
Nsg29
S'Costa Rica'
p1845
sg31
Nsba(i__main__
Player
p1846
(dp1847
g17
(dp1848
g19
Nsg20
I72
sg21
I88
sg22
Nsg23
Nsg24
Nsg25
Nssg6
S'C. Gamboa'
p1849
sg27
I27
sg13
Nsg28
Nsg29
S'Costa Rica'
p1850
sg31
Nsba(i__main__
Player
p1851
(dp1852
g17
(dp1853
g19
Nsg20
I72
sg21
I75
sg22
Nsg23
Nsg24
Nsg25
Nssg6
S'B. Oviedo'
p1854
sg27
I27
sg13
Nsg28
Nsg29
S'Costa Rica'
p1855
sg31
Nsba(i__main__
Player
p1856
(dp1857
g17
(dp1858
g19
Nsg20
I72
sg21
I70
sg22
Nsg23
Nsg24
Nsg25
Nssg6
g758
sg27
I27
sg13
Nsg28
Nsg29
g1819
sg31
Nsba(i__main__
Player
p1859
(dp1860
g17
(dp1861
g19
Nsg20
I72
sg21
I70
sg22
Nsg23
Nsg24
Nsg25
Nssg6
g758
sg27
I27
sg13
Nsg28
Nsg29
g1819
sg31
Nsba(i__main__
Player
p1862
(dp1863
g17
(dp1864
g19
Nsg20
I72
sg21
I70
sg22
Nsg23
Nsg24
Nsg25
Nssg6
g758
sg27
I27
sg13
Nsg28
Nsg29
g1819
sg31
Nsba(i__main__
Player
p1865
(dp1866
g17
(dp1867
g19
Nsg20
I72
sg21
I70
sg22
Nsg23
Nsg24
Nsg25
Nssg6
g758
sg27
I27
sg13
Nsg28
Nsg29
g1819
sg31
Nsbasg82
I70
sg83
(lp1868
(i__main__
Player
p1869
(dp1870
g17
(dp1871
g19
Nsg20
I72
sg21
I70
sg22
Nsg23
Nsg24
Nsg25
Nssg6
g758
sg27
I27
sg13
Nsg28
Nsg29
g1819
sg31
Nsba(i__main__
Player
p1872
(dp1873
g17
(dp1874
g19
Nsg20
I72
sg21
I70
sg22
Nsg23
Nsg24
Nsg25
Nssg6
g758
sg27
I27
sg13
Nsg28
Nsg29
g1819
sg31
Nsba(i__main__
Player
p1875
(dp1876
g17
(dp1877
g19
Nsg20
I72
sg21
I70
sg22
Nsg23
Nsg24
Nsg25
Nssg6
g758
sg27
I27
sg13
Nsg28
Nsg29
g1819
sg31
Nsba(i__main__
Player
p1878
(dp1879
g17
(dp1880
g19
Nsg20
I72
sg21
I70
sg22
Nsg23
Nsg24
Nsg25
Nssg6
g758
sg27
I27
sg13
Nsg28
Nsg29
g1819
sg31
Nsba(i__main__
Player
p1881
(dp1882
g17
(dp1883
g19
Nsg20
I72
sg21
I70
sg22
Nsg23
Nsg24
Nsg25
Nssg6
g758
sg27
I27
sg13
Nsg28
Nsg29
g1819
sg31
Nsba(i__main__
Player
p1884
(dp1885
g17
(dp1886
g19
Nsg20
I71
sg21
I58
sg22
Nsg23
Nsg24
Nsg25
Nssg6
S'B. Acosta'
p1887
sg27
I30
sg13
Nsg28
Nsg29
S'Costa Rica'
p1888
sg31
Nsba(i__main__
Player
p1889
(dp1890
g17
(dp1891
g19
Nsg20
I71
sg21
I68
sg22
Nsg23
Nsg24
Nsg25
Nssg6
S'F. Calvo'
p1892
sg27
I24
sg13
Nsg28
Nsg29
S'Costa Rica'
p1893
sg31
Nsba(i__main__
Player
p1894
(dp1895
g17
(dp1896
g19
Nsg20
I71
sg21
I69
sg22
Nsg23
Nsg24
Nsg25
Nssg6
S'C. Bola\xc3\xb1os'
p1897
sg27
I33
sg13
Nsg28
Nsg29
S'Costa Rica'
p1898
sg31
Nsba(i__main__
Player
p1899
(dp1900
g17
(dp1901
g19
Nsg20
I68
sg21
I66
sg22
Nsg23
Nsg24
Nsg25
Nssg6
S'Y. Tejeda'
p1902
sg27
I25
sg13
Nsg28
Nsg29
S'Costa Rica'
p1903
sg31
Nsba(i__main__
Player
p1904
(dp1905
g17
(dp1906
g19
Nsg20
I68
sg21
I77
sg22
Nsg23
Nsg24
Nsg25
Nssg6
S'R. Wallace'
p1907
sg27
I29
sg13
Nsg28
Nsg29
S'Costa Rica'
p1908
sg31
Nsba(i__main__
Player
p1909
(dp1910
g17
(dp1911
g19
Nsg20
I68
sg21
I82
sg22
Nsg23
Nsg24
Nsg25
Nssg6
S'M. Ure\xc3\xb1a'
p1912
sg27
I27
sg13
Nsg28
Nsg29
S'Costa Rica'
p1913
sg31
Nsba(i__main__
Player
p1914
(dp1915
g17
(dp1916
g19
Nsg20
I67
sg21
I72
sg22
Nsg23
Nsg24
Nsg25
Nssg6
S'J. Venegas'
p1917
sg27
I28
sg13
Nsg28
Nsg29
S'Costa Rica'
p1918
sg31
Nsbasg145
I2
sg146
F750.0
sba(i__main__
Team
p1919
(dp1920
g3
Nsg4
I2582501
sg5
I74
sg6
S'France'
p1921
sg8
F179.82501
sg9
I84
sg10
I1
sg11
I9
sg12
I3
sg13
(lp1922
(i__main__
Player
p1923
(dp1924
g17
(dp1925
g19
Nsg20
I88
sg21
I86
sg22
Nsg23
Nsg24
Nsg25
Nssg6
S'A. Griezmann'
p1926
sg27
I26
sg13
Nsg28
Nsg29
S'France'
p1927
sg31
Nsba(i__main__
Player
p1928
(dp1929
g17
(dp1930
g19
Nsg20
I87
sg21
I81
sg22
Nsg23
Nsg24
Nsg25
Nssg6
S'N. Kant\xc3\xa9'
p1931
sg27
I26
sg13
Nsg28
Nsg29
S'France'
p1932
sg31
Nsba(i__main__
Player
p1933
(dp1934
g17
(dp1935
g19
Nsg20
I87
sg21
I74
sg22
Nsg23
Nsg24
Nsg25
Nssg6
S'P. Pogba'
p1936
sg27
I24
sg13
Nsg28
Nsg29
S'France'
p1937
sg31
Nsba(i__main__
Player
p1938
(dp1939
g17
(dp1940
g19
Nsg20
I85
sg21
I79
sg22
Nsg23
Nsg24
Nsg25
Nssg6
S'R. Varane'
p1941
sg27
I24
sg13
Nsg28
Nsg29
S'France'
p1942
sg31
Nsba(i__main__
Player
p1943
(dp1944
g17
(dp1945
g19
Nsg20
I85
sg21
I78
sg22
Nsg23
Nsg24
Nsg25
Nssg6
S'B. Matuidi'
p1946
sg27
I30
sg13
Nsg28
Nsg29
S'France'
p1947
sg31
Nsba(i__main__
Player
p1948
(dp1949
g17
(dp1950
g19
Nsg20
I83
sg21
I89
sg22
Nsg23
Nsg24
Nsg25
Nssg6
S'K. Mbapp\xc3\xa9'
p1951
sg27
I18
sg13
Nsg28
Nsg29
S'France'
p1952
sg31
Nsba(i__main__
Player
p1953
(dp1954
g17
(dp1955
g19
Nsg20
I83
sg21
I91
sg22
Nsg23
Nsg24
Nsg25
Nssg6
S'O. Demb\xc3\xa9l\xc3\xa9'
p1956
sg27
I20
sg13
Nsg28
Nsg29
S'France'
p1957
sg31
Nsba(i__main__
Player
p1958
(dp1959
g17
(dp1960
g19
Nsg20
I83
sg21
I85
sg22
Nsg23
Nsg24
Nsg25
Nssg6
S'T. Lemar'
p1961
sg27
I21
sg13
Nsg28
Nsg29
S'France'
p1962
sg31
Nsba(i__main__
Player
p1963
(dp1964
g17
(dp1965
g19
Nsg20
I83
sg21
I73
sg22
Nsg23
Nsg24
Nsg25
Nssg6
S'S. Umtiti'
p1966
sg27
I23
sg13
Nsg28
Nsg29
S'France'
p1967
sg31
Nsba(i__main__
Player
p1968
(dp1969
g17
(dp1970
g19
Nsg20
I82
sg21
I74
sg22
Nsg23
Nsg24
Nsg25
Nssg6
S'C. Tolisso'
p1971
sg27
I22
sg13
Nsg28
Nsg29
S'France'
p1972
sg31
Nsba(i__main__
Player
p1973
(dp1974
g17
(dp1975
g19
Nsg20
I82
sg21
I79
sg22
Nsg23
Nsg24
Nsg25
Nssg6
S'N. Fekir'
p1976
sg27
I23
sg13
Nsg28
Nsg29
S'France'
p1977
sg31
Nsbasg82
I78
sg83
(lp1978
(i__main__
Player
p1979
(dp1980
g17
(dp1981
g19
Nsg20
I82
sg21
I82
sg22
Nsg23
Nsg24
Nsg25
Nssg6
S'F. Thauvin'
p1982
sg27
I24
sg13
Nsg28
Nsg29
S'France'
p1983
sg31
Nsba(i__main__
Player
p1984
(dp1985
g17
(dp1986
g19
Nsg20
I82
sg21
I53
sg22
Nsg23
Nsg24
Nsg25
Nssg6
S'O. Giroud'
p1987
sg27
I30
sg13
Nsg28
Nsg29
S'France'
p1988
sg31
Nsba(i__main__
Player
p1989
(dp1990
g17
(dp1991
g19
Nsg20
I82
sg21
I48
sg22
Nsg23
Nsg24
Nsg25
Nssg6
S'S. Mandanda'
p1992
sg27
I32
sg13
Nsg28
Nsg29
S'France'
p1993
sg31
Nsba(i__main__
Player
p1994
(dp1995
g17
(dp1996
g19
Nsg20
I81
sg21
I53
sg22
Nsg23
Nsg24
Nsg25
Nssg6
S'A. Rami'
p1997
sg27
I31
sg13
Nsg28
Nsg29
S'France'
p1998
sg31
Nsba(i__main__
Player
p1999
(dp2000
g17
(dp2001
g19
Nsg20
I79
sg21
I80
sg22
Nsg23
Nsg24
Nsg25
Nssg6
S'D. Sidib\xc3\xa9'
p2002
sg27
I24
sg13
Nsg28
Nsg29
S'France'
p2003
sg31
Nsba(i__main__
Player
p2004
(dp2005
g17
(dp2006
g19
Nsg20
I79
sg21
I53
sg22
Nsg23
Nsg24
Nsg25
Nssg6
S'A. Areola'
p2007
sg27
I24
sg13
Nsg28
Nsg29
S'France'
p2008
sg31
Nsba(i__main__
Player
p2009
(dp2010
g17
(dp2011
g19
Nsg20
I78
sg21
I81
sg22
Nsg23
Nsg24
Nsg25
Nssg6
S'B. Mendy'
p2012
sg27
I22
sg13
Nsg28
Nsg29
S'France'
p2013
sg31
Nsba(i__main__
Player
p2014
(dp2015
g17
(dp2016
g19
Nsg20
I77
sg21
I69
sg22
Nsg23
Nsg24
Nsg25
Nssg6
S'P. Kimpembe'
p2017
sg27
I21
sg13
Nsg28
Nsg29
S'France'
p2018
sg31
Nsba(i__main__
Player
p2019
(dp2020
g17
(dp2021
g19
Nsg20
I77
sg21
I65
sg22
Nsg23
Nsg24
Nsg25
Nssg6
S'L. Hern\xc3\xa1ndez'
p2022
sg27
I21
sg13
Nsg28
Nsg29
S'France'
p2023
sg31
Nsba(i__main__
Player
p2024
(dp2025
g17
(dp2026
g19
Nsg20
I76
sg21
I71
sg22
Nsg23
Nsg24
Nsg25
Nssg6
S'N. Mendy'
p2027
sg27
I25
sg13
Nsg28
Nsg29
S'France'
p2028
sg31
Nsba(i__main__
Player
p2029
(dp2030
g17
(dp2031
g19
Nsg20
I75
sg21
I80
sg22
Nsg23
Nsg24
Nsg25
Nssg6
S'M. Demb\xc3\xa9l\xc3\xa9'
p2032
sg27
I20
sg13
Nsg28
Nsg29
S'France'
p2033
sg31
Nsba(i__main__
Player
p2034
(dp2035
g17
(dp2036
g19
Nsg20
I75
sg21
I83
sg22
Nsg23
Nsg24
Nsg25
Nssg6
S'T. Hern\xc3\xa1ndez'
p2037
sg27
I19
sg13
Nsg28
Nsg29
S'France'
p2038
sg31
Nsbasg145
I2
sg146
F8.0
sba(i__main__
Team
p2039
(dp2040
g3
Nsg4
I375771
sg5
I76
sg6
S'Nigeria'
p2041
sg8
F-602.24229
sg9
I74
sg10
I1
sg11
I50
sg12
I3
sg13
(lp2042
(i__main__
Player
p2043
(dp2044
g17
(dp2045
g19
Nsg20
I79
sg21
I83
sg22
Nsg23
Nsg24
Nsg25
Nssg6
S'V. Moses'
p2046
sg27
I26
sg13
Nsg28
Nsg29
S'Nigeria'
p2047
sg31
Nsba(i__main__
Player
p2048
(dp2049
g17
(dp2050
g19
Nsg20
I77
sg21
I73
sg22
Nsg23
Nsg24
Nsg25
Nssg6
S'O. Ndidi'
p2051
sg27
I20
sg13
Nsg28
Nsg29
S'Nigeria'
p2052
sg31
Nsba(i__main__
Player
p2053
(dp2054
g17
(dp2055
g19
Nsg20
I76
sg21
I93
sg22
Nsg23
Nsg24
Nsg25
Nssg6
S'A. Musa'
p2056
sg27
I24
sg13
Nsg28
Nsg29
S'Nigeria'
p2057
sg31
Nsba(i__main__
Player
p2058
(dp2059
g17
(dp2060
g19
Nsg20
I75
sg21
I70
sg22
Nsg23
Nsg24
Nsg25
Nssg6
S'L. Balogun'
p2061
sg27
I29
sg13
Nsg28
Nsg29
S'Nigeria'
p2062
sg31
Nsba(i__main__
Player
p2063
(dp2064
g17
(dp2065
g19
Nsg20
I75
sg21
I84
sg22
Nsg23
Nsg24
Nsg25
Nssg6
S'K. Iheanacho'
p2066
sg27
I20
sg13
Nsg28
Nsg29
S'Nigeria'
p2067
sg31
Nsba(i__main__
Player
p2068
(dp2069
g17
(dp2070
g19
Nsg20
I74
sg21
I78
sg22
Nsg23
Nsg24
Nsg25
Nssg6
S'A. Iwobi'
p2071
sg27
I21
sg13
Nsg28
Nsg29
S'Nigeria'
p2072
sg31
Nsba(i__main__
Player
p2073
(dp2074
g17
(dp2075
g19
Nsg20
I74
sg21
I80
sg22
Nsg23
Nsg24
Nsg25
Nssg6
S'O. Onazi'
p2076
sg27
I24
sg13
Nsg28
Nsg29
S'Nigeria'
p2077
sg31
Nsba(i__main__
Player
p2078
(dp2079
g17
(dp2080
g19
Nsg20
I73
sg21
I80
sg22
Nsg23
Nsg24
Nsg25
Nssg6
S'J. Obi'
p2081
sg27
I26
sg13
Nsg28
Nsg29
S'Nigeria'
p2082
sg31
Nsba(i__main__
Player
p2083
(dp2084
g17
(dp2085
g19
Nsg20
I73
sg21
I84
sg22
Nsg23
Nsg24
Nsg25
Nssg6
S'P. Etebo'
p2086
sg27
I21
sg13
Nsg28
Nsg29
S'Nigeria'
p2087
sg31
Nsba(i__main__
Player
p2088
(dp2089
g17
(dp2090
g19
Nsg20
I72
sg21
I71
sg22
Nsg23
Nsg24
Nsg25
Nssg6
S'K. Omeruo'
p2091
sg27
I23
sg13
Nsg28
Nsg29
S'Nigeria'
p2092
sg31
Nsba(i__main__
Player
p2093
(dp2094
g17
(dp2095
g19
Nsg20
I72
sg21
I76
sg22
Nsg23
Nsg24
Nsg25
Nssg6
g758
sg27
I22
sg13
Nsg28
Nsg29
g2041
sg31
Nsbasg82
I70
sg83
(lp2096
(i__main__
Player
p2097
(dp2098
g17
(dp2099
g19
Nsg20
I72
sg21
I76
sg22
Nsg23
Nsg24
Nsg25
Nssg6
g758
sg27
I22
sg13
Nsg28
Nsg29
g2041
sg31
Nsba(i__main__
Player
p2100
(dp2101
g17
(dp2102
g19
Nsg20
I72
sg21
I76
sg22
Nsg23
Nsg24
Nsg25
Nssg6
g758
sg27
I22
sg13
Nsg28
Nsg29
g2041
sg31
Nsba(i__main__
Player
p2103
(dp2104
g17
(dp2105
g19
Nsg20
I72
sg21
I76
sg22
Nsg23
Nsg24
Nsg25
Nssg6
g758
sg27
I22
sg13
Nsg28
Nsg29
g2041
sg31
Nsba(i__main__
Player
p2106
(dp2107
g17
(dp2108
g19
Nsg20
I72
sg21
I76
sg22
Nsg23
Nsg24
Nsg25
Nssg6
g758
sg27
I22
sg13
Nsg28
Nsg29
g2041
sg31
Nsba(i__main__
Player
p2109
(dp2110
g17
(dp2111
g19
Nsg20
I72
sg21
I76
sg22
Nsg23
Nsg24
Nsg25
Nssg6
g758
sg27
I22
sg13
Nsg28
Nsg29
g2041
sg31
Nsba(i__main__
Player
p2112
(dp2113
g17
(dp2114
g19
Nsg20
I72
sg21
I76
sg22
Nsg23
Nsg24
Nsg25
Nssg6
g758
sg27
I22
sg13
Nsg28
Nsg29
g2041
sg31
Nsba(i__main__
Player
p2115
(dp2116
g17
(dp2117
g19
Nsg20
I71
sg21
I69
sg22
Nsg23
Nsg24
Nsg25
Nssg6
S'W. Troost-Ekong'
p2118
sg27
I23
sg13
Nsg28
Nsg29
S'Nigeria'
p2119
sg31
Nsba(i__main__
Player
p2120
(dp2121
g17
(dp2122
g19
Nsg20
I71
sg21
I70
sg22
Nsg23
Nsg24
Nsg25
Nssg6
S'C. Awaziem'
p2123
sg27
I20
sg13
Nsg28
Nsg29
S'Nigeria'
p2124
sg31
Nsba(i__main__
Player
p2125
(dp2126
g17
(dp2127
g19
Nsg20
I71
sg21
I72
sg22
Nsg23
Nsg24
Nsg25
Nssg6
S'E. Echi\xc3\xa9jil\xc3\xa9'
p2128
sg27
I29
sg13
Nsg28
Nsg29
S'Nigeria'
p2129
sg31
Nsba(i__main__
Player
p2130
(dp2131
g17
(dp2132
g19
Nsg20
I69
sg21
I83
sg22
Nsg23
Nsg24
Nsg25
Nssg6
S'S. Abdullahi'
p2133
sg27
I20
sg13
Nsg28
Nsg29
S'Nigeria'
p2134
sg31
Nsba(i__main__
Player
p2135
(dp2136
g17
(dp2137
g19
Nsg20
I66
sg21
I86
sg22
Nsg23
Nsg24
Nsg25
Nssg6
S'T. Ebuehi'
p2138
sg27
I21
sg13
Nsg28
Nsg29
S'Nigeria'
p2139
sg31
Nsba(i__main__
Player
p2140
(dp2141
g17
(dp2142
g19
Nsg20
I64
sg21
I53
sg22
Nsg23
Nsg24
Nsg25
Nssg6
S'I. Abdullahi'
p2143
sg27
I20
sg13
Nsg28
Nsg29
S'Nigeria'
p2144
sg31
Nsbasg145
I2
sg146
F750.0
sba(i__main__
Team
p2145
(dp2146
g3
Nsg4
I211389
sg5
I70
sg6
S'Peru'
p2147
sg8
F-858.88611
sg9
I73
sg10
I1
sg11
I11
sg12
I3
sg13
(lp2148
(i__main__
Player
p2149
(dp2150
g17
(dp2151
g19
Nsg20
I78
sg21
I82
sg22
Nsg23
Nsg24
Nsg25
Nssg6
S'J. Farf\xc3\xa1n'
p2152
sg27
I32
sg13
Nsg28
Nsg29
S'Peru'
p2153
sg31
Nsba(i__main__
Player
p2154
(dp2155
g17
(dp2156
g19
Nsg20
I77
sg21
I84
sg22
Nsg23
Nsg24
Nsg25
Nssg6
S'A. Carrillo'
p2157
sg27
I26
sg13
Nsg28
Nsg29
S'Peru'
p2158
sg31
Nsba(i__main__
Player
p2159
(dp2160
g17
(dp2161
g19
Nsg20
I76
sg21
I82
sg22
Nsg23
Nsg24
Nsg25
Nssg6
S'P. Hurtado'
p2162
sg27
I26
sg13
Nsg28
Nsg29
S'Peru'
p2163
sg31
Nsba(i__main__
Player
p2164
(dp2165
g17
(dp2166
g19
Nsg20
I76
sg21
I82
sg22
Nsg23
Nsg24
Nsg25
Nssg6
S'R. Ruid\xc3\xadaz'
p2167
sg27
I26
sg13
Nsg28
Nsg29
S'Peru'
p2168
sg31
Nsba(i__main__
Player
p2169
(dp2170
g17
(dp2171
g19
Nsg20
I74
sg21
I47
sg22
Nsg23
Nsg24
Nsg25
Nssg6
S'P. Gallese'
p2172
sg27
I27
sg13
Nsg28
Nsg29
S'Peru'
p2173
sg31
Nsba(i__main__
Player
p2174
(dp2175
g17
(dp2176
g19
Nsg20
I73
sg21
I61
sg22
Nsg23
Nsg24
Nsg25
Nssg6
S'A. Rodr\xc3\xadguez'
p2177
sg27
I33
sg13
Nsg28
Nsg29
S'Peru'
p2178
sg31
Nsba(i__main__
Player
p2179
(dp2180
g17
(dp2181
g19
Nsg20
I72
sg21
I62
sg22
Nsg23
Nsg24
Nsg25
Nssg6
S'R. Tapia'
p2182
sg27
I21
sg13
Nsg28
Nsg29
S'Peru'
p2183
sg31
Nsba(i__main__
Player
p2184
(dp2185
g17
(dp2186
g19
Nsg20
I72
sg21
I90
sg22
Nsg23
Nsg24
Nsg25
Nssg6
S'L. Adv\xc3\xadncula'
p2187
sg27
I27
sg13
Nsg28
Nsg29
S'Peru'
p2188
sg31
Nsba(i__main__
Player
p2189
(dp2190
g17
(dp2191
g19
Nsg20
I71
sg21
I68
sg22
Nsg23
Nsg24
Nsg25
Nssg6
S'Y. Yot\xc3\xban'
p2192
sg27
I27
sg13
Nsg28
Nsg29
S'Peru'
p2193
sg31
Nsba(i__main__
Player
p2194
(dp2195
g17
(dp2196
g19
Nsg20
I70
sg21
I70
sg22
Nsg23
Nsg24
Nsg25
Nssg6
g758
sg27
I25
sg13
Nsg28
Nsg29
g2147
sg31
Nsba(i__main__
Player
p2197
(dp2198
g17
(dp2199
g19
Nsg20
I70
sg21
I70
sg22
Nsg23
Nsg24
Nsg25
Nssg6
g758
sg27
I25
sg13
Nsg28
Nsg29
g2147
sg31
Nsbasg82
I66
sg83
(lp2200
(i__main__
Player
p2201
(dp2202
g17
(dp2203
g19
Nsg20
I70
sg21
I70
sg22
Nsg23
Nsg24
Nsg25
Nssg6
g758
sg27
I25
sg13
Nsg28
Nsg29
g2147
sg31
Nsba(i__main__
Player
p2204
(dp2205
g17
(dp2206
g19
Nsg20
I70
sg21
I70
sg22
Nsg23
Nsg24
Nsg25
Nssg6
g758
sg27
I25
sg13
Nsg28
Nsg29
g2147
sg31
Nsba(i__main__
Player
p2207
(dp2208
g17
(dp2209
g19
Nsg20
I70
sg21
I70
sg22
Nsg23
Nsg24
Nsg25
Nssg6
g758
sg27
I25
sg13
Nsg28
Nsg29
g2147
sg31
Nsba(i__main__
Player
p2210
(dp2211
g17
(dp2212
g19
Nsg20
I69
sg21
I87
sg22
Nsg23
Nsg24
Nsg25
Nssg6
S'A. Polo'
p2213
sg27
I22
sg13
Nsg28
Nsg29
S'Peru'
p2214
sg31
Nsba(i__main__
Player
p2215
(dp2216
g17
(dp2217
g19
Nsg20
I68
sg21
I53
sg22
Nsg23
Nsg24
Nsg25
Nssg6
S'J. Carvallo'
p2218
sg27
I31
sg13
Nsg28
Nsg29
S'Peru'
p2219
sg31
Nsba(i__main__
Player
p2220
(dp2221
g17
(dp2222
g19
Nsg20
I67
sg21
I64
sg22
Nsg23
Nsg24
Nsg25
Nssg6
S'C. Ramos'
p2223
sg27
I28
sg13
Nsg28
Nsg29
S'Peru'
p2224
sg31
Nsba(i__main__
Player
p2225
(dp2226
g17
(dp2227
g19
Nsg20
I67
sg21
I65
sg22
Nsg23
Nsg24
Nsg25
Nssg6
S'M. Araujo'
p2228
sg27
I22
sg13
Nsg28
Nsg29
S'Peru'
p2229
sg31
Nsba(i__main__
Player
p2230
(dp2231
g17
(dp2232
g19
Nsg20
I65
sg21
I60
sg22
Nsg23
Nsg24
Nsg25
Nssg6
S'P. Aquino'
p2233
sg27
I22
sg13
Nsg28
Nsg29
S'Peru'
p2234
sg31
Nsba(i__main__
Player
p2235
(dp2236
g17
(dp2237
g19
Nsg20
I65
sg21
I69
sg22
Nsg23
Nsg24
Nsg25
Nssg6
S'A. Corzo'
p2238
sg27
I28
sg13
Nsg28
Nsg29
S'Peru'
p2239
sg31
Nsba(i__main__
Player
p2240
(dp2241
g17
(dp2242
g19
Nsg20
I64
sg21
I69
sg22
Nsg23
Nsg24
Nsg25
Nssg6
S'W. Cartagena'
p2243
sg27
I22
sg13
Nsg28
Nsg29
S'Peru'
p2244
sg31
Nsba(i__main__
Player
p2245
(dp2246
g17
(dp2247
g19
Nsg20
I63
sg21
I68
sg22
Nsg23
Nsg24
Nsg25
Nssg6
S'N. Loyola'
p2248
sg27
I22
sg13
Nsg28
Nsg29
S'Peru'
p2249
sg31
Nsba(i__main__
Player
p2250
(dp2251
g17
(dp2252
g19
Nsg20
I63
sg21
I67
sg22
Nsg23
Nsg24
Nsg25
Nssg6
S'E. Flores'
p2253
sg27
I23
sg13
Nsg28
Nsg29
S'Peru'
p2254
sg31
Nsbasg145
I2
sg146
F1000.0
sba(i__main__
Team
p2255
(dp2256
g3
Nsg4
I637590
sg5
I71
sg6
S'Argentina'
p2257
sg8
F136.3759
sg9
I84
sg10
I1
sg11
I4
sg12
I3
sg13
(lp2258
(i__main__
Player
p2259
(dp2260
g17
(dp2261
g19
Nsg20
I90
sg21
I79
sg22
Nsg23
Nsg24
Nsg25
Nssg6
S'G. Higua\xc3\xadn'
p2262
sg27
I29
sg13
Nsg28
Nsg29
S'Argentina'
p2263
sg31
Nsba(i__main__
Player
p2264
(dp2265
g17
(dp2266
g19
Nsg20
I89
sg21
I87
sg22
Nsg23
Nsg24
Nsg25
Nssg6
S'S. Ag\xc3\xbcero'
p2267
sg27
I29
sg13
Nsg28
Nsg29
S'Argentina'
p2268
sg31
Nsba(i__main__
Player
p2269
(dp2270
g17
(dp2271
g19
Nsg20
I88
sg21
I86
sg22
Nsg23
Nsg24
Nsg25
Nssg6
S'P. Dybala'
p2272
sg27
I23
sg13
Nsg28
Nsg29
S'Argentina'
p2273
sg31
Nsba(i__main__
Player
p2274
(dp2275
g17
(dp2276
g19
Nsg20
I85
sg21
I86
sg22
Nsg23
Nsg24
Nsg25
Nssg6
S'A. Di Mar\xc3\xada'
p2277
sg27
I29
sg13
Nsg28
Nsg29
S'Argentina'
p2278
sg31
Nsba(i__main__
Player
p2279
(dp2280
g17
(dp2281
g19
Nsg20
I83
sg21
I63
sg22
Nsg23
Nsg24
Nsg25
Nssg6
S'N. Otamendi'
p2282
sg27
I29
sg13
Nsg28
Nsg29
S'Argentina'
p2283
sg31
Nsba(i__main__
Player
p2284
(dp2285
g17
(dp2286
g19
Nsg20
I83
sg21
I69
sg22
Nsg23
Nsg24
Nsg25
Nssg6
S'E. Banega'
p2287
sg27
I29
sg13
Nsg28
Nsg29
S'Argentina'
p2288
sg31
Nsba(i__main__
Player
p2289
(dp2290
g17
(dp2291
g19
Nsg20
I83
sg21
I69
sg22
Nsg23
Nsg24
Nsg25
Nssg6
S'L. Biglia'
p2292
sg27
I31
sg13
Nsg28
Nsg29
S'Argentina'
p2293
sg31
Nsba(i__main__
Player
p2294
(dp2295
g17
(dp2296
g19
Nsg20
I83
sg21
I65
sg22
Nsg23
Nsg24
Nsg25
Nssg6
S'J. Mascherano'
p2297
sg27
I33
sg13
Nsg28
Nsg29
S'Argentina'
p2298
sg31
Nsba(i__main__
Player
p2299
(dp2300
g17
(dp2301
g19
Nsg20
I82
sg21
I70
sg22
Nsg23
Nsg24
Nsg25
Nssg6
S'M. Rojo'
p2302
sg27
I27
sg13
Nsg28
Nsg29
S'Argentina'
p2303
sg31
Nsba(i__main__
Player
p2304
(dp2305
g17
(dp2306
g19
Nsg20
I82
sg21
I30
sg22
Nsg23
Nsg24
Nsg25
Nssg6
S'F. Fazio'
p2307
sg27
I30
sg13
Nsg28
Nsg29
S'Argentina'
p2308
sg31
Nsba(i__main__
Player
p2309
(dp2310
g17
(dp2311
g19
Nsg20
I80
sg21
I87
sg22
Nsg23
Nsg24
Nsg25
Nssg6
S'E. Salvio'
p2312
sg27
I26
sg13
Nsg28
Nsg29
S'Argentina'
p2313
sg31
Nsbasg82
I76
sg83
(lp2314
(i__main__
Player
p2315
(dp2316
g17
(dp2317
g19
Nsg20
I79
sg21
I84
sg22
Nsg23
Nsg24
Nsg25
Nssg6
S'M. Acu\xc3\xb1a'
p2318
sg27
I25
sg13
Nsg28
Nsg29
S'Argentina'
p2319
sg31
Nsba(i__main__
Player
p2320
(dp2321
g17
(dp2322
g19
Nsg20
I79
sg21
I88
sg22
Nsg23
Nsg24
Nsg25
Nssg6
S'N. Tagliafico'
p2323
sg27
I24
sg13
Nsg28
Nsg29
S'Argentina'
p2324
sg31
Nsba(i__main__
Player
p2325
(dp2326
g17
(dp2327
g19
Nsg20
I79
sg21
I80
sg22
Nsg23
Nsg24
Nsg25
Nssg6
S'C. Ansaldi'
p2328
sg27
I30
sg13
Nsg28
Nsg29
S'Argentina'
p2329
sg31
Nsba(i__main__
Player
p2330
(dp2331
g17
(dp2332
g19
Nsg20
I79
sg21
I45
sg22
Nsg23
Nsg24
Nsg25
Nssg6
S'W. Caballero'
p2333
sg27
I35
sg13
Nsg28
Nsg29
S'Argentina'
p2334
sg31
Nsba(i__main__
Player
p2335
(dp2336
g17
(dp2337
g19
Nsg20
I78
sg21
I70
sg22
Nsg23
Nsg24
Nsg25
Nssg6
S'E. P\xc3\xa9rez'
p2338
sg27
I31
sg13
Nsg28
Nsg29
S'Argentina'
p2339
sg31
Nsba(i__main__
Player
p2340
(dp2341
g17
(dp2342
g19
Nsg20
I77
sg21
I70
sg22
Nsg23
Nsg24
Nsg25
Nssg6
S'P. P\xc3\xa9rez'
p2343
sg27
I31
sg13
Nsg28
Nsg29
S'Argentina'
p2344
sg31
Nsba(i__main__
Player
p2345
(dp2346
g17
(dp2347
g19
Nsg20
I77
sg21
I32
sg22
Nsg23
Nsg24
Nsg25
Nssg6
S'F. Armani'
p2348
sg27
I30
sg13
Nsg28
Nsg29
S'Argentina'
p2349
sg31
Nsba(i__main__
Player
p2350
(dp2351
g17
(dp2352
g19
Nsg20
I77
sg21
I67
sg22
Nsg23
Nsg24
Nsg25
Nssg6
S'F. Higua\xc3\xadn'
p2353
sg27
I32
sg13
Nsg28
Nsg29
S'Argentina'
p2354
sg31
Nsba(i__main__
Player
p2355
(dp2356
g17
(dp2357
g19
Nsg20
I76
sg21
I74
sg22
Nsg23
Nsg24
Nsg25
Nssg6
S'G. Mercado'
p2358
sg27
I30
sg13
Nsg28
Nsg29
S'Argentina'
p2359
sg31
Nsba(i__main__
Player
p2360
(dp2361
g17
(dp2362
g19
Nsg20
I75
sg21
I88
sg22
Nsg23
Nsg24
Nsg25
Nssg6
S'C. Pav\xc3\xb3n'
p2363
sg27
I21
sg13
Nsg28
Nsg29
S'Argentina'
p2364
sg31
Nsba(i__main__
Player
p2365
(dp2366
g17
(dp2367
g19
Nsg20
I74
sg21
I75
sg22
Nsg23
Nsg24
Nsg25
Nssg6
S'G. Lo Celso'
p2368
sg27
I21
sg13
Nsg28
Nsg29
S'Argentina'
p2369
sg31
Nsba(i__main__
Player
p2370
(dp2371
g17
(dp2372
g19
Nsg20
I73
sg21
I80
sg22
Nsg23
Nsg24
Nsg25
Nssg6
S'D. P\xc3\xa9rez'
p2373
sg27
I28
sg13
Nsg28
Nsg29
S'Argentina'
p2374
sg31
Nsbasg145
I2
sg146
F30.0
sba(i__main__
Team
p2375
(dp2376
g3
Nsg4
I309191
sg5
I70
sg6
S'Colombia'
p2377
sg8
F56.09191
sg9
I79
sg10
I1
sg11
I13
sg12
I3
sg13
(lp2378
(i__main__
Player
p2379
(dp2380
g17
(dp2381
g19
Nsg20
I86
sg21
I76
sg22
Nsg23
Nsg24
Nsg25
Nssg6
S'J. Rodr\xc3\xadguez'
p2382
sg27
I25
sg13
Nsg28
Nsg29
S'Colombia'
p2383
sg31
Nsba(i__main__
Player
p2384
(dp2385
g17
(dp2386
g19
Nsg20
I82
sg21
I77
sg22
Nsg23
Nsg24
Nsg25
Nssg6
S'C. Bacca'
p2387
sg27
I30
sg13
Nsg28
Nsg29
S'Colombia'
p2388
sg31
Nsba(i__main__
Player
p2389
(dp2390
g17
(dp2391
g19
Nsg20
I82
sg21
I91
sg22
Nsg23
Nsg24
Nsg25
Nssg6
S'J. Cuadrado'
p2392
sg27
I29
sg13
Nsg28
Nsg29
S'Colombia'
p2393
sg31
Nsba(i__main__
Player
p2394
(dp2395
g17
(dp2396
g19
Nsg20
I81
sg21
I70
sg22
Nsg23
Nsg24
Nsg25
Nssg6
S'D. S\xc3\xa1nchez'
p2397
sg27
I21
sg13
Nsg28
Nsg29
S'Colombia'
p2398
sg31
Nsba(i__main__
Player
p2399
(dp2400
g17
(dp2401
g19
Nsg20
I80
sg21
I88
sg22
Nsg23
Nsg24
Nsg25
Nssg6
S'L. Muriel'
p2402
sg27
I26
sg13
Nsg28
Nsg29
S'Colombia'
p2403
sg31
Nsba(i__main__
Player
p2404
(dp2405
g17
(dp2406
g19
Nsg20
I79
sg21
I74
sg22
Nsg23
Nsg24
Nsg25
Nssg6
S'J. Murillo'
p2407
sg27
I25
sg13
Nsg28
Nsg29
S'Colombia'
p2408
sg31
Nsba(i__main__
Player
p2409
(dp2410
g17
(dp2411
g19
Nsg20
I79
sg21
I34
sg22
Nsg23
Nsg24
Nsg25
Nssg6
S'D. Ospina'
p2412
sg27
I28
sg13
Nsg28
Nsg29
S'Colombia'
p2413
sg31
Nsba(i__main__
Player
p2414
(dp2415
g17
(dp2416
g19
Nsg20
I78
sg21
I93
sg22
Nsg23
Nsg24
Nsg25
Nssg6
S'J. Izquierdo'
p2417
sg27
I24
sg13
Nsg28
Nsg29
S'Colombia'
p2418
sg31
Nsba(i__main__
Player
p2419
(dp2420
g17
(dp2421
g19
Nsg20
I78
sg21
I72
sg22
Nsg23
Nsg24
Nsg25
Nssg6
S'D. Zapata'
p2422
sg27
I26
sg13
Nsg28
Nsg29
S'Colombia'
p2423
sg31
Nsba(i__main__
Player
p2424
(dp2425
g17
(dp2426
g19
Nsg20
I77
sg21
I74
sg22
Nsg23
Nsg24
Nsg25
Nssg6
S'J. Quintero'
p2427
sg27
I24
sg13
Nsg28
Nsg29
S'Colombia'
p2428
sg31
Nsba(i__main__
Player
p2429
(dp2430
g17
(dp2431
g19
Nsg20
I77
sg21
I66
sg22
Nsg23
Nsg24
Nsg25
Nssg6
S'C. S\xc3\xa1nchez'
p2432
sg27
I31
sg13
Nsg28
Nsg29
S'Colombia'
p2433
sg31
Nsbasg82
I74
sg83
(lp2434
(i__main__
Player
p2435
(dp2436
g17
(dp2437
g19
Nsg20
I77
sg21
I84
sg22
Nsg23
Nsg24
Nsg25
Nssg6
S'S. Arias'
p2438
sg27
I25
sg13
Nsg28
Nsg29
S'Colombia'
p2439
sg31
Nsba(i__main__
Player
p2440
(dp2441
g17
(dp2442
g19
Nsg20
I76
sg21
I69
sg22
Nsg23
Nsg24
Nsg25
Nssg6
S'O. Murillo'
p2443
sg27
I29
sg13
Nsg28
Nsg29
S'Colombia'
p2444
sg31
Nsba(i__main__
Player
p2445
(dp2446
g17
(dp2447
g19
Nsg20
I75
sg21
I39
sg22
Nsg23
Nsg24
Nsg25
Nssg6
S'A. Aguilar'
p2448
sg27
I32
sg13
Nsg28
Nsg29
S'Colombia'
p2449
sg31
Nsba(i__main__
Player
p2450
(dp2451
g17
(dp2452
g19
Nsg20
I75
sg21
I45
sg22
Nsg23
Nsg24
Nsg25
Nssg6
S'C. Vargas'
p2453
sg27
I28
sg13
Nsg28
Nsg29
S'Colombia'
p2454
sg31
Nsba(i__main__
Player
p2455
(dp2456
g17
(dp2457
g19
Nsg20
I75
sg21
I77
sg22
Nsg23
Nsg24
Nsg25
Nssg6
S'J. Lerma'
p2458
sg27
I22
sg13
Nsg28
Nsg29
S'Colombia'
p2459
sg31
Nsba(i__main__
Player
p2460
(dp2461
g17
(dp2462
g19
Nsg20
I74
sg21
I46
sg22
Nsg23
Nsg24
Nsg25
Nssg6
S'J. Cuadrado'
p2463
sg27
I32
sg13
Nsg28
Nsg29
S'Colombia'
p2464
sg31
Nsba(i__main__
Player
p2465
(dp2466
g17
(dp2467
g19
Nsg20
I74
sg21
I63
sg22
Nsg23
Nsg24
Nsg25
Nssg6
S'W. Barrios'
p2468
sg27
I23
sg13
Nsg28
Nsg29
S'Colombia'
p2469
sg31
Nsba(i__main__
Player
p2470
(dp2471
g17
(dp2472
g19
Nsg20
I74
sg21
I71
sg22
Nsg23
Nsg24
Nsg25
Nssg6
S'F. Uribe'
p2473
sg27
I29
sg13
Nsg28
Nsg29
S'Colombia'
p2474
sg31
Nsba(i__main__
Player
p2475
(dp2476
g17
(dp2477
g19
Nsg20
I73
sg21
I75
sg22
Nsg23
Nsg24
Nsg25
Nssg6
S'M. Uribe'
p2478
sg27
I26
sg13
Nsg28
Nsg29
S'Colombia'
p2479
sg31
Nsba(i__main__
Player
p2480
(dp2481
g17
(dp2482
g19
Nsg20
I73
sg21
I75
sg22
Nsg23
Nsg24
Nsg25
Nssg6
S'F. D\xc3\xadaz'
p2483
sg27
I33
sg13
Nsg28
Nsg29
S'Colombia'
p2484
sg31
Nsba(i__main__
Player
p2485
(dp2486
g17
(dp2487
g19
Nsg20
I73
sg21
I70
sg22
Nsg23
Nsg24
Nsg25
Nssg6
S'A. Rodr\xc3\xadguez'
p2488
sg27
I28
sg13
Nsg28
Nsg29
S'Colombia'
p2489
sg31
Nsba(i__main__
Player
p2490
(dp2491
g17
(dp2492
g19
Nsg20
I73
sg21
I91
sg22
Nsg23
Nsg24
Nsg25
Nssg6
S'M. Barrios'
p2493
sg27
I26
sg13
Nsg28
Nsg29
S'Colombia'
p2494
sg31
Nsbasg145
I2
sg146
F100.0
sba(i__main__
Team
p2495
(dp2496
g3
Nsg4
I23909
sg5
I65
sg6
S'Iceland'
p2497
sg8
F-61.76091
sg9
I73
sg10
I1
sg11
I22
sg12
I3
sg13
(lp2498
(i__main__
Player
p2499
(dp2500
g17
(dp2501
g19
Nsg20
I82
sg21
I65
sg22
Nsg23
Nsg24
Nsg25
Nssg6
S'G. Sigur\xc3\xb0sson'
p2502
sg27
I27
sg13
Nsg28
Nsg29
S'Iceland'
p2503
sg31
Nsba(i__main__
Player
p2504
(dp2505
g17
(dp2506
g19
Nsg20
I76
sg21
I67
sg22
Nsg23
Nsg24
Nsg25
Nssg6
S'A. Finnbogason'
p2507
sg27
I28
sg13
Nsg28
Nsg29
S'Iceland'
p2508
sg31
Nsba(i__main__
Player
p2509
(dp2510
g17
(dp2511
g19
Nsg20
I75
sg21
I67
sg22
Nsg23
Nsg24
Nsg25
Nssg6
S'E. Hallfre\xc3\xb0sson'
p2512
sg27
I33
sg13
Nsg28
Nsg29
S'Iceland'
p2513
sg31
Nsba(i__main__
Player
p2514
(dp2515
g17
(dp2516
g19
Nsg20
I73
sg21
I78
sg22
Nsg23
Nsg24
Nsg25
Nssg6
S'J. Gu\xc3\xb0mundsson'
p2517
sg27
I26
sg13
Nsg28
Nsg29
S'Iceland'
p2518
sg31
Nsba(i__main__
Player
p2519
(dp2520
g17
(dp2521
g19
Nsg20
I73
sg21
I73
sg22
Nsg23
Nsg24
Nsg25
Nssg6
S'B. Bjarnason'
p2522
sg27
I29
sg13
Nsg28
Nsg29
S'Iceland'
p2523
sg31
Nsba(i__main__
Player
p2524
(dp2525
g17
(dp2526
g19
Nsg20
I73
sg21
I78
sg22
Nsg23
Nsg24
Nsg25
Nssg6
S'B. Sigur\xc3\xb0arson'
p2527
sg27
I25
sg13
Nsg28
Nsg29
S'Iceland'
p2528
sg31
Nsba(i__main__
Player
p2529
(dp2530
g17
(dp2531
g19
Nsg20
I72
sg21
I65
sg22
Nsg23
Nsg24
Nsg25
Nssg6
S'R. Sigur\xc3\xb0sson'
p2532
sg27
I31
sg13
Nsg28
Nsg29
S'Iceland'
p2533
sg31
Nsba(i__main__
Player
p2534
(dp2535
g17
(dp2536
g19
Nsg20
I72
sg21
I61
sg22
Nsg23
Nsg24
Nsg25
Nssg6
S'S. Ingason'
p2537
sg27
I23
sg13
Nsg28
Nsg29
S'Iceland'
p2538
sg31
Nsba(i__main__
Player
p2539
(dp2540
g17
(dp2541
g19
Nsg20
I70
sg21
I65
sg22
Nsg23
Nsg24
Nsg25
Nssg6
S'O. Sk\xc3\xbalason'
p2542
sg27
I34
sg13
Nsg28
Nsg29
S'Iceland'
p2543
sg31
Nsba(i__main__
Player
p2544
(dp2545
g17
(dp2546
g19
Nsg20
I70
sg21
I30
sg22
Nsg23
Nsg24
Nsg25
Nssg6
S'K. \xc3\x81rnason'
p2547
sg27
I34
sg13
Nsg28
Nsg29
S'Iceland'
p2548
sg31
Nsba(i__main__
Player
p2549
(dp2550
g17
(dp2551
g19
Nsg20
I70
sg21
I78
sg22
Nsg23
Nsg24
Nsg25
Nssg6
S'A. Traustason'
p2552
sg27
I24
sg13
Nsg28
Nsg29
S'Iceland'
p2553
sg31
Nsbasg82
I65
sg83
(lp2554
(i__main__
Player
p2555
(dp2556
g17
(dp2557
g19
Nsg20
I69
sg21
I76
sg22
Nsg23
Nsg24
Nsg25
Nssg6
S'J. B\xc3\xb6\xc3\xb0varsson'
p2558
sg27
I25
sg13
Nsg28
Nsg29
S'Iceland'
p2559
sg31
Nsba(i__main__
Player
p2560
(dp2561
g17
(dp2562
g19
Nsg20
I68
sg21
I76
sg22
Nsg23
Nsg24
Nsg25
Nssg6
S'R. G\xc3\xadslason'
p2563
sg27
I29
sg13
Nsg28
Nsg29
S'Iceland'
p2564
sg31
Nsba(i__main__
Player
p2565
(dp2566
g17
(dp2567
g19
Nsg20
I68
sg21
I62
sg22
Nsg23
Nsg24
Nsg25
Nssg6
S'H. Magn\xc3\xbasson'
p2568
sg27
I24
sg13
Nsg28
Nsg29
S'Iceland'
p2569
sg31
Nsba(i__main__
Player
p2570
(dp2571
g17
(dp2572
g19
Nsg20
I68
sg21
I63
sg22
Nsg23
Nsg24
Nsg25
Nssg6
S'A. Sk\xc3\xbalason'
p2573
sg27
I30
sg13
Nsg28
Nsg29
S'Iceland'
p2574
sg31
Nsba(i__main__
Player
p2575
(dp2576
g17
(dp2577
g19
Nsg20
I67
sg21
I36
sg22
Nsg23
Nsg24
Nsg25
Nssg6
S'H. Halld\xc3\xb3rsson'
p2578
sg27
I33
sg13
Nsg28
Nsg29
S'Iceland'
p2579
sg31
Nsba(i__main__
Player
p2580
(dp2581
g17
(dp2582
g19
Nsg20
I66
sg21
I76
sg22
Nsg23
Nsg24
Nsg25
Nssg6
S'B. S\xc3\xa6varsson'
p2583
sg27
I32
sg13
Nsg28
Nsg29
S'Iceland'
p2584
sg31
Nsba(i__main__
Player
p2585
(dp2586
g17
(dp2587
g19
Nsg20
I66
sg21
I72
sg22
Nsg23
Nsg24
Nsg25
Nssg6
S'A. Gu\xc3\xb0mundsson'
p2588
sg27
I20
sg13
Nsg28
Nsg29
S'Iceland'
p2589
sg31
Nsba(i__main__
Player
p2590
(dp2591
g17
(dp2592
g19
Nsg20
I66
sg21
I79
sg22
Nsg23
Nsg24
Nsg25
Nssg6
S'A. Sigur\xc3\xb0arson'
p2593
sg27
I23
sg13
Nsg28
Nsg29
S'Iceland'
p2594
sg31
Nsba(i__main__
Player
p2595
(dp2596
g17
(dp2597
g19
Nsg20
I65
sg21
I65
sg22
Nsg23
Nsg24
Nsg25
Nssg6
S'K. Finnbogason'
p2598
sg27
I30
sg13
Nsg28
Nsg29
S'Iceland'
p2599
sg31
Nsba(i__main__
Player
p2600
(dp2601
g17
(dp2602
g19
Nsg20
I64
sg21
I45
sg22
Nsg23
Nsg24
Nsg25
Nssg6
S'R. R\xc3\xbanarsson'
p2603
sg27
I22
sg13
Nsg28
Nsg29
S'Iceland'
p2604
sg31
Nsba(i__main__
Player
p2605
(dp2606
g17
(dp2607
g19
Nsg20
I62
sg21
I65
sg22
Nsg23
Nsg24
Nsg25
Nssg6
S'K. Sigur\xc3\xb0sson'
p2608
sg27
I25
sg13
Nsg28
Nsg29
S'Iceland'
p2609
sg31
Nsba(i__main__
Player
p2610
(dp2611
g17
(dp2612
g19
Nsg20
I53
sg21
I66
sg22
Nsg23
Nsg24
Nsg25
Nssg6
S'A. Sigur\xc3\xb0sson'
p2613
sg27
I18
sg13
Nsg28
Nsg29
S'Iceland'
p2614
sg31
Nsbasg145
I2
sg146
F200.0
sba(i__main__
Team
p2615
(dp2616
g3
Nsg4
I1577524
sg5
I69
sg6
S'Russia'
p2617
sg8
F126.77524
sg9
I78
sg10
I1
sg11
I65
sg12
I3
sg13
(lp2618
(i__main__
Player
p2619
(dp2620
g17
(dp2621
g19
Nsg20
I81
sg21
I83
sg22
Nsg23
Nsg24
Nsg25
Nssg6
S'M\xc3\xa1rio Fernandes'
p2622
sg27
I26
sg13
Nsg28
Nsg29
S'Russia'
p2623
sg31
Nsba(i__main__
Player
p2624
(dp2625
g17
(dp2626
g19
Nsg20
I80
sg21
I77
sg22
Nsg23
Nsg24
Nsg25
Nssg6
S'A. Dzagoev'
p2627
sg27
I27
sg13
Nsg28
Nsg29
S'Russia'
p2628
sg31
Nsba(i__main__
Player
p2629
(dp2630
g17
(dp2631
g19
Nsg20
I80
sg21
I87
sg22
Nsg23
Nsg24
Nsg25
Nssg6
S'F. Smolov'
p2632
sg27
I27
sg13
Nsg28
Nsg29
S'Russia'
p2633
sg31
Nsba(i__main__
Player
p2634
(dp2635
g17
(dp2636
g19
Nsg20
I79
sg21
I87
sg22
Nsg23
Nsg24
Nsg25
Nssg6
S'I. Smolnikov'
p2637
sg27
I28
sg13
Nsg28
Nsg29
S'Russia'
p2638
sg31
Nsba(i__main__
Player
p2639
(dp2640
g17
(dp2641
g19
Nsg20
I79
sg21
I80
sg22
Nsg23
Nsg24
Nsg25
Nssg6
S'A. Samedov'
p2642
sg27
I32
sg13
Nsg28
Nsg29
S'Russia'
p2643
sg31
Nsba(i__main__
Player
p2644
(dp2645
g17
(dp2646
g19
Nsg20
I78
sg21
I80
sg22
Nsg23
Nsg24
Nsg25
Nssg6
S'D. Cheryshev'
p2647
sg27
I26
sg13
Nsg28
Nsg29
S'Russia'
p2648
sg31
Nsba(i__main__
Player
p2649
(dp2650
g17
(dp2651
g19
Nsg20
I78
sg21
I80
sg22
Nsg23
Nsg24
Nsg25
Nssg6
S'D. Cheryshev'
p2652
sg27
I26
sg13
Nsg28
Nsg29
S'Russia'
p2653
sg31
Nsba(i__main__
Player
p2654
(dp2655
g17
(dp2656
g19
Nsg20
I78
sg21
I33
sg22
Nsg23
Nsg24
Nsg25
Nssg6
S'S. Ignashevich'
p2657
sg27
I37
sg13
Nsg28
Nsg29
S'Russia'
p2658
sg31
Nsba(i__main__
Player
p2659
(dp2660
g17
(dp2661
g19
Nsg20
I78
sg21
I65
sg22
Nsg23
Nsg24
Nsg25
Nssg6
S'A. Dzyuba'
p2662
sg27
I28
sg13
Nsg28
Nsg29
S'Russia'
p2663
sg31
Nsba(i__main__
Player
p2664
(dp2665
g17
(dp2666
g19
Nsg20
I77
sg21
I76
sg22
Nsg23
Nsg24
Nsg25
Nssg6
S'R. Zobnin'
p2667
sg27
I23
sg13
Nsg28
Nsg29
S'Russia'
p2668
sg31
Nsba(i__main__
Player
p2669
(dp2670
g17
(dp2671
g19
Nsg20
I76
sg21
I75
sg22
Nsg23
Nsg24
Nsg25
Nssg6
S'Y. Zhirkov'
p2672
sg27
I33
sg13
Nsg28
Nsg29
S'Russia'
p2673
sg31
Nsbasg82
I73
sg83
(lp2674
(i__main__
Player
p2675
(dp2676
g17
(dp2677
g19
Nsg20
I76
sg21
I81
sg22
Nsg23
Nsg24
Nsg25
Nssg6
S'A. Golovin'
p2678
sg27
I21
sg13
Nsg28
Nsg29
S'Russia'
p2679
sg31
Nsba(i__main__
Player
p2680
(dp2681
g17
(dp2682
g19
Nsg20
I75
sg21
I65
sg22
Nsg23
Nsg24
Nsg25
Nssg6
S'Y. Gazinskiy'
p2683
sg27
I27
sg13
Nsg28
Nsg29
S'Russia'
p2684
sg31
Nsba(i__main__
Player
p2685
(dp2686
g17
(dp2687
g19
Nsg20
I75
sg21
I69
sg22
Nsg23
Nsg24
Nsg25
Nssg6
g758
sg27
I27
sg13
Nsg28
Nsg29
g2617
sg31
Nsba(i__main__
Player
p2688
(dp2689
g17
(dp2690
g19
Nsg20
I75
sg21
I69
sg22
Nsg23
Nsg24
Nsg25
Nssg6
g758
sg27
I27
sg13
Nsg28
Nsg29
g2617
sg31
Nsba(i__main__
Player
p2691
(dp2692
g17
(dp2693
g19
Nsg20
I74
sg21
I56
sg22
Nsg23
Nsg24
Nsg25
Nssg6
S'V. Gabulov'
p2694
sg27
I33
sg13
Nsg28
Nsg29
S'Russia'
p2695
sg31
Nsba(i__main__
Player
p2696
(dp2697
g17
(dp2698
g19
Nsg20
I74
sg21
I73
sg22
Nsg23
Nsg24
Nsg25
Nssg6
S'A. Miranchuk'
p2699
sg27
I21
sg13
Nsg28
Nsg29
S'Russia'
p2700
sg31
Nsba(i__main__
Player
p2701
(dp2702
g17
(dp2703
g19
Nsg20
I74
sg21
I75
sg22
Nsg23
Nsg24
Nsg25
Nssg6
S'D. Kuzyaev'
p2704
sg27
I24
sg13
Nsg28
Nsg29
S'Russia'
p2705
sg31
Nsba(i__main__
Player
p2706
(dp2707
g17
(dp2708
g19
Nsg20
I73
sg21
I72
sg22
Nsg23
Nsg24
Nsg25
Nssg6
S'F. Kudryashov'
p2709
sg27
I30
sg13
Nsg28
Nsg29
S'Russia'
p2710
sg31
Nsba(i__main__
Player
p2711
(dp2712
g17
(dp2713
g19
Nsg20
I73
sg21
I32
sg22
Nsg23
Nsg24
Nsg25
Nssg6
S'I. Kutepov'
p2714
sg27
I23
sg13
Nsg28
Nsg29
S'Russia'
p2715
sg31
Nsba(i__main__
Player
p2716
(dp2717
g17
(dp2718
g19
Nsg20
I72
sg21
I43
sg22
Nsg23
Nsg24
Nsg25
Nssg6
S'V. Granat'
p2719
sg27
I30
sg13
Nsg28
Nsg29
S'Russia'
p2720
sg31
Nsba(i__main__
Player
p2721
(dp2722
g17
(dp2723
g19
Nsg20
I68
sg21
I70
sg22
Nsg23
Nsg24
Nsg25
Nssg6
S'A. Miranchuk'
p2724
sg27
I21
sg13
Nsg28
Nsg29
S'Russia'
p2725
sg31
Nsba(i__main__
Player
p2726
(dp2727
g17
(dp2728
g19
Nsg20
I67
sg21
I68
sg22
Nsg23
Nsg24
Nsg25
Nssg6
S'G. Gabulov'
p2729
sg27
I28
sg13
Nsg28
Nsg29
S'Russia'
p2730
sg31
Nsbasg145
I2
sg146
F40.0
sba(i__main__
Team
p2731
(dp2732
g3
Nsg4
I217571
sg5
I72
sg6
S'Portugal'
p2733
sg8
F145.17571
sg9
I83
sg10
I1
sg11
I3
sg12
I3
sg13
(lp2734
(i__main__
Player
p2735
(dp2736
g17
(dp2737
g19
Nsg20
I86
sg21
I67
sg22
Nsg23
Nsg24
Nsg25
Nssg6
S'Pepe'
p2738
sg27
I34
sg13
Nsg28
Nsg29
S'Portugal'
p2739
sg31
Nsba(i__main__
Player
p2740
(dp2741
g17
(dp2742
g19
Nsg20
I84
sg21
I81
sg22
Nsg23
Nsg24
Nsg25
Nssg6
S'Bernardo Silva'
p2743
sg27
I22
sg13
Nsg28
Nsg29
S'Portugal'
p2744
sg31
Nsba(i__main__
Player
p2745
(dp2746
g17
(dp2747
g19
Nsg20
I83
sg21
I73
sg22
Nsg23
Nsg24
Nsg25
Nssg6
S'Jo\xc3\xa3o M\xc3\xa1rio'
p2748
sg27
I24
sg13
Nsg28
Nsg29
S'Portugal'
p2749
sg31
Nsba(i__main__
Player
p2750
(dp2751
g17
(dp2752
g19
Nsg20
I83
sg21
I52
sg22
Nsg23
Nsg24
Nsg25
Nssg6
S'William Carvalho'
p2753
sg27
I25
sg13
Nsg28
Nsg29
S'Portugal'
p2754
sg31
Nsba(i__main__
Player
p2755
(dp2756
g17
(dp2757
g19
Nsg20
I83
sg21
I67
sg22
Nsg23
Nsg24
Nsg25
Nssg6
S'Danilo Pereira'
p2758
sg27
I25
sg13
Nsg28
Nsg29
S'Portugal'
p2759
sg31
Nsba(i__main__
Player
p2760
(dp2761
g17
(dp2762
g19
Nsg20
I83
sg21
I62
sg22
Nsg23
Nsg24
Nsg25
Nssg6
S'A. Lopes'
p2763
sg27
I26
sg13
Nsg28
Nsg29
S'Portugal'
p2764
sg31
Nsba(i__main__
Player
p2765
(dp2766
g17
(dp2767
g19
Nsg20
I83
sg21
I64
sg22
Nsg23
Nsg24
Nsg25
Nssg6
S'Adrien Silva'
p2768
sg27
I28
sg13
Nsg28
Nsg29
S'Portugal'
p2769
sg31
Nsba(i__main__
Player
p2770
(dp2771
g17
(dp2772
g19
Nsg20
I83
sg21
I55
sg22
Nsg23
Nsg24
Nsg25
Nssg6
S'Rui Patr\xc3\xadcio'
p2773
sg27
I29
sg13
Nsg28
Nsg29
S'Portugal'
p2774
sg31
Nsba(i__main__
Player
p2775
(dp2776
g17
(dp2777
g19
Nsg20
I83
sg21
I83
sg22
Nsg23
Nsg24
Nsg25
Nssg6
S'Quaresma'
p2778
sg27
I33
sg13
Nsg28
Nsg29
S'Portugal'
p2779
sg31
Nsba(i__main__
Player
p2780
(dp2781
g17
(dp2782
g19
Nsg20
I82
sg21
I69
sg22
Nsg23
Nsg24
Nsg25
Nssg6
S'Jo\xc3\xa3o Moutinho'
p2783
sg27
I30
sg13
Nsg28
Nsg29
S'Portugal'
p2784
sg31
Nsba(i__main__
Player
p2785
(dp2786
g17
(dp2787
g19
Nsg20
I81
sg21
I94
sg22
Nsg23
Nsg24
Nsg25
Nssg6
S'Gelson Martins'
p2788
sg27
I22
sg13
Nsg28
Nsg29
S'Portugal'
p2789
sg31
Nsbasg82
I78
sg83
(lp2790
(i__main__
Player
p2791
(dp2792
g17
(dp2793
g19
Nsg20
I81
sg21
I77
sg22
Nsg23
Nsg24
Nsg25
Nssg6
S'R. Guerreiro'
p2794
sg27
I23
sg13
Nsg28
Nsg29
S'Portugal'
p2795
sg31
Nsba(i__main__
Player
p2796
(dp2797
g17
(dp2798
g19
Nsg20
I80
sg21
I88
sg22
Nsg23
Nsg24
Nsg25
Nssg6
S'Ricardo Pereira'
p2799
sg27
I23
sg13
Nsg28
Nsg29
S'Portugal'
p2800
sg31
Nsba(i__main__
Player
p2801
(dp2802
g17
(dp2803
g19
Nsg20
I80
sg21
I79
sg22
Nsg23
Nsg24
Nsg25
Nssg6
S'Manuel Fernandes'
p2804
sg27
I31
sg13
Nsg28
Nsg29
S'Portugal'
p2805
sg31
Nsba(i__main__
Player
p2806
(dp2807
g17
(dp2808
g19
Nsg20
I79
sg21
I82
sg22
Nsg23
Nsg24
Nsg25
Nssg6
S'C\xc3\xa9dric'
p2809
sg27
I25
sg13
Nsg28
Nsg29
S'Portugal'
p2810
sg31
Nsba(i__main__
Player
p2811
(dp2812
g17
(dp2813
g19
Nsg20
I79
sg21
I43
sg22
Nsg23
Nsg24
Nsg25
Nssg6
S'Jos\xc3\xa9 Fonte'
p2814
sg27
I33
sg13
Nsg28
Nsg29
S'Portugal'
p2815
sg31
Nsba(i__main__
Player
p2816
(dp2817
g17
(dp2818
g19
Nsg20
I78
sg21
I80
sg22
Nsg23
Nsg24
Nsg25
Nssg6
S'Andr\xc3\xa9 Silva'
p2819
sg27
I21
sg13
Nsg28
Nsg29
S'Portugal'
p2820
sg31
Nsba(i__main__
Player
p2821
(dp2822
g17
(dp2823
g19
Nsg20
I78
sg21
I78
sg22
Nsg23
Nsg24
Nsg25
Nssg6
S'Bruno Fernandes'
p2824
sg27
I22
sg13
Nsg28
Nsg29
S'Portugal'
p2825
sg31
Nsba(i__main__
Player
p2826
(dp2827
g17
(dp2828
g19
Nsg20
I78
sg21
I56
sg22
Nsg23
Nsg24
Nsg25
Nssg6
S'Bruno Alves'
p2829
sg27
I35
sg13
Nsg28
Nsg29
S'Portugal'
p2830
sg31
Nsba(i__main__
Player
p2831
(dp2832
g17
(dp2833
g19
Nsg20
I78
sg21
I77
sg22
Nsg23
Nsg24
Nsg25
Nssg6
S'Miguel Lopes'
p2834
sg27
I30
sg13
Nsg28
Nsg29
S'Portugal'
p2835
sg31
Nsba(i__main__
Player
p2836
(dp2837
g17
(dp2838
g19
Nsg20
I78
sg21
I78
sg22
Nsg23
Nsg24
Nsg25
Nssg6
S'Bruno Fernandes'
p2839
sg27
I22
sg13
Nsg28
Nsg29
S'Portugal'
p2840
sg31
Nsba(i__main__
Player
p2841
(dp2842
g17
(dp2843
g19
Nsg20
I77
sg21
I86
sg22
Nsg23
Nsg24
Nsg25
Nssg6
S'M\xc3\xa1rio Rui'
p2844
sg27
I26
sg13
Nsg28
Nsg29
S'Portugal'
p2845
sg31
Nsba(i__main__
Player
p2846
(dp2847
g17
(dp2848
g19
Nsg20
I77
sg21
I79
sg22
Nsg23
Nsg24
Nsg25
Nssg6
S'Rony Lopes'
p2849
sg27
I21
sg13
Nsg28
Nsg29
S'Portugal'
p2850
sg31
Nsbasg145
I2
sg146
F18.0
sba(i__main__
Team
p2851
(dp2852
g3
Nsg4
I324872
sg5
I68
sg6
S'Denmark'
p2853
sg8
F78.24872
sg9
I79
sg10
I1
sg11
I12
sg12
I3
sg13
(lp2854
(i__main__
Player
p2855
(dp2856
g17
(dp2857
g19
Nsg20
I87
sg21
I75
sg22
Nsg23
Nsg24
Nsg25
Nssg6
S'C. Eriksen'
p2858
sg27
I25
sg13
Nsg28
Nsg29
S'Denmark'
p2859
sg31
Nsba(i__main__
Player
p2860
(dp2861
g17
(dp2862
g19
Nsg20
I83
sg21
I61
sg22
Nsg23
Nsg24
Nsg25
Nssg6
S'K. Schmeichel'
p2863
sg27
I30
sg13
Nsg28
Nsg29
S'Denmark'
p2864
sg31
Nsba(i__main__
Player
p2865
(dp2866
g17
(dp2867
g19
Nsg20
I81
sg21
I71
sg22
Nsg23
Nsg24
Nsg25
Nssg6
S'A. Christensen'
p2868
sg27
I21
sg13
Nsg28
Nsg29
S'Denmark'
p2869
sg31
Nsba(i__main__
Player
p2870
(dp2871
g17
(dp2872
g19
Nsg20
I79
sg21
I46
sg22
Nsg23
Nsg24
Nsg25
Nssg6
S'J. Vestergaard'
p2873
sg27
I24
sg13
Nsg28
Nsg29
S'Denmark'
p2874
sg31
Nsba(i__main__
Player
p2875
(dp2876
g17
(dp2877
g19
Nsg20
I79
sg21
I77
sg22
Nsg23
Nsg24
Nsg25
Nssg6
S'N. J\xc3\xb8rgensen'
p2878
sg27
I26
sg13
Nsg28
Nsg29
S'Denmark'
p2879
sg31
Nsba(i__main__
Player
p2880
(dp2881
g17
(dp2882
g19
Nsg20
I79
sg21
I67
sg22
Nsg23
Nsg24
Nsg25
Nssg6
S'M. Krohn-Dehli'
p2883
sg27
I34
sg13
Nsg28
Nsg29
S'Denmark'
p2884
sg31
Nsba(i__main__
Player
p2885
(dp2886
g17
(dp2887
g19
Nsg20
I78
sg21
I76
sg22
Nsg23
Nsg24
Nsg25
Nssg6
S'K. Dolberg'
p2888
sg27
I19
sg13
Nsg28
Nsg29
S'Denmark'
p2889
sg31
Nsba(i__main__
Player
p2890
(dp2891
g17
(dp2892
g19
Nsg20
I77
sg21
I84
sg22
Nsg23
Nsg24
Nsg25
Nssg6
S'M. Braithwaite'
p2893
sg27
I26
sg13
Nsg28
Nsg29
S'Denmark'
p2894
sg31
Nsba(i__main__
Player
p2895
(dp2896
g17
(dp2897
g19
Nsg20
I76
sg21
I85
sg22
Nsg23
Nsg24
Nsg25
Nssg6
S'Y. Poulsen'
p2898
sg27
I23
sg13
Nsg28
Nsg29
S'Denmark'
p2899
sg31
Nsba(i__main__
Player
p2900
(dp2901
g17
(dp2902
g19
Nsg20
I75
sg21
I64
sg22
Nsg23
Nsg24
Nsg25
Nssg6
S'L. Lerager'
p2903
sg27
I23
sg13
Nsg28
Nsg29
S'Denmark'
p2904
sg31
Nsba(i__main__
Player
p2905
(dp2906
g17
(dp2907
g19
Nsg20
I75
sg21
I31
sg22
Nsg23
Nsg24
Nsg25
Nssg6
S'J. L\xc3\xb6ssl'
p2908
sg27
I28
sg13
Nsg28
Nsg29
S'Denmark'
p2909
sg31
Nsbasg82
I71
sg83
(lp2910
(i__main__
Player
p2911
(dp2912
g17
(dp2913
g19
Nsg20
I75
sg21
I76
sg22
Nsg23
Nsg24
Nsg25
Nssg6
S'V. Fischer'
p2914
sg27
I23
sg13
Nsg28
Nsg29
S'Denmark'
p2915
sg31
Nsba(i__main__
Player
p2916
(dp2917
g17
(dp2918
g19
Nsg20
I75
sg21
I68
sg22
Nsg23
Nsg24
Nsg25
Nssg6
S'M. J\xc3\xb8rgensen'
p2919
sg27
I27
sg13
Nsg28
Nsg29
S'Denmark'
p2920
sg31
Nsba(i__main__
Player
p2921
(dp2922
g17
(dp2923
g19
Nsg20
I74
sg21
I83
sg22
Nsg23
Nsg24
Nsg25
Nssg6
S'P. Sisto'
p2924
sg27
I22
sg13
Nsg28
Nsg29
S'Denmark'
p2925
sg31
Nsba(i__main__
Player
p2926
(dp2927
g17
(dp2928
g19
Nsg20
I73
sg21
I46
sg22
Nsg23
Nsg24
Nsg25
Nssg6
S'F. R\xc3\xb8nnow'
p2929
sg27
I24
sg13
Nsg28
Nsg29
S'Denmark'
p2930
sg31
Nsba(i__main__
Player
p2931
(dp2932
g17
(dp2933
g19
Nsg20
I73
sg21
I69
sg22
Nsg23
Nsg24
Nsg25
Nssg6
S'A. Cornelius'
p2934
sg27
I24
sg13
Nsg28
Nsg29
S'Denmark'
p2935
sg31
Nsba(i__main__
Player
p2936
(dp2937
g17
(dp2938
g19
Nsg20
I71
sg21
I60
sg22
Nsg23
Nsg24
Nsg25
Nssg6
S'J. Poulsen'
p2939
sg27
I33
sg13
Nsg28
Nsg29
S'Denmark'
p2940
sg31
Nsba(i__main__
Player
p2941
(dp2942
g17
(dp2943
g19
Nsg20
I71
sg21
I82
sg22
Nsg23
Nsg24
Nsg25
Nssg6
S'H. Dalsgaard'
p2944
sg27
I27
sg13
Nsg28
Nsg29
S'Denmark'
p2945
sg31
Nsba(i__main__
Player
p2946
(dp2947
g17
(dp2948
g19
Nsg20
I70
sg21
I50
sg22
Nsg23
Nsg24
Nsg25
Nssg6
S'W. Kvist'
p2949
sg27
I32
sg13
Nsg28
Nsg29
S'Denmark'
p2950
sg31
Nsba(i__main__
Player
p2951
(dp2952
g17
(dp2953
g19
Nsg20
I70
sg21
I72
sg22
Nsg23
Nsg24
Nsg25
Nssg6
S'K. Larsen'
p2954
sg27
I24
sg13
Nsg28
Nsg29
S'Denmark'
p2955
sg31
Nsba(i__main__
Player
p2956
(dp2957
g17
(dp2958
g19
Nsg20
I69
sg21
I77
sg22
Nsg23
Nsg24
Nsg25
Nssg6
S'J. Knudsen'
p2959
sg27
I24
sg13
Nsg28
Nsg29
S'Denmark'
p2960
sg31
Nsba(i__main__
Player
p2961
(dp2962
g17
(dp2963
g19
Nsg20
I69
sg21
I83
sg22
Nsg23
Nsg24
Nsg25
Nssg6
S'J. Stryger Larsen'
p2964
sg27
I26
sg13
Nsg28
Nsg29
S'Denmark'
p2965
sg31
Nsba(i__main__
Player
p2966
(dp2967
g17
(dp2968
g19
Nsg20
I68
sg21
I75
sg22
Nsg23
Nsg24
Nsg25
Nssg6
S'L. Christensen'
p2969
sg27
I22
sg13
Nsg28
Nsg29
S'Denmark'
p2970
sg31
Nsbasg145
I2
sg146
F75.0
sba(i__main__
Team
p2971
(dp2972
g3
Nsg4
I1311320
sg5
I70
sg6
S'Spain'
p2973
sg8
F173.6132
sg9
I86
sg10
I1
sg11
I6
sg12
I3
sg13
(lp2974
(i__main__
Player
p2975
(dp2976
g17
(dp2977
g19
Nsg20
I90
sg21
I57
sg22
Nsg23
Nsg24
Nsg25
Nssg6
S'De Gea'
p2978
sg27
I26
sg13
Nsg28
Nsg29
S'Spain'
p2979
sg31
Nsba(i__main__
Player
p2980
(dp2981
g17
(dp2982
g19
Nsg20
I88
sg21
I72
sg22
Nsg23
Nsg24
Nsg25
Nssg6
S'Thiago'
p2983
sg27
I26
sg13
Nsg28
Nsg29
S'Spain'
p2984
sg31
Nsba(i__main__
Player
p2985
(dp2986
g17
(dp2987
g19
Nsg20
I87
sg21
I68
sg22
Nsg23
Nsg24
Nsg25
Nssg6
S'David Silva'
p2988
sg27
I31
sg13
Nsg28
Nsg29
S'Spain'
p2989
sg31
Nsba(i__main__
Player
p2990
(dp2991
g17
(dp2992
g19
Nsg20
I87
sg21
I64
sg22
Nsg23
Nsg24
Nsg25
Nssg6
S'Piqu\xc3\xa9'
p2993
sg27
I30
sg13
Nsg28
Nsg29
S'Spain'
p2994
sg31
Nsba(i__main__
Player
p2995
(dp2996
g17
(dp2997
g19
Nsg20
I87
sg21
I71
sg22
Nsg23
Nsg24
Nsg25
Nssg6
S'Iniesta'
p2998
sg27
I33
sg13
Nsg28
Nsg29
S'Spain'
p2999
sg31
Nsba(i__main__
Player
p3000
(dp3001
g17
(dp3002
g19
Nsg20
I86
sg21
I71
sg22
Nsg23
Nsg24
Nsg25
Nssg6
S'Isco'
p3003
sg27
I25
sg13
Nsg28
Nsg29
S'Spain'
p3004
sg31
Nsba(i__main__
Player
p3005
(dp3006
g17
(dp3007
g19
Nsg20
I86
sg21
I41
sg22
Nsg23
Nsg24
Nsg25
Nssg6
S'Sergio Busquets'
p3008
sg27
I28
sg13
Nsg28
Nsg29
S'Spain'
p3009
sg31
Nsba(i__main__
Player
p3010
(dp3011
g17
(dp3012
g19
Nsg20
I86
sg21
I74
sg22
Nsg23
Nsg24
Nsg25
Nssg6
S'Diego Costa'
p3013
sg27
I28
sg13
Nsg28
Nsg29
S'Spain'
p3014
sg31
Nsba(i__main__
Player
p3015
(dp3016
g17
(dp3017
g19
Nsg20
I85
sg21
I93
sg22
Nsg23
Nsg24
Nsg25
Nssg6
S'Jordi Alba'
p3018
sg27
I28
sg13
Nsg28
Nsg29
S'Spain'
p3019
sg31
Nsba(i__main__
Player
p3020
(dp3021
g17
(dp3022
g19
Nsg20
I85
sg21
I78
sg22
Nsg23
Nsg24
Nsg25
Nssg6
S'Azpilicueta'
p3023
sg27
I27
sg13
Nsg28
Nsg29
S'Spain'
p3024
sg31
Nsba(i__main__
Player
p3025
(dp3026
g17
(dp3027
g19
Nsg20
I84
sg21
I78
sg22
Nsg23
Nsg24
Nsg25
Nssg6
S'Marco Asensio'
p3028
sg27
I21
sg13
Nsg28
Nsg29
S'Spain'
p3029
sg31
Nsbasg82
I80
sg83
(lp3030
(i__main__
Player
p3031
(dp3032
g17
(dp3033
g19
Nsg20
I84
sg21
I81
sg22
Nsg23
Nsg24
Nsg25
Nssg6
S'Carvajal'
p3034
sg27
I25
sg13
Nsg28
Nsg29
S'Spain'
p3035
sg31
Nsba(i__main__
Player
p3036
(dp3037
g17
(dp3038
g19
Nsg20
I84
sg21
I70
sg22
Nsg23
Nsg24
Nsg25
Nssg6
S'Koke'
p3039
sg27
I25
sg13
Nsg28
Nsg29
S'Spain'
p3040
sg31
Nsba(i__main__
Player
p3041
(dp3042
g17
(dp3043
g19
Nsg20
I83
sg21
I81
sg22
Nsg23
Nsg24
Nsg25
Nssg6
S'Iago Aspas'
p3044
sg27
I29
sg13
Nsg28
Nsg29
S'Spain'
p3045
sg31
Nsba(i__main__
Player
p3046
(dp3047
g17
(dp3048
g19
Nsg20
I83
sg21
I56
sg22
Nsg23
Nsg24
Nsg25
Nssg6
S'Jos\xc3\xa9 Reina'
p3049
sg27
I34
sg13
Nsg28
Nsg29
S'Spain'
p3050
sg31
Nsba(i__main__
Player
p3051
(dp3052
g17
(dp3053
g19
Nsg20
I82
sg21
I81
sg22
Nsg23
Nsg24
Nsg25
Nssg6
S'Lucas V\xc3\xa1zquez'
p3054
sg27
I26
sg13
Nsg28
Nsg29
S'Spain'
p3055
sg31
Nsba(i__main__
Player
p3056
(dp3057
g17
(dp3058
g19
Nsg20
I82
sg21
I72
sg22
Nsg23
Nsg24
Nsg25
Nssg6
S'Sa\xc3\xbal'
p3059
sg27
I22
sg13
Nsg28
Nsg29
S'Spain'
p3060
sg31
Nsba(i__main__
Player
p3061
(dp3062
g17
(dp3063
g19
Nsg20
I80
sg21
I33
sg22
Nsg23
Nsg24
Nsg25
Nssg6
S'Arrizabalaga'
p3064
sg27
I22
sg13
Nsg28
Nsg29
S'Spain'
p3065
sg31
Nsba(i__main__
Player
p3066
(dp3067
g17
(dp3068
g19
Nsg20
I80
sg21
I73
sg22
Nsg23
Nsg24
Nsg25
Nssg6
S'Nacho Monreal'
p3069
sg27
I31
sg13
Nsg28
Nsg29
S'Spain'
p3070
sg31
Nsba(i__main__
Player
p3071
(dp3072
g17
(dp3073
g19
Nsg20
I79
sg21
I83
sg22
Nsg23
Nsg24
Nsg25
Nssg6
S'Jaume Costa'
p3074
sg27
I29
sg13
Nsg28
Nsg29
S'Spain'
p3075
sg31
Nsba(i__main__
Player
p3076
(dp3077
g17
(dp3078
g19
Nsg20
I78
sg21
I90
sg22
Nsg23
Nsg24
Nsg25
Nssg6
S'Rodrigo'
p3079
sg27
I26
sg13
Nsg28
Nsg29
S'Spain'
p3080
sg31
Nsba(i__main__
Player
p3081
(dp3082
g17
(dp3083
g19
Nsg20
I78
sg21
I90
sg22
Nsg23
Nsg24
Nsg25
Nssg6
S'Rodrigo'
p3084
sg27
I26
sg13
Nsg28
Nsg29
S'Spain'
p3085
sg31
Nsba(i__main__
Player
p3086
(dp3087
g17
(dp3088
g19
Nsg20
I76
sg21
I47
sg22
Nsg23
Nsg24
Nsg25
Nssg6
S'V\xc3\xadctor V\xc3\xa1zquez'
p3089
sg27
I30
sg13
Nsg28
Nsg29
S'Spain'
p3090
sg31
Nsbasg145
I2
sg146
F5.5
sba(i__main__
Team
p3091
(dp3092
g3
Nsg4
I1149919
sg5
I73
sg6
S'Mexico'
p3093
sg8
F125.49919
sg9
I79
sg10
I1
sg11
I16
sg12
I3
sg13
(lp3094
(i__main__
Player
p3095
(dp3096
g17
(dp3097
g19
Nsg20
I82
sg21
I79
sg22
Nsg23
Nsg24
Nsg25
Nssg6
S'J. Hern\xc3\xa1ndez'
p3098
sg27
I29
sg13
Nsg28
Nsg29
S'Mexico'
p3099
sg31
Nsba(i__main__
Player
p3100
(dp3101
g17
(dp3102
g19
Nsg20
I82
sg21
I84
sg22
Nsg23
Nsg24
Nsg25
Nssg6
S'C. Vela'
p3103
sg27
I28
sg13
Nsg28
Nsg29
S'Mexico'
p3104
sg31
Nsba(i__main__
Player
p3105
(dp3106
g17
(dp3107
g19
Nsg20
I81
sg21
I83
sg22
Nsg23
Nsg24
Nsg25
Nssg6
S'J. Corona'
p3108
sg27
I24
sg13
Nsg28
Nsg29
S'Mexico'
p3109
sg31
Nsba(i__main__
Player
p3110
(dp3111
g17
(dp3112
g19
Nsg20
I80
sg21
I66
sg22
Nsg23
Nsg24
Nsg25
Nssg6
S'H. Moreno'
p3113
sg27
I29
sg13
Nsg28
Nsg29
S'Mexico'
p3114
sg31
Nsba(i__main__
Player
p3115
(dp3116
g17
(dp3117
g19
Nsg20
I80
sg21
I76
sg22
Nsg23
Nsg24
Nsg25
Nssg6
S'A. Guardado'
p3118
sg27
I30
sg13
Nsg28
Nsg29
S'Mexico'
p3119
sg31
Nsba(i__main__
Player
p3120
(dp3121
g17
(dp3122
g19
Nsg20
I80
sg21
I66
sg22
Nsg23
Nsg24
Nsg25
Nssg6
S'J. dos Santos'
p3123
sg27
I27
sg13
Nsg28
Nsg29
S'Mexico'
p3124
sg31
Nsba(i__main__
Player
p3125
(dp3126
g17
(dp3127
g19
Nsg20
I79
sg21
I72
sg22
Nsg23
Nsg24
Nsg25
Nssg6
S'M. Fabi\xc3\xa1n'
p3128
sg27
I27
sg13
Nsg28
Nsg29
S'Mexico'
p3129
sg31
Nsba(i__main__
Player
p3130
(dp3131
g17
(dp3132
g19
Nsg20
I79
sg21
I86
sg22
Nsg23
Nsg24
Nsg25
Nssg6
S'G. dos Santos'
p3133
sg27
I28
sg13
Nsg28
Nsg29
S'Mexico'
p3134
sg31
Nsba(i__main__
Player
p3135
(dp3136
g17
(dp3137
g19
Nsg20
I79
sg21
I73
sg22
Nsg23
Nsg24
Nsg25
Nssg6
S'H. Herrera'
p3138
sg27
I27
sg13
Nsg28
Nsg29
S'Mexico'
p3139
sg31
Nsba(i__main__
Player
p3140
(dp3141
g17
(dp3142
g19
Nsg20
I79
sg21
I48
sg22
Nsg23
Nsg24
Nsg25
Nssg6
S'G. Ochoa'
p3143
sg27
I31
sg13
Nsg28
Nsg29
S'Mexico'
p3144
sg31
Nsba(i__main__
Player
p3145
(dp3146
g17
(dp3147
g19
Nsg20
I78
sg21
I93
sg22
Nsg23
Nsg24
Nsg25
Nssg6
S'H. Lozano'
p3148
sg27
I21
sg13
Nsg28
Nsg29
S'Mexico'
p3149
sg31
Nsbasg82
I75
sg83
(lp3150
(i__main__
Player
p3151
(dp3152
g17
(dp3153
g19
Nsg20
I78
sg21
I76
sg22
Nsg23
Nsg24
Nsg25
Nssg6
S'R. Jim\xc3\xa9nez'
p3154
sg27
I26
sg13
Nsg28
Nsg29
S'Mexico'
p3155
sg31
Nsba(i__main__
Player
p3156
(dp3157
g17
(dp3158
g19
Nsg20
I78
sg21
I77
sg22
Nsg23
Nsg24
Nsg25
Nssg6
S'M. Lay\xc3\xban'
p3159
sg27
I29
sg13
Nsg28
Nsg29
S'Mexico'
p3160
sg31
Nsba(i__main__
Player
p3161
(dp3162
g17
(dp3163
g19
Nsg20
I77
sg21
I91
sg22
Nsg23
Nsg24
Nsg25
Nssg6
S'J. Aquino'
p3164
sg27
I27
sg13
Nsg28
Nsg29
S'Mexico'
p3165
sg31
Nsba(i__main__
Player
p3166
(dp3167
g17
(dp3168
g19
Nsg20
I77
sg21
I74
sg22
Nsg23
Nsg24
Nsg25
Nssg6
S'E. Hern\xc3\xa1ndez'
p3169
sg27
I29
sg13
Nsg28
Nsg29
S'Mexico'
p3170
sg31
Nsba(i__main__
Player
p3171
(dp3172
g17
(dp3173
g19
Nsg20
I76
sg21
I70
sg22
Nsg23
Nsg24
Nsg25
Nssg6
S'O. Peralta'
p3174
sg27
I33
sg13
Nsg28
Nsg29
S'Mexico'
p3175
sg31
Nsba(i__main__
Player
p3176
(dp3177
g17
(dp3178
g19
Nsg20
I76
sg21
I77
sg22
Nsg23
Nsg24
Nsg25
Nssg6
S'E. Guti\xc3\xa9rrez'
p3179
sg27
I22
sg13
Nsg28
Nsg29
S'Mexico'
p3180
sg31
Nsba(i__main__
Player
p3181
(dp3182
g17
(dp3183
g19
Nsg20
I76
sg21
I39
sg22
Nsg23
Nsg24
Nsg25
Nssg6
S'J. Corona'
p3184
sg27
I36
sg13
Nsg28
Nsg29
S'Mexico'
p3185
sg31
Nsba(i__main__
Player
p3186
(dp3187
g17
(dp3188
g19
Nsg20
I75
sg21
I70
sg22
Nsg23
Nsg24
Nsg25
Nssg6
S'J. Hern\xc3\xa1ndez'
p3189
sg27
I28
sg13
Nsg28
Nsg29
S'Mexico'
p3190
sg31
Nsba(i__main__
Player
p3191
(dp3192
g17
(dp3193
g19
Nsg20
I75
sg21
I67
sg22
Nsg23
Nsg24
Nsg25
Nssg6
S'H. Ayala'
p3194
sg27
I30
sg13
Nsg28
Nsg29
S'Mexico'
p3195
sg31
Nsba(i__main__
Player
p3196
(dp3197
g17
(dp3198
g19
Nsg20
I74
sg21
I67
sg22
Nsg23
Nsg24
Nsg25
Nssg6
S'C. Salcedo'
p3199
sg27
I23
sg13
Nsg28
Nsg29
S'Mexico'
p3200
sg31
Nsba(i__main__
Player
p3201
(dp3202
g17
(dp3203
g19
Nsg20
I72
sg21
I77
sg22
Nsg23
Nsg24
Nsg25
Nssg6
S'E. Hern\xc3\xa1ndez'
p3204
sg27
I30
sg13
Nsg28
Nsg29
S'Mexico'
p3205
sg31
Nsba(i__main__
Player
p3206
(dp3207
g17
(dp3208
g19
Nsg20
I72
sg21
I70
sg22
Nsg23
Nsg24
Nsg25
Nssg6
S'I. Jim\xc3\xa9nez'
p3209
sg27
I27
sg13
Nsg28
Nsg29
S'Mexico'
p3210
sg31
Nsbasg145
I2
sg146
F40.0
sba(i__main__
Team
p3211
(dp3212
g3
Nsg4
I54849
sg5
I67
sg6
S'Croatia'
p3213
sg8
F139.54849
sg9
I82
sg10
I1
sg11
I17
sg12
I3
sg13
(lp3214
(i__main__
Player
p3215
(dp3216
g17
(dp3217
g19
Nsg20
I87
sg21
I65
sg22
Nsg23
Nsg24
Nsg25
Nssg6
S'I. Rakiti\xc4\x87'
p3218
sg27
I29
sg13
Nsg28
Nsg29
S'Croatia'
p3219
sg31
Nsba(i__main__
Player
p3220
(dp3221
g17
(dp3222
g19
Nsg20
I85
sg21
I52
sg22
Nsg23
Nsg24
Nsg25
Nssg6
S'D. Suba\xc5\xa1i\xc4\x87'
p3223
sg27
I32
sg13
Nsg28
Nsg29
S'Croatia'
p3224
sg31
Nsba(i__main__
Player
p3225
(dp3226
g17
(dp3227
g19
Nsg20
I84
sg21
I84
sg22
Nsg23
Nsg24
Nsg25
Nssg6
S'I. Peri\xc5\xa1i\xc4\x87'
p3228
sg27
I28
sg13
Nsg28
Nsg29
S'Croatia'
p3229
sg31
Nsba(i__main__
Player
p3230
(dp3231
g17
(dp3232
g19
Nsg20
I83
sg21
I72
sg22
Nsg23
Nsg24
Nsg25
Nssg6
S'M. Mand\xc5\xbeuki\xc4\x87'
p3233
sg27
I31
sg13
Nsg28
Nsg29
S'Croatia'
p3234
sg31
Nsba(i__main__
Player
p3235
(dp3236
g17
(dp3237
g19
Nsg20
I82
sg21
I81
sg22
Nsg23
Nsg24
Nsg25
Nssg6
S'M. Kova\xc4\x8di\xc4\x87'
p3238
sg27
I23
sg13
Nsg28
Nsg29
S'Croatia'
p3239
sg31
Nsba(i__main__
Player
p3240
(dp3241
g17
(dp3242
g19
Nsg20
I82
sg21
I57
sg22
Nsg23
Nsg24
Nsg25
Nssg6
S'V. \xc4\x86orluka'
p3243
sg27
I31
sg13
Nsg28
Nsg29
S'Croatia'
p3244
sg31
Nsba(i__main__
Player
p3245
(dp3246
g17
(dp3247
g19
Nsg20
I81
sg21
I73
sg22
Nsg23
Nsg24
Nsg25
Nssg6
S'A. Kramari\xc4\x87'
p3248
sg27
I26
sg13
Nsg28
Nsg29
S'Croatia'
p3249
sg31
Nsba(i__main__
Player
p3250
(dp3251
g17
(dp3252
g19
Nsg20
I81
sg21
I73
sg22
Nsg23
Nsg24
Nsg25
Nssg6
S'M. Brozovi\xc4\x87'
p3253
sg27
I24
sg13
Nsg28
Nsg29
S'Croatia'
p3254
sg31
Nsba(i__main__
Player
p3255
(dp3256
g17
(dp3257
g19
Nsg20
I81
sg21
I56
sg22
Nsg23
Nsg24
Nsg25
Nssg6
S'D. Lovren'
p3258
sg27
I27
sg13
Nsg28
Nsg29
S'Croatia'
p3259
sg31
Nsba(i__main__
Player
p3260
(dp3261
g17
(dp3262
g19
Nsg20
I81
sg21
I73
sg22
Nsg23
Nsg24
Nsg25
Nssg6
S'N. Kalini\xc4\x87'
p3263
sg27
I29
sg13
Nsg28
Nsg29
S'Croatia'
p3264
sg31
Nsba(i__main__
Player
p3265
(dp3266
g17
(dp3267
g19
Nsg20
I79
sg21
I80
sg22
Nsg23
Nsg24
Nsg25
Nssg6
S'S. Vrsaljko'
p3268
sg27
I25
sg13
Nsg28
Nsg29
S'Croatia'
p3269
sg31
Nsbasg82
I72
sg83
(lp3270
(i__main__
Player
p3271
(dp3272
g17
(dp3273
g19
Nsg20
I78
sg21
I59
sg22
Nsg23
Nsg24
Nsg25
Nssg6
S'M. Badelj'
p3274
sg27
I28
sg13
Nsg28
Nsg29
S'Croatia'
p3275
sg31
Nsba(i__main__
Player
p3276
(dp3277
g17
(dp3278
g19
Nsg20
I78
sg21
I59
sg22
Nsg23
Nsg24
Nsg25
Nssg6
S'M. Badelj'
p3279
sg27
I28
sg13
Nsg28
Nsg29
S'Croatia'
p3280
sg31
Nsba(i__main__
Player
p3281
(dp3282
g17
(dp3283
g19
Nsg20
I77
sg21
I34
sg22
Nsg23
Nsg24
Nsg25
Nssg6
S'L. Kalini\xc4\x87'
p3284
sg27
I27
sg13
Nsg28
Nsg29
S'Croatia'
p3285
sg31
Nsba(i__main__
Player
p3286
(dp3287
g17
(dp3288
g19
Nsg20
I77
sg21
I67
sg22
Nsg23
Nsg24
Nsg25
Nssg6
g758
sg27
I25
sg13
Nsg28
Nsg29
g3213
sg31
Nsba(i__main__
Player
p3289
(dp3290
g17
(dp3291
g19
Nsg20
I77
sg21
I67
sg22
Nsg23
Nsg24
Nsg25
Nssg6
g758
sg27
I25
sg13
Nsg28
Nsg29
g3213
sg31
Nsba(i__main__
Player
p3292
(dp3293
g17
(dp3294
g19
Nsg20
I76
sg21
I72
sg22
Nsg23
Nsg24
Nsg25
Nssg6
S'T. Jedvaj'
p3295
sg27
I21
sg13
Nsg28
Nsg29
S'Croatia'
p3296
sg31
Nsba(i__main__
Player
p3297
(dp3298
g17
(dp3299
g19
Nsg20
I76
sg21
I84
sg22
Nsg23
Nsg24
Nsg25
Nssg6
S'M. Pjaca'
p3300
sg27
I22
sg13
Nsg28
Nsg29
S'Croatia'
p3301
sg31
Nsba(i__main__
Player
p3302
(dp3303
g17
(dp3304
g19
Nsg20
I75
sg21
I74
sg22
Nsg23
Nsg24
Nsg25
Nssg6
S'I. Strini\xc4\x87'
p3305
sg27
I29
sg13
Nsg28
Nsg29
S'Croatia'
p3306
sg31
Nsba(i__main__
Player
p3307
(dp3308
g17
(dp3309
g19
Nsg20
I72
sg21
I77
sg22
Nsg23
Nsg24
Nsg25
Nssg6
S'A. Rebi\xc4\x87'
p3310
sg27
I23
sg13
Nsg28
Nsg29
S'Croatia'
p3311
sg31
Nsba(i__main__
Player
p3312
(dp3313
g17
(dp3314
g19
Nsg20
I71
sg21
I64
sg22
Nsg23
Nsg24
Nsg25
Nssg6
S'D. \xc4\x86aleta-Car'
p3315
sg27
I20
sg13
Nsg28
Nsg29
S'Croatia'
p3316
sg31
Nsba(i__main__
Player
p3317
(dp3318
g17
(dp3319
g19
Nsg20
I58
sg21
I62
sg22
Nsg23
Nsg24
Nsg25
Nssg6
S'D. Kova\xc4\x8di\xc4\x87'
p3320
sg27
I23
sg13
Nsg28
Nsg29
S'Croatia'
p3321
sg31
Nsba(i__main__
Player
p3322
(dp3323
g17
(dp3324
g19
Nsg20
I58
sg21
I76
sg22
Nsg23
Nsg24
Nsg25
Nssg6
S'D. Lovren'
p3325
sg27
I18
sg13
Nsg28
Nsg29
S'Croatia'
p3326
sg31
Nsbasg145
I2
sg146
F15.0
sba(i__main__
Team
p3327
(dp3328
g3
Nsg4
I56157
sg5
I71
sg6
S'Uruguay'
p3329
sg8
F124.56157
sg9
I81
sg10
I1
sg11
I21
sg12
I3
sg13
(lp3330
(i__main__
Player
p3331
(dp3332
g17
(dp3333
g19
Nsg20
I92
sg21
I82
sg22
Nsg23
Nsg24
Nsg25
Nssg6
S'L. Su\xc3\xa1rez'
p3334
sg27
I30
sg13
Nsg28
Nsg29
S'Uruguay'
p3335
sg31
Nsba(i__main__
Player
p3336
(dp3337
g17
(dp3338
g19
Nsg20
I87
sg21
I76
sg22
Nsg23
Nsg24
Nsg25
Nssg6
S'E. Cavani'
p3339
sg27
I30
sg13
Nsg28
Nsg29
S'Uruguay'
p3340
sg31
Nsba(i__main__
Player
p3341
(dp3342
g17
(dp3343
g19
Nsg20
I83
sg21
I70
sg22
Nsg23
Nsg24
Nsg25
Nssg6
S'J. Gim\xc3\xa9nez'
p3344
sg27
I22
sg13
Nsg28
Nsg29
S'Uruguay'
p3345
sg31
Nsba(i__main__
Player
p3346
(dp3347
g17
(dp3348
g19
Nsg20
I82
sg21
I61
sg22
Nsg23
Nsg24
Nsg25
Nssg6
S'F. Muslera'
p3349
sg27
I31
sg13
Nsg28
Nsg29
S'Uruguay'
p3350
sg31
Nsba(i__main__
Player
p3351
(dp3352
g17
(dp3353
g19
Nsg20
I81
sg21
I57
sg22
Nsg23
Nsg24
Nsg25
Nssg6
S'S. Coates'
p3354
sg27
I26
sg13
Nsg28
Nsg29
S'Uruguay'
p3355
sg31
Nsba(i__main__
Player
p3356
(dp3357
g17
(dp3358
g19
Nsg20
I79
sg21
I44
sg22
Nsg23
Nsg24
Nsg25
Nssg6
S'M. Campa\xc3\xb1a'
p3359
sg27
I28
sg13
Nsg28
Nsg29
S'Uruguay'
p3360
sg31
Nsba(i__main__
Player
p3361
(dp3362
g17
(dp3363
g19
Nsg20
I78
sg21
I68
sg22
Nsg23
Nsg24
Nsg25
Nssg6
S'M. Vecino'
p3364
sg27
I25
sg13
Nsg28
Nsg29
S'Uruguay'
p3365
sg31
Nsba(i__main__
Player
p3366
(dp3367
g17
(dp3368
g19
Nsg20
I78
sg21
I88
sg22
Nsg23
Nsg24
Nsg25
Nssg6
S'D. Laxalt'
p3369
sg27
I24
sg13
Nsg28
Nsg29
S'Uruguay'
p3370
sg31
Nsba(i__main__
Player
p3371
(dp3372
g17
(dp3373
g19
Nsg20
I78
sg21
I88
sg22
Nsg23
Nsg24
Nsg25
Nssg6
S'D. Laxalt'
p3374
sg27
I24
sg13
Nsg28
Nsg29
S'Uruguay'
p3375
sg31
Nsba(i__main__
Player
p3376
(dp3377
g17
(dp3378
g19
Nsg20
I77
sg21
I69
sg22
Nsg23
Nsg24
Nsg25
Nssg6
S'C. Stuani'
p3379
sg27
I30
sg13
Nsg28
Nsg29
S'Uruguay'
p3380
sg31
Nsba(i__main__
Player
p3381
(dp3382
g17
(dp3383
g19
Nsg20
I77
sg21
I88
sg22
Nsg23
Nsg24
Nsg25
Nssg6
S'C. S\xc3\xa1nchez'
p3384
sg27
I32
sg13
Nsg28
Nsg29
S'Uruguay'
p3385
sg31
Nsbasg82
I73
sg83
(lp3386
(i__main__
Player
p3387
(dp3388
g17
(dp3389
g19
Nsg20
I77
sg21
I74
sg22
Nsg23
Nsg24
Nsg25
Nssg6
S'M. C\xc3\xa1ceres'
p3390
sg27
I30
sg13
Nsg28
Nsg29
S'Uruguay'
p3391
sg31
Nsba(i__main__
Player
p3392
(dp3393
g17
(dp3394
g19
Nsg20
I75
sg21
I70
sg22
Nsg23
Nsg24
Nsg25
Nssg6
S'C. Rodr\xc3\xadguez'
p3395
sg27
I31
sg13
Nsg28
Nsg29
S'Uruguay'
p3396
sg31
Nsba(i__main__
Player
p3397
(dp3398
g17
(dp3399
g19
Nsg20
I75
sg21
I77
sg22
Nsg23
Nsg24
Nsg25
Nssg6
S'L. Torreira'
p3400
sg27
I21
sg13
Nsg28
Nsg29
S'Uruguay'
p3401
sg31
Nsba(i__main__
Player
p3402
(dp3403
g17
(dp3404
g19
Nsg20
I74
sg21
I80
sg22
Nsg23
Nsg24
Nsg25
Nssg6
S'D. Su\xc3\xa1rez'
p3405
sg27
I29
sg13
Nsg28
Nsg29
S'Uruguay'
p3406
sg31
Nsba(i__main__
Player
p3407
(dp3408
g17
(dp3409
g19
Nsg20
I74
sg21
I84
sg22
Nsg23
Nsg24
Nsg25
Nssg6
S'J. Urretaviscaya'
p3410
sg27
I27
sg13
Nsg28
Nsg29
S'Uruguay'
p3411
sg31
Nsba(i__main__
Player
p3412
(dp3413
g17
(dp3414
g19
Nsg20
I73
sg21
I65
sg22
Nsg23
Nsg24
Nsg25
Nssg6
S'M. G\xc3\xb3mez'
p3415
sg27
I20
sg13
Nsg28
Nsg29
S'Uruguay'
p3416
sg31
Nsba(i__main__
Player
p3417
(dp3418
g17
(dp3419
g19
Nsg20
I73
sg21
I63
sg22
Nsg23
Nsg24
Nsg25
Nssg6
S'D. Rodr\xc3\xadguez'
p3420
sg27
I27
sg13
Nsg28
Nsg29
S'Uruguay'
p3421
sg31
Nsba(i__main__
Player
p3422
(dp3423
g17
(dp3424
g19
Nsg20
I73
sg21
I75
sg22
Nsg23
Nsg24
Nsg25
Nssg6
S'A. Silva'
p3425
sg27
I27
sg13
Nsg28
Nsg29
S'Uruguay'
p3426
sg31
Nsba(i__main__
Player
p3427
(dp3428
g17
(dp3429
g19
Nsg20
I72
sg21
I70
sg22
Nsg23
Nsg24
Nsg25
Nssg6
S'G. Silva'
p3430
sg27
I23
sg13
Nsg28
Nsg29
S'Uruguay'
p3431
sg31
Nsba(i__main__
Player
p3432
(dp3433
g17
(dp3434
g19
Nsg20
I72
sg21
I85
sg22
Nsg23
Nsg24
Nsg25
Nssg6
S'J. Rodr\xc3\xadguez'
p3435
sg27
I23
sg13
Nsg28
Nsg29
S'Uruguay'
p3436
sg31
Nsba(i__main__
Player
p3437
(dp3438
g17
(dp3439
g19
Nsg20
I71
sg21
I49
sg22
Nsg23
Nsg24
Nsg25
Nssg6
S'M. Silva'
p3440
sg27
I28
sg13
Nsg28
Nsg29
S'Uruguay'
p3441
sg31
Nsba(i__main__
Player
p3442
(dp3443
g17
(dp3444
g19
Nsg20
I70
sg21
I70
sg22
Nsg23
Nsg24
Nsg25
Nssg6
S'N. N\xc3\xa1ndez'
p3445
sg27
I21
sg13
Nsg28
Nsg29
S'Uruguay'
p3446
sg31
Nsbasg145
I2
sg146
F30.0
sba(i__main__
Team
p3447
(dp3448
g3
Nsg4
I683827
sg5
I60
sg6
S'Saudi Arabia'
p3449
sg8
F-871.16173
sg9
I65
sg10
I1
sg11
I63
sg12
I3
sg13
(lp3450
(i__main__
Player
p3451
(dp3452
g17
(dp3453
g19
Nsg20
I75
sg21
I71
sg22
Nsg23
Nsg24
Nsg25
Nssg6
S'O. Hawsawi'
p3454
sg27
I33
sg13
Nsg28
Nsg29
S'Saudi Arabia'
p3455
sg31
Nsba(i__main__
Player
p3456
(dp3457
g17
(dp3458
g19
Nsg20
I74
sg21
I66
sg22
Nsg23
Nsg24
Nsg25
Nssg6
S'M. Hawsawi'
p3459
sg27
I25
sg13
Nsg28
Nsg29
S'Saudi Arabia'
p3460
sg31
Nsba(i__main__
Player
p3461
(dp3462
g17
(dp3463
g19
Nsg20
I71
sg21
I63
sg22
Nsg23
Nsg24
Nsg25
Nssg6
S'A. Asiri'
p3464
sg27
I25
sg13
Nsg28
Nsg29
S'Saudi Arabia'
p3465
sg31
Nsba(i__main__
Player
p3466
(dp3467
g17
(dp3468
g19
Nsg20
I67
sg21
I74
sg22
Nsg23
Nsg24
Nsg25
Nssg6
S'M. Kanno'
p3469
sg27
I22
sg13
Nsg28
Nsg29
S'Saudi Arabia'
p3470
sg31
Nsba(i__main__
Player
p3471
(dp3472
g17
(dp3473
g19
Nsg20
I66
sg21
I77
sg22
Nsg23
Nsg24
Nsg25
Nssg6
S'H. Bahebri'
p3474
sg27
I24
sg13
Nsg28
Nsg29
S'Saudi Arabia'
p3475
sg31
Nsba(i__main__
Player
p3476
(dp3477
g17
(dp3478
g19
Nsg20
I61
sg21
I60
sg22
Nsg23
Nsg24
Nsg25
Nssg6
g758
sg27
I25
sg13
Nsg28
Nsg29
g3449
sg31
Nsba(i__main__
Player
p3479
(dp3480
g17
(dp3481
g19
Nsg20
I61
sg21
I60
sg22
Nsg23
Nsg24
Nsg25
Nssg6
g758
sg27
I25
sg13
Nsg28
Nsg29
g3449
sg31
Nsba(i__main__
Player
p3482
(dp3483
g17
(dp3484
g19
Nsg20
I61
sg21
I60
sg22
Nsg23
Nsg24
Nsg25
Nssg6
g758
sg27
I25
sg13
Nsg28
Nsg29
g3449
sg31
Nsba(i__main__
Player
p3485
(dp3486
g17
(dp3487
g19
Nsg20
I61
sg21
I60
sg22
Nsg23
Nsg24
Nsg25
Nssg6
g758
sg27
I25
sg13
Nsg28
Nsg29
g3449
sg31
Nsba(i__main__
Player
p3488
(dp3489
g17
(dp3490
g19
Nsg20
I61
sg21
I60
sg22
Nsg23
Nsg24
Nsg25
Nssg6
g758
sg27
I25
sg13
Nsg28
Nsg29
g3449
sg31
Nsba(i__main__
Player
p3491
(dp3492
g17
(dp3493
g19
Nsg20
I61
sg21
I60
sg22
Nsg23
Nsg24
Nsg25
Nssg6
g758
sg27
I25
sg13
Nsg28
Nsg29
g3449
sg31
Nsbasg82
I57
sg83
(lp3494
(i__main__
Player
p3495
(dp3496
g17
(dp3497
g19
Nsg20
I61
sg21
I60
sg22
Nsg23
Nsg24
Nsg25
Nssg6
g758
sg27
I25
sg13
Nsg28
Nsg29
g3449
sg31
Nsba(i__main__
Player
p3498
(dp3499
g17
(dp3500
g19
Nsg20
I61
sg21
I60
sg22
Nsg23
Nsg24
Nsg25
Nssg6
g758
sg27
I25
sg13
Nsg28
Nsg29
g3449
sg31
Nsba(i__main__
Player
p3501
(dp3502
g17
(dp3503
g19
Nsg20
I61
sg21
I60
sg22
Nsg23
Nsg24
Nsg25
Nssg6
g758
sg27
I25
sg13
Nsg28
Nsg29
g3449
sg31
Nsba(i__main__
Player
p3504
(dp3505
g17
(dp3506
g19
Nsg20
I61
sg21
I60
sg22
Nsg23
Nsg24
Nsg25
Nssg6
g758
sg27
I25
sg13
Nsg28
Nsg29
g3449
sg31
Nsba(i__main__
Player
p3507
(dp3508
g17
(dp3509
g19
Nsg20
I61
sg21
I60
sg22
Nsg23
Nsg24
Nsg25
Nssg6
g758
sg27
I25
sg13
Nsg28
Nsg29
g3449
sg31
Nsba(i__main__
Player
p3510
(dp3511
g17
(dp3512
g19
Nsg20
I58
sg21
I62
sg22
Nsg23
Nsg24
Nsg25
Nssg6
S'O. Hawsawi'
p3513
sg27
I24
sg13
Nsg28
Nsg29
S'Saudi Arabia'
p3514
sg31
Nsba(i__main__
Player
p3515
(dp3516
g17
(dp3517
g19
Nsg20
I58
sg21
I61
sg22
Nsg23
Nsg24
Nsg25
Nssg6
S'S. Otayf'
p3518
sg27
I26
sg13
Nsg28
Nsg29
S'Saudi Arabia'
p3519
sg31
Nsba(i__main__
Player
p3520
(dp3521
g17
(dp3522
g19
Nsg20
I56
sg21
I37
sg22
Nsg23
Nsg24
Nsg25
Nssg6
S'M. Asiri'
p3523
sg27
I24
sg13
Nsg28
Nsg29
S'Saudi Arabia'
p3524
sg31
Nsba(i__main__
Player
p3525
(dp3526
g17
(dp3527
g19
Nsg20
I55
sg21
I60
sg22
Nsg23
Nsg24
Nsg25
Nssg6
S'M. Asiri'
p3528
sg27
I25
sg13
Nsg28
Nsg29
S'Saudi Arabia'
p3529
sg31
Nsba(i__main__
Player
p3530
(dp3531
g17
(dp3532
g19
Nsg20
I55
sg21
I69
sg22
Nsg23
Nsg24
Nsg25
Nssg6
S'A. Al Assiri'
p3533
sg27
I28
sg13
Nsg28
Nsg29
S'Saudi Arabia'
p3534
sg31
Nsba(i__main__
Player
p3535
(dp3536
g17
(dp3537
g19
Nsg20
I55
sg21
I47
sg22
Nsg23
Nsg24
Nsg25
Nssg6
S'S. Hawsawi'
p3538
sg27
I25
sg13
Nsg28
Nsg29
S'Saudi Arabia'
p3539
sg31
Nsba(i__main__
Player
p3540
(dp3541
g17
(dp3542
g19
Nsg20
I52
sg21
I37
sg22
Nsg23
Nsg24
Nsg25
Nssg6
S'H. Hawsawi'
p3543
sg27
I20
sg13
Nsg28
Nsg29
S'Saudi Arabia'
p3544
sg31
Nsbasg145
I2
sg146
F1000.0
sba(i__main__
Team
p3545
(dp3546
g3
Nsg4
I439514
sg5
I72
sg6
S'Iran'
p3547
sg8
F-604.60486
sg9
I72
sg10
I1
sg11
I32
sg12
I3
sg13
(lp3548
(i__main__
Player
p3549
(dp3550
g17
(dp3551
g19
Nsg20
I77
sg21
I82
sg22
Nsg23
Nsg24
Nsg25
Nssg6
S'S. Azmoun'
p3552
sg27
I22
sg13
Nsg28
Nsg29
S'Iran'
p3553
sg31
Nsba(i__main__
Player
p3554
(dp3555
g17
(dp3556
g19
Nsg20
I75
sg21
I85
sg22
Nsg23
Nsg24
Nsg25
Nssg6
S'A. Jahanbakhsh'
p3557
sg27
I23
sg13
Nsg28
Nsg29
S'Iran'
p3558
sg31
Nsba(i__main__
Player
p3559
(dp3560
g17
(dp3561
g19
Nsg20
I73
sg21
I88
sg22
Nsg23
Nsg24
Nsg25
Nssg6
S'M. Mohammadi'
p3562
sg27
I23
sg13
Nsg28
Nsg29
S'Iran'
p3563
sg31
Nsba(i__main__
Player
p3564
(dp3565
g17
(dp3566
g19
Nsg20
I73
sg21
I79
sg22
Nsg23
Nsg24
Nsg25
Nssg6
S'K. Ansarifard'
p3567
sg27
I27
sg13
Nsg28
Nsg29
S'Iran'
p3568
sg31
Nsba(i__main__
Player
p3569
(dp3570
g17
(dp3571
g19
Nsg20
I72
sg21
I77
sg22
Nsg23
Nsg24
Nsg25
Nssg6
S'R. Ghoochannejhad'
p3572
sg27
I29
sg13
Nsg28
Nsg29
S'Iran'
p3573
sg31
Nsba(i__main__
Player
p3574
(dp3575
g17
(dp3576
g19
Nsg20
I71
sg21
I84
sg22
Nsg23
Nsg24
Nsg25
Nssg6
S'S. Ghoddos'
p3577
sg27
I23
sg13
Nsg28
Nsg29
S'Iran'
p3578
sg31
Nsba(i__main__
Player
p3579
(dp3580
g17
(dp3581
g19
Nsg20
I71
sg21
I72
sg22
Nsg23
Nsg24
Nsg25
Nssg6
g758
sg27
I24
sg13
Nsg28
Nsg29
g3547
sg31
Nsba(i__main__
Player
p3582
(dp3583
g17
(dp3584
g19
Nsg20
I71
sg21
I72
sg22
Nsg23
Nsg24
Nsg25
Nssg6
g758
sg27
I24
sg13
Nsg28
Nsg29
g3547
sg31
Nsba(i__main__
Player
p3585
(dp3586
g17
(dp3587
g19
Nsg20
I71
sg21
I72
sg22
Nsg23
Nsg24
Nsg25
Nssg6
g758
sg27
I24
sg13
Nsg28
Nsg29
g3547
sg31
Nsba(i__main__
Player
p3588
(dp3589
g17
(dp3590
g19
Nsg20
I71
sg21
I72
sg22
Nsg23
Nsg24
Nsg25
Nssg6
g758
sg27
I24
sg13
Nsg28
Nsg29
g3547
sg31
Nsba(i__main__
Player
p3591
(dp3592
g17
(dp3593
g19
Nsg20
I71
sg21
I72
sg22
Nsg23
Nsg24
Nsg25
Nssg6
g758
sg27
I24
sg13
Nsg28
Nsg29
g3547
sg31
Nsbasg82
I69
sg83
(lp3594
(i__main__
Player
p3595
(dp3596
g17
(dp3597
g19
Nsg20
I71
sg21
I72
sg22
Nsg23
Nsg24
Nsg25
Nssg6
g758
sg27
I24
sg13
Nsg28
Nsg29
g3547
sg31
Nsba(i__main__
Player
p3598
(dp3599
g17
(dp3600
g19
Nsg20
I71
sg21
I72
sg22
Nsg23
Nsg24
Nsg25
Nssg6
g758
sg27
I24
sg13
Nsg28
Nsg29
g3547
sg31
Nsba(i__main__
Player
p3601
(dp3602
g17
(dp3603
g19
Nsg20
I71
sg21
I72
sg22
Nsg23
Nsg24
Nsg25
Nssg6
g758
sg27
I24
sg13
Nsg28
Nsg29
g3547
sg31
Nsba(i__main__
Player
p3604
(dp3605
g17
(dp3606
g19
Nsg20
I71
sg21
I72
sg22
Nsg23
Nsg24
Nsg25
Nssg6
g758
sg27
I24
sg13
Nsg28
Nsg29
g3547
sg31
Nsba(i__main__
Player
p3607
(dp3608
g17
(dp3609
g19
Nsg20
I71
sg21
I72
sg22
Nsg23
Nsg24
Nsg25
Nssg6
g758
sg27
I24
sg13
Nsg28
Nsg29
g3547
sg31
Nsba(i__main__
Player
p3610
(dp3611
g17
(dp3612
g19
Nsg20
I71
sg21
I72
sg22
Nsg23
Nsg24
Nsg25
Nssg6
g758
sg27
I24
sg13
Nsg28
Nsg29
g3547
sg31
Nsba(i__main__
Player
p3613
(dp3614
g17
(dp3615
g19
Nsg20
I71
sg21
I72
sg22
Nsg23
Nsg24
Nsg25
Nssg6
g758
sg27
I24
sg13
Nsg28
Nsg29
g3547
sg31
Nsba(i__main__
Player
p3616
(dp3617
g17
(dp3618
g19
Nsg20
I71
sg21
I72
sg22
Nsg23
Nsg24
Nsg25
Nssg6
g758
sg27
I24
sg13
Nsg28
Nsg29
g3547
sg31
Nsba(i__main__
Player
p3619
(dp3620
g17
(dp3621
g19
Nsg20
I71
sg21
I72
sg22
Nsg23
Nsg24
Nsg25
Nssg6
g758
sg27
I24
sg13
Nsg28
Nsg29
g3547
sg31
Nsba(i__main__
Player
p3622
(dp3623
g17
(dp3624
g19
Nsg20
I70
sg21
I72
sg22
Nsg23
Nsg24
Nsg25
Nssg6
S'R. Rezaeian'
p3625
sg27
I27
sg13
Nsg28
Nsg29
S'Iran'
p3626
sg31
Nsba(i__main__
Player
p3627
(dp3628
g17
(dp3629
g19
Nsg20
I66
sg21
I63
sg22
Nsg23
Nsg24
Nsg25
Nssg6
S'S. Ezatolahi'
p3630
sg27
I20
sg13
Nsg28
Nsg29
S'Iran'
p3631
sg31
Nsba(i__main__
Player
p3632
(dp3633
g17
(dp3634
g19
Nsg20
I62
sg21
I22
sg22
Nsg23
Nsg24
Nsg25
Nssg6
S'A. Abedzadeh'
p3635
sg27
I24
sg13
Nsg28
Nsg29
S'Iran'
p3636
sg31
Nsbasg145
I2
sg146
F750.0
sba.