(lp0
(i__main__
Group
p1
(dp2
S'scores'
p3
(lp4
I0
aI0
aI0
aI0
asS'name'
p5
S'Group A'
p6
sS'teams'
p7
(lp8
(i__main__
Team
p9
(dp10
S'trainer'
p11
Nsg5
S'Russia'
p12
sS'regularPower'
p13
I0
sS'matchDraw'
p14
I1
sS'rank'
p15
I65
sS'economicalSituation'
p16
NsS'matchWon'
p17
I3
sS'regular'
p18
(lp19
sS'reservePower'
p20
I0
sS'reserve'
p21
(lp22
(i__main__
Player
p23
(dp24
S'stats'
p25
(dp26
S'dribbling'
p27
NsS'overall'
p28
I81
sS'pace'
p29
NsS'defending'
p30
NsS'phisichal'
p31
NsS'passing'
p32
NsS'shooting'
p33
Nssg5
S'M\xc3\xa1rio Fernandes'
p34
sS'age'
p35
I26
sg18
NsS'nAccidents'
p36
NsS'team'
p37
S'Russia'
p38
sS'position'
p39
Nsba(i__main__
Player
p40
(dp41
g25
(dp42
g27
Nsg28
I80
sg29
Nsg30
Nsg31
Nsg32
Nsg33
Nssg5
S'A. Dzagoev'
p43
sg35
I27
sg18
Nsg36
Nsg37
S'Russia'
p44
sg39
Nsba(i__main__
Player
p45
(dp46
g25
(dp47
g27
Nsg28
I80
sg29
Nsg30
Nsg31
Nsg32
Nsg33
Nssg5
S'F. Smolov'
p48
sg35
I27
sg18
Nsg36
Nsg37
S'Russia'
p49
sg39
Nsba(i__main__
Player
p50
(dp51
g25
(dp52
g27
Nsg28
I79
sg29
Nsg30
Nsg31
Nsg32
Nsg33
Nssg5
S'I. Smolnikov'
p53
sg35
I28
sg18
Nsg36
Nsg37
S'Russia'
p54
sg39
Nsba(i__main__
Player
p55
(dp56
g25
(dp57
g27
Nsg28
I79
sg29
Nsg30
Nsg31
Nsg32
Nsg33
Nssg5
S'A. Samedov'
p58
sg35
I32
sg18
Nsg36
Nsg37
S'Russia'
p59
sg39
Nsba(i__main__
Player
p60
(dp61
g25
(dp62
g27
Nsg28
I78
sg29
Nsg30
Nsg31
Nsg32
Nsg33
Nssg5
S'D. Cheryshev'
p63
sg35
I26
sg18
Nsg36
Nsg37
S'Russia'
p64
sg39
Nsba(i__main__
Player
p65
(dp66
g25
(dp67
g27
Nsg28
I78
sg29
Nsg30
Nsg31
Nsg32
Nsg33
Nssg5
S'D. Cheryshev'
p68
sg35
I26
sg18
Nsg36
Nsg37
S'Russia'
p69
sg39
Nsba(i__main__
Player
p70
(dp71
g25
(dp72
g27
Nsg28
I78
sg29
Nsg30
Nsg31
Nsg32
Nsg33
Nssg5
S'S. Ignashevich'
p73
sg35
I37
sg18
Nsg36
Nsg37
S'Russia'
p74
sg39
Nsba(i__main__
Player
p75
(dp76
g25
(dp77
g27
Nsg28
I78
sg29
Nsg30
Nsg31
Nsg32
Nsg33
Nssg5
S'A. Dzyuba'
p78
sg35
I28
sg18
Nsg36
Nsg37
S'Russia'
p79
sg39
Nsba(i__main__
Player
p80
(dp81
g25
(dp82
g27
Nsg28
I77
sg29
Nsg30
Nsg31
Nsg32
Nsg33
Nssg5
S'R. Zobnin'
p83
sg35
I23
sg18
Nsg36
Nsg37
S'Russia'
p84
sg39
Nsba(i__main__
Player
p85
(dp86
g25
(dp87
g27
Nsg28
I76
sg29
Nsg30
Nsg31
Nsg32
Nsg33
Nssg5
S'Y. Zhirkov'
p88
sg35
I33
sg18
Nsg36
Nsg37
S'Russia'
p89
sg39
Nsba(i__main__
Player
p90
(dp91
g25
(dp92
g27
Nsg28
I76
sg29
Nsg30
Nsg31
Nsg32
Nsg33
Nssg5
S'A. Golovin'
p93
sg35
I21
sg18
Nsg36
Nsg37
S'Russia'
p94
sg39
Nsba(i__main__
Player
p95
(dp96
g25
(dp97
g27
Nsg28
I75
sg29
Nsg30
Nsg31
Nsg32
Nsg33
Nssg5
S'Y. Gazinskiy'
p98
sg35
I27
sg18
Nsg36
Nsg37
S'Russia'
p99
sg39
Nsba(i__main__
Player
p100
(dp101
g25
(dp102
g27
Nsg28
I74
sg29
Nsg30
Nsg31
Nsg32
Nsg33
Nssg5
S'A. Miranchuk'
p103
sg35
I21
sg18
Nsg36
Nsg37
S'Russia'
p104
sg39
Nsba(i__main__
Player
p105
(dp106
g25
(dp107
g27
Nsg28
I74
sg29
Nsg30
Nsg31
Nsg32
Nsg33
Nssg5
S'D. Kuzyaev'
p108
sg35
I24
sg18
Nsg36
Nsg37
S'Russia'
p109
sg39
Nsba(i__main__
Player
p110
(dp111
g25
(dp112
g27
Nsg28
I74
sg29
Nsg30
Nsg31
Nsg32
Nsg33
Nssg5
S'V. Gabulov'
p113
sg35
I33
sg18
Nsg36
Nsg37
S'Russia'
p114
sg39
Nsba(i__main__
Player
p115
(dp116
g25
(dp117
g27
Nsg28
I73
sg29
Nsg30
Nsg31
Nsg32
Nsg33
Nssg5
S'F. Kudryashov'
p118
sg35
I30
sg18
Nsg36
Nsg37
S'Russia'
p119
sg39
Nsba(i__main__
Player
p120
(dp121
g25
(dp122
g27
Nsg28
I73
sg29
Nsg30
Nsg31
Nsg32
Nsg33
Nssg5
S'I. Kutepov'
p123
sg35
I23
sg18
Nsg36
Nsg37
S'Russia'
p124
sg39
Nsba(i__main__
Player
p125
(dp126
g25
(dp127
g27
Nsg28
I72
sg29
Nsg30
Nsg31
Nsg32
Nsg33
Nssg5
S'V. Granat'
p128
sg35
I30
sg18
Nsg36
Nsg37
S'Russia'
p129
sg39
Nsba(i__main__
Player
p130
(dp131
g25
(dp132
g27
Nsg28
I68
sg29
Nsg30
Nsg31
Nsg32
Nsg33
Nssg5
S'A. Miranchuk'
p133
sg35
I21
sg18
Nsg36
Nsg37
S'Russia'
p134
sg39
Nsba(i__main__
Player
p135
(dp136
g25
(dp137
g27
Nsg28
I67
sg29
Nsg30
Nsg31
Nsg32
Nsg33
Nssg5
S'G. Gabulov'
p138
sg35
I28
sg18
Nsg36
Nsg37
S'Russia'
p139
sg39
Nsba(i__main__
Player
p140
(dp141
g25
(dp142
g27
Nsg28
I75
sg29
Nsg30
Nsg31
Nsg32
Nsg33
Nssg5
S'Almost a dummy boy'
p143
sg35
I27
sg18
Nsg36
Nsg37
g12
sg39
Nsba(i__main__
Player
p144
(dp145
g25
(dp146
g27
Nsg28
I75
sg29
Nsg30
Nsg31
Nsg32
Nsg33
Nssg5
g143
sg35
I27
sg18
Nsg36
Nsg37
g12
sg39
NsbasS'matchLose'
p147
I2
sS'quotation'
p148
Nsba(i__main__
Team
p149
(dp150
g11
Nsg5
S'Saudi Arabia'
p151
sg13
I0
sg14
I1
sg15
I63
sg16
Nsg17
I3
sg18
(lp152
sg20
I0
sg21
(lp153
(i__main__
Player
p154
(dp155
g25
(dp156
g27
Nsg28
I75
sg29
Nsg30
Nsg31
Nsg32
Nsg33
Nssg5
S'O. Hawsawi'
p157
sg35
I33
sg18
Nsg36
Nsg37
S'Saudi Arabia'
p158
sg39
Nsba(i__main__
Player
p159
(dp160
g25
(dp161
g27
Nsg28
I74
sg29
Nsg30
Nsg31
Nsg32
Nsg33
Nssg5
S'M. Hawsawi'
p162
sg35
I25
sg18
Nsg36
Nsg37
S'Saudi Arabia'
p163
sg39
Nsba(i__main__
Player
p164
(dp165
g25
(dp166
g27
Nsg28
I71
sg29
Nsg30
Nsg31
Nsg32
Nsg33
Nssg5
S'A. Asiri'
p167
sg35
I25
sg18
Nsg36
Nsg37
S'Saudi Arabia'
p168
sg39
Nsba(i__main__
Player
p169
(dp170
g25
(dp171
g27
Nsg28
I67
sg29
Nsg30
Nsg31
Nsg32
Nsg33
Nssg5
S'M. Kanno'
p172
sg35
I22
sg18
Nsg36
Nsg37
S'Saudi Arabia'
p173
sg39
Nsba(i__main__
Player
p174
(dp175
g25
(dp176
g27
Nsg28
I66
sg29
Nsg30
Nsg31
Nsg32
Nsg33
Nssg5
S'H. Bahebri'
p177
sg35
I24
sg18
Nsg36
Nsg37
S'Saudi Arabia'
p178
sg39
Nsba(i__main__
Player
p179
(dp180
g25
(dp181
g27
Nsg28
I58
sg29
Nsg30
Nsg31
Nsg32
Nsg33
Nssg5
S'O. Hawsawi'
p182
sg35
I24
sg18
Nsg36
Nsg37
S'Saudi Arabia'
p183
sg39
Nsba(i__main__
Player
p184
(dp185
g25
(dp186
g27
Nsg28
I58
sg29
Nsg30
Nsg31
Nsg32
Nsg33
Nssg5
S'S. Otayf'
p187
sg35
I26
sg18
Nsg36
Nsg37
S'Saudi Arabia'
p188
sg39
Nsba(i__main__
Player
p189
(dp190
g25
(dp191
g27
Nsg28
I56
sg29
Nsg30
Nsg31
Nsg32
Nsg33
Nssg5
S'M. Asiri'
p192
sg35
I24
sg18
Nsg36
Nsg37
S'Saudi Arabia'
p193
sg39
Nsba(i__main__
Player
p194
(dp195
g25
(dp196
g27
Nsg28
I55
sg29
Nsg30
Nsg31
Nsg32
Nsg33
Nssg5
S'S. Hawsawi'
p197
sg35
I25
sg18
Nsg36
Nsg37
S'Saudi Arabia'
p198
sg39
Nsba(i__main__
Player
p199
(dp200
g25
(dp201
g27
Nsg28
I55
sg29
Nsg30
Nsg31
Nsg32
Nsg33
Nssg5
S'M. Asiri'
p202
sg35
I25
sg18
Nsg36
Nsg37
S'Saudi Arabia'
p203
sg39
Nsba(i__main__
Player
p204
(dp205
g25
(dp206
g27
Nsg28
I55
sg29
Nsg30
Nsg31
Nsg32
Nsg33
Nssg5
S'A. Al Assiri'
p207
sg35
I28
sg18
Nsg36
Nsg37
S'Saudi Arabia'
p208
sg39
Nsba(i__main__
Player
p209
(dp210
g25
(dp211
g27
Nsg28
I52
sg29
Nsg30
Nsg31
Nsg32
Nsg33
Nssg5
S'H. Hawsawi'
p212
sg35
I20
sg18
Nsg36
Nsg37
S'Saudi Arabia'
p213
sg39
Nsba(i__main__
Player
p214
(dp215
g25
(dp216
g27
Nsg28
I61
sg29
Nsg30
Nsg31
Nsg32
Nsg33
Nssg5
g143
sg35
I25
sg18
Nsg36
Nsg37
g151
sg39
Nsba(i__main__
Player
p217
(dp218
g25
(dp219
g27
Nsg28
I61
sg29
Nsg30
Nsg31
Nsg32
Nsg33
Nssg5
g143
sg35
I25
sg18
Nsg36
Nsg37
g151
sg39
Nsba(i__main__
Player
p220
(dp221
g25
(dp222
g27
Nsg28
I61
sg29
Nsg30
Nsg31
Nsg32
Nsg33
Nssg5
g143
sg35
I25
sg18
Nsg36
Nsg37
g151
sg39
Nsba(i__main__
Player
p223
(dp224
g25
(dp225
g27
Nsg28
I61
sg29
Nsg30
Nsg31
Nsg32
Nsg33
Nssg5
g143
sg35
I25
sg18
Nsg36
Nsg37
g151
sg39
Nsba(i__main__
Player
p226
(dp227
g25
(dp228
g27
Nsg28
I61
sg29
Nsg30
Nsg31
Nsg32
Nsg33
Nssg5
g143
sg35
I25
sg18
Nsg36
Nsg37
g151
sg39
Nsba(i__main__
Player
p229
(dp230
g25
(dp231
g27
Nsg28
I61
sg29
Nsg30
Nsg31
Nsg32
Nsg33
Nssg5
g143
sg35
I25
sg18
Nsg36
Nsg37
g151
sg39
Nsba(i__main__
Player
p232
(dp233
g25
(dp234
g27
Nsg28
I61
sg29
Nsg30
Nsg31
Nsg32
Nsg33
Nssg5
g143
sg35
I25
sg18
Nsg36
Nsg37
g151
sg39
Nsba(i__main__
Player
p235
(dp236
g25
(dp237
g27
Nsg28
I61
sg29
Nsg30
Nsg31
Nsg32
Nsg33
Nssg5
g143
sg35
I25
sg18
Nsg36
Nsg37
g151
sg39
Nsba(i__main__
Player
p238
(dp239
g25
(dp240
g27
Nsg28
I61
sg29
Nsg30
Nsg31
Nsg32
Nsg33
Nssg5
g143
sg35
I25
sg18
Nsg36
Nsg37
g151
sg39
Nsba(i__main__
Player
p241
(dp242
g25
(dp243
g27
Nsg28
I61
sg29
Nsg30
Nsg31
Nsg32
Nsg33
Nssg5
g143
sg35
I25
sg18
Nsg36
Nsg37
g151
sg39
Nsba(i__main__
Player
p244
(dp245
g25
(dp246
g27
Nsg28
I61
sg29
Nsg30
Nsg31
Nsg32
Nsg33
Nssg5
g143
sg35
I25
sg18
Nsg36
Nsg37
g151
sg39
Nsbasg147
I2
sg148
Nsba(i__main__
Team
p247
(dp248
g11
Nsg5
S'Egypt'
p249
sg13
I0
sg14
I1
sg15
I31
sg16
Nsg17
I3
sg18
(lp250
sg20
I0
sg21
(lp251
(i__main__
Player
p252
(dp253
g25
(dp254
g27
Nsg28
I83
sg29
Nsg30
Nsg31
Nsg32
Nsg33
Nssg5
S'M. Salah'
p255
sg35
I25
sg18
Nsg36
Nsg37
S'Egypt'
p256
sg39
Nsba(i__main__
Player
p257
(dp258
g25
(dp259
g27
Nsg28
I77
sg29
Nsg30
Nsg31
Nsg32
Nsg33
Nssg5
S'M. Elneny'
p260
sg35
I24
sg18
Nsg36
Nsg37
S'Egypt'
p261
sg39
Nsba(i__main__
Player
p262
(dp263
g25
(dp264
g27
Nsg28
I75
sg29
Nsg30
Nsg31
Nsg32
Nsg33
Nssg5
S'Kahraba'
p265
sg35
I23
sg18
Nsg36
Nsg37
S'Egypt'
p266
sg39
Nsba(i__main__
Player
p267
(dp268
g25
(dp269
g27
Nsg28
I74
sg29
Nsg30
Nsg31
Nsg32
Nsg33
Nssg5
S'R. Sobhi'
p270
sg35
I20
sg18
Nsg36
Nsg37
S'Egypt'
p271
sg39
Nsba(i__main__
Player
p272
(dp273
g25
(dp274
g27
Nsg28
I73
sg29
Nsg30
Nsg31
Nsg32
Nsg33
Nssg5
S'A. El-Shenawy'
p275
sg35
I26
sg18
Nsg36
Nsg37
S'Egypt'
p276
sg39
Nsba(i__main__
Player
p277
(dp278
g25
(dp279
g27
Nsg28
I72
sg29
Nsg30
Nsg31
Nsg32
Nsg33
Nssg5
S'A. Elmohamady'
p280
sg35
I29
sg18
Nsg36
Nsg37
S'Egypt'
p281
sg39
Nsba(i__main__
Player
p282
(dp283
g25
(dp284
g27
Nsg28
I71
sg29
Nsg30
Nsg31
Nsg32
Nsg33
Nssg5
S'A. Warda'
p285
sg35
I23
sg18
Nsg36
Nsg37
S'Egypt'
p286
sg39
Nsba(i__main__
Player
p287
(dp288
g25
(dp289
g27
Nsg28
I70
sg29
Nsg30
Nsg31
Nsg32
Nsg33
Nssg5
S'Shikabala'
p290
sg35
I31
sg18
Nsg36
Nsg37
S'Egypt'
p291
sg39
Nsba(i__main__
Player
p292
(dp293
g25
(dp294
g27
Nsg28
I69
sg29
Nsg30
Nsg31
Nsg32
Nsg33
Nssg5
S'O. Gaber'
p295
sg35
I25
sg18
Nsg36
Nsg37
S'Egypt'
p296
sg39
Nsba(i__main__
Player
p297
(dp298
g25
(dp299
g27
Nsg28
I69
sg29
Nsg30
Nsg31
Nsg32
Nsg33
Nssg5
S'S. Ekramy'
p300
sg35
I33
sg18
Nsg36
Nsg37
S'Egypt'
p301
sg39
Nsba(i__main__
Player
p302
(dp303
g25
(dp304
g27
Nsg28
I68
sg29
Nsg30
Nsg31
Nsg32
Nsg33
Nssg5
S'S. Morsy'
p305
sg35
I25
sg18
Nsg36
Nsg37
S'Egypt'
p306
sg39
Nsba(i__main__
Player
p307
(dp308
g25
(dp309
g27
Nsg28
I67
sg29
Nsg30
Nsg31
Nsg32
Nsg33
Nssg5
S'A. Gabr'
p310
sg35
I30
sg18
Nsg36
Nsg37
S'Egypt'
p311
sg39
Nsba(i__main__
Player
p312
(dp313
g25
(dp314
g27
Nsg28
I66
sg29
Nsg30
Nsg31
Nsg32
Nsg33
Nssg5
S'T. Hamed'
p315
sg35
I28
sg18
Nsg36
Nsg37
S'Egypt'
p316
sg39
Nsba(i__main__
Player
p317
(dp318
g25
(dp319
g27
Nsg28
I66
sg29
Nsg30
Nsg31
Nsg32
Nsg33
Nssg5
S'I. Salah'
p320
sg35
I30
sg18
Nsg36
Nsg37
S'Egypt'
p321
sg39
Nsba(i__main__
Player
p322
(dp323
g25
(dp324
g27
Nsg28
I65
sg29
Nsg30
Nsg31
Nsg32
Nsg33
Nssg5
S'M. Mohsen'
p325
sg35
I28
sg18
Nsg36
Nsg37
S'Egypt'
p326
sg39
Nsba(i__main__
Player
p327
(dp328
g25
(dp329
g27
Nsg28
I71
sg29
Nsg30
Nsg31
Nsg32
Nsg33
Nssg5
g143
sg35
I26
sg18
Nsg36
Nsg37
g249
sg39
Nsba(i__main__
Player
p330
(dp331
g25
(dp332
g27
Nsg28
I71
sg29
Nsg30
Nsg31
Nsg32
Nsg33
Nssg5
g143
sg35
I26
sg18
Nsg36
Nsg37
g249
sg39
Nsba(i__main__
Player
p333
(dp334
g25
(dp335
g27
Nsg28
I71
sg29
Nsg30
Nsg31
Nsg32
Nsg33
Nssg5
g143
sg35
I26
sg18
Nsg36
Nsg37
g249
sg39
Nsba(i__main__
Player
p336
(dp337
g25
(dp338
g27
Nsg28
I71
sg29
Nsg30
Nsg31
Nsg32
Nsg33
Nssg5
g143
sg35
I26
sg18
Nsg36
Nsg37
g249
sg39
Nsba(i__main__
Player
p339
(dp340
g25
(dp341
g27
Nsg28
I71
sg29
Nsg30
Nsg31
Nsg32
Nsg33
Nssg5
g143
sg35
I26
sg18
Nsg36
Nsg37
g249
sg39
Nsba(i__main__
Player
p342
(dp343
g25
(dp344
g27
Nsg28
I71
sg29
Nsg30
Nsg31
Nsg32
Nsg33
Nssg5
g143
sg35
I26
sg18
Nsg36
Nsg37
g249
sg39
Nsba(i__main__
Player
p345
(dp346
g25
(dp347
g27
Nsg28
I71
sg29
Nsg30
Nsg31
Nsg32
Nsg33
Nssg5
g143
sg35
I26
sg18
Nsg36
Nsg37
g249
sg39
Nsba(i__main__
Player
p348
(dp349
g25
(dp350
g27
Nsg28
I71
sg29
Nsg30
Nsg31
Nsg32
Nsg33
Nssg5
g143
sg35
I26
sg18
Nsg36
Nsg37
g249
sg39
Nsbasg147
I2
sg148
Nsba(i__main__
Team
p351
(dp352
g11
Nsg5
S'Uruguay'
p353
sg13
I0
sg14
I1
sg15
I21
sg16
Nsg17
I3
sg18
(lp354
sg20
I0
sg21
(lp355
(i__main__
Player
p356
(dp357
g25
(dp358
g27
Nsg28
I92
sg29
Nsg30
Nsg31
Nsg32
Nsg33
Nssg5
S'L. Su\xc3\xa1rez'
p359
sg35
I30
sg18
Nsg36
Nsg37
S'Uruguay'
p360
sg39
Nsba(i__main__
Player
p361
(dp362
g25
(dp363
g27
Nsg28
I87
sg29
Nsg30
Nsg31
Nsg32
Nsg33
Nssg5
S'E. Cavani'
p364
sg35
I30
sg18
Nsg36
Nsg37
S'Uruguay'
p365
sg39
Nsba(i__main__
Player
p366
(dp367
g25
(dp368
g27
Nsg28
I83
sg29
Nsg30
Nsg31
Nsg32
Nsg33
Nssg5
S'J. Gim\xc3\xa9nez'
p369
sg35
I22
sg18
Nsg36
Nsg37
S'Uruguay'
p370
sg39
Nsba(i__main__
Player
p371
(dp372
g25
(dp373
g27
Nsg28
I82
sg29
Nsg30
Nsg31
Nsg32
Nsg33
Nssg5
S'F. Muslera'
p374
sg35
I31
sg18
Nsg36
Nsg37
S'Uruguay'
p375
sg39
Nsba(i__main__
Player
p376
(dp377
g25
(dp378
g27
Nsg28
I81
sg29
Nsg30
Nsg31
Nsg32
Nsg33
Nssg5
S'S. Coates'
p379
sg35
I26
sg18
Nsg36
Nsg37
S'Uruguay'
p380
sg39
Nsba(i__main__
Player
p381
(dp382
g25
(dp383
g27
Nsg28
I79
sg29
Nsg30
Nsg31
Nsg32
Nsg33
Nssg5
S'M. Campa\xc3\xb1a'
p384
sg35
I28
sg18
Nsg36
Nsg37
S'Uruguay'
p385
sg39
Nsba(i__main__
Player
p386
(dp387
g25
(dp388
g27
Nsg28
I78
sg29
Nsg30
Nsg31
Nsg32
Nsg33
Nssg5
S'M. Vecino'
p389
sg35
I25
sg18
Nsg36
Nsg37
S'Uruguay'
p390
sg39
Nsba(i__main__
Player
p391
(dp392
g25
(dp393
g27
Nsg28
I78
sg29
Nsg30
Nsg31
Nsg32
Nsg33
Nssg5
S'D. Laxalt'
p394
sg35
I24
sg18
Nsg36
Nsg37
S'Uruguay'
p395
sg39
Nsba(i__main__
Player
p396
(dp397
g25
(dp398
g27
Nsg28
I78
sg29
Nsg30
Nsg31
Nsg32
Nsg33
Nssg5
S'D. Laxalt'
p399
sg35
I24
sg18
Nsg36
Nsg37
S'Uruguay'
p400
sg39
Nsba(i__main__
Player
p401
(dp402
g25
(dp403
g27
Nsg28
I77
sg29
Nsg30
Nsg31
Nsg32
Nsg33
Nssg5
S'C. Stuani'
p404
sg35
I30
sg18
Nsg36
Nsg37
S'Uruguay'
p405
sg39
Nsba(i__main__
Player
p406
(dp407
g25
(dp408
g27
Nsg28
I77
sg29
Nsg30
Nsg31
Nsg32
Nsg33
Nssg5
S'C. S\xc3\xa1nchez'
p409
sg35
I32
sg18
Nsg36
Nsg37
S'Uruguay'
p410
sg39
Nsba(i__main__
Player
p411
(dp412
g25
(dp413
g27
Nsg28
I77
sg29
Nsg30
Nsg31
Nsg32
Nsg33
Nssg5
S'M. C\xc3\xa1ceres'
p414
sg35
I30
sg18
Nsg36
Nsg37
S'Uruguay'
p415
sg39
Nsba(i__main__
Player
p416
(dp417
g25
(dp418
g27
Nsg28
I75
sg29
Nsg30
Nsg31
Nsg32
Nsg33
Nssg5
S'C. Rodr\xc3\xadguez'
p419
sg35
I31
sg18
Nsg36
Nsg37
S'Uruguay'
p420
sg39
Nsba(i__main__
Player
p421
(dp422
g25
(dp423
g27
Nsg28
I75
sg29
Nsg30
Nsg31
Nsg32
Nsg33
Nssg5
S'L. Torreira'
p424
sg35
I21
sg18
Nsg36
Nsg37
S'Uruguay'
p425
sg39
Nsba(i__main__
Player
p426
(dp427
g25
(dp428
g27
Nsg28
I74
sg29
Nsg30
Nsg31
Nsg32
Nsg33
Nssg5
S'D. Su\xc3\xa1rez'
p429
sg35
I29
sg18
Nsg36
Nsg37
S'Uruguay'
p430
sg39
Nsba(i__main__
Player
p431
(dp432
g25
(dp433
g27
Nsg28
I74
sg29
Nsg30
Nsg31
Nsg32
Nsg33
Nssg5
S'J. Urretaviscaya'
p434
sg35
I27
sg18
Nsg36
Nsg37
S'Uruguay'
p435
sg39
Nsba(i__main__
Player
p436
(dp437
g25
(dp438
g27
Nsg28
I73
sg29
Nsg30
Nsg31
Nsg32
Nsg33
Nssg5
S'M. G\xc3\xb3mez'
p439
sg35
I20
sg18
Nsg36
Nsg37
S'Uruguay'
p440
sg39
Nsba(i__main__
Player
p441
(dp442
g25
(dp443
g27
Nsg28
I73
sg29
Nsg30
Nsg31
Nsg32
Nsg33
Nssg5
S'D. Rodr\xc3\xadguez'
p444
sg35
I27
sg18
Nsg36
Nsg37
S'Uruguay'
p445
sg39
Nsba(i__main__
Player
p446
(dp447
g25
(dp448
g27
Nsg28
I73
sg29
Nsg30
Nsg31
Nsg32
Nsg33
Nssg5
S'A. Silva'
p449
sg35
I27
sg18
Nsg36
Nsg37
S'Uruguay'
p450
sg39
Nsba(i__main__
Player
p451
(dp452
g25
(dp453
g27
Nsg28
I72
sg29
Nsg30
Nsg31
Nsg32
Nsg33
Nssg5
S'G. Silva'
p454
sg35
I23
sg18
Nsg36
Nsg37
S'Uruguay'
p455
sg39
Nsba(i__main__
Player
p456
(dp457
g25
(dp458
g27
Nsg28
I72
sg29
Nsg30
Nsg31
Nsg32
Nsg33
Nssg5
S'J. Rodr\xc3\xadguez'
p459
sg35
I23
sg18
Nsg36
Nsg37
S'Uruguay'
p460
sg39
Nsba(i__main__
Player
p461
(dp462
g25
(dp463
g27
Nsg28
I71
sg29
Nsg30
Nsg31
Nsg32
Nsg33
Nssg5
S'M. Silva'
p464
sg35
I28
sg18
Nsg36
Nsg37
S'Uruguay'
p465
sg39
Nsba(i__main__
Player
p466
(dp467
g25
(dp468
g27
Nsg28
I70
sg29
Nsg30
Nsg31
Nsg32
Nsg33
Nssg5
S'N. N\xc3\xa1ndez'
p469
sg35
I21
sg18
Nsg36
Nsg37
S'Uruguay'
p470
sg39
Nsbasg147
I2
sg148
Nsbasba(i__main__
Group
p471
(dp472
g3
(lp473
I0
aI0
aI0
aI0
asg5
S'Group B'
p474
sg7
(lp475
(i__main__
Team
p476
(dp477
g11
Nsg5
S'Portugal'
p478
sg13
I0
sg14
I1
sg15
Nsg16
Nsg17
I3
sg18
(lp479
sg20
I0
sg21
(lp480
(i__main__
Player
p481
(dp482
g25
(dp483
g27
Nsg28
I86
sg29
Nsg30
Nsg31
Nsg32
Nsg33
Nssg5
S'Pepe'
p484
sg35
I34
sg18
Nsg36
Nsg37
S'Portugal'
p485
sg39
Nsba(i__main__
Player
p486
(dp487
g25
(dp488
g27
Nsg28
I84
sg29
Nsg30
Nsg31
Nsg32
Nsg33
Nssg5
S'Bernardo Silva'
p489
sg35
I22
sg18
Nsg36
Nsg37
S'Portugal'
p490
sg39
Nsba(i__main__
Player
p491
(dp492
g25
(dp493
g27
Nsg28
I83
sg29
Nsg30
Nsg31
Nsg32
Nsg33
Nssg5
S'Jo\xc3\xa3o M\xc3\xa1rio'
p494
sg35
I24
sg18
Nsg36
Nsg37
S'Portugal'
p495
sg39
Nsba(i__main__
Player
p496
(dp497
g25
(dp498
g27
Nsg28
I83
sg29
Nsg30
Nsg31
Nsg32
Nsg33
Nssg5
S'William Carvalho'
p499
sg35
I25
sg18
Nsg36
Nsg37
S'Portugal'
p500
sg39
Nsba(i__main__
Player
p501
(dp502
g25
(dp503
g27
Nsg28
I83
sg29
Nsg30
Nsg31
Nsg32
Nsg33
Nssg5
S'Danilo Pereira'
p504
sg35
I25
sg18
Nsg36
Nsg37
S'Portugal'
p505
sg39
Nsba(i__main__
Player
p506
(dp507
g25
(dp508
g27
Nsg28
I83
sg29
Nsg30
Nsg31
Nsg32
Nsg33
Nssg5
S'A. Lopes'
p509
sg35
I26
sg18
Nsg36
Nsg37
S'Portugal'
p510
sg39
Nsba(i__main__
Player
p511
(dp512
g25
(dp513
g27
Nsg28
I83
sg29
Nsg30
Nsg31
Nsg32
Nsg33
Nssg5
S'Adrien Silva'
p514
sg35
I28
sg18
Nsg36
Nsg37
S'Portugal'
p515
sg39
Nsba(i__main__
Player
p516
(dp517
g25
(dp518
g27
Nsg28
I83
sg29
Nsg30
Nsg31
Nsg32
Nsg33
Nssg5
S'Rui Patr\xc3\xadcio'
p519
sg35
I29
sg18
Nsg36
Nsg37
S'Portugal'
p520
sg39
Nsba(i__main__
Player
p521
(dp522
g25
(dp523
g27
Nsg28
I83
sg29
Nsg30
Nsg31
Nsg32
Nsg33
Nssg5
S'Quaresma'
p524
sg35
I33
sg18
Nsg36
Nsg37
S'Portugal'
p525
sg39
Nsba(i__main__
Player
p526
(dp527
g25
(dp528
g27
Nsg28
I82
sg29
Nsg30
Nsg31
Nsg32
Nsg33
Nssg5
S'Jo\xc3\xa3o Moutinho'
p529
sg35
I30
sg18
Nsg36
Nsg37
S'Portugal'
p530
sg39
Nsba(i__main__
Player
p531
(dp532
g25
(dp533
g27
Nsg28
I81
sg29
Nsg30
Nsg31
Nsg32
Nsg33
Nssg5
S'Gelson Martins'
p534
sg35
I22
sg18
Nsg36
Nsg37
S'Portugal'
p535
sg39
Nsba(i__main__
Player
p536
(dp537
g25
(dp538
g27
Nsg28
I81
sg29
Nsg30
Nsg31
Nsg32
Nsg33
Nssg5
S'R. Guerreiro'
p539
sg35
I23
sg18
Nsg36
Nsg37
S'Portugal'
p540
sg39
Nsba(i__main__
Player
p541
(dp542
g25
(dp543
g27
Nsg28
I80
sg29
Nsg30
Nsg31
Nsg32
Nsg33
Nssg5
S'Ricardo Pereira'
p544
sg35
I23
sg18
Nsg36
Nsg37
S'Portugal'
p545
sg39
Nsba(i__main__
Player
p546
(dp547
g25
(dp548
g27
Nsg28
I80
sg29
Nsg30
Nsg31
Nsg32
Nsg33
Nssg5
S'Manuel Fernandes'
p549
sg35
I31
sg18
Nsg36
Nsg37
S'Portugal'
p550
sg39
Nsba(i__main__
Player
p551
(dp552
g25
(dp553
g27
Nsg28
I79
sg29
Nsg30
Nsg31
Nsg32
Nsg33
Nssg5
S'C\xc3\xa9dric'
p554
sg35
I25
sg18
Nsg36
Nsg37
S'Portugal'
p555
sg39
Nsba(i__main__
Player
p556
(dp557
g25
(dp558
g27
Nsg28
I79
sg29
Nsg30
Nsg31
Nsg32
Nsg33
Nssg5
S'Jos\xc3\xa9 Fonte'
p559
sg35
I33
sg18
Nsg36
Nsg37
S'Portugal'
p560
sg39
Nsba(i__main__
Player
p561
(dp562
g25
(dp563
g27
Nsg28
I78
sg29
Nsg30
Nsg31
Nsg32
Nsg33
Nssg5
S'Andr\xc3\xa9 Silva'
p564
sg35
I21
sg18
Nsg36
Nsg37
S'Portugal'
p565
sg39
Nsba(i__main__
Player
p566
(dp567
g25
(dp568
g27
Nsg28
I78
sg29
Nsg30
Nsg31
Nsg32
Nsg33
Nssg5
S'Bruno Fernandes'
p569
sg35
I22
sg18
Nsg36
Nsg37
S'Portugal'
p570
sg39
Nsba(i__main__
Player
p571
(dp572
g25
(dp573
g27
Nsg28
I78
sg29
Nsg30
Nsg31
Nsg32
Nsg33
Nssg5
S'Bruno Alves'
p574
sg35
I35
sg18
Nsg36
Nsg37
S'Portugal'
p575
sg39
Nsba(i__main__
Player
p576
(dp577
g25
(dp578
g27
Nsg28
I78
sg29
Nsg30
Nsg31
Nsg32
Nsg33
Nssg5
S'Miguel Lopes'
p579
sg35
I30
sg18
Nsg36
Nsg37
S'Portugal'
p580
sg39
Nsba(i__main__
Player
p581
(dp582
g25
(dp583
g27
Nsg28
I78
sg29
Nsg30
Nsg31
Nsg32
Nsg33
Nssg5
S'Bruno Fernandes'
p584
sg35
I22
sg18
Nsg36
Nsg37
S'Portugal'
p585
sg39
Nsba(i__main__
Player
p586
(dp587
g25
(dp588
g27
Nsg28
I77
sg29
Nsg30
Nsg31
Nsg32
Nsg33
Nssg5
S'M\xc3\xa1rio Rui'
p589
sg35
I26
sg18
Nsg36
Nsg37
S'Portugal'
p590
sg39
Nsba(i__main__
Player
p591
(dp592
g25
(dp593
g27
Nsg28
I77
sg29
Nsg30
Nsg31
Nsg32
Nsg33
Nssg5
S'Rony Lopes'
p594
sg35
I21
sg18
Nsg36
Nsg37
S'Portugal'
p595
sg39
Nsbasg147
I2
sg148
Nsba(i__main__
Team
p596
(dp597
g11
Nsg5
S'Spain'
p598
sg13
I0
sg14
I1
sg15
I6
sg16
Nsg17
I3
sg18
(lp599
sg20
I0
sg21
(lp600
(i__main__
Player
p601
(dp602
g25
(dp603
g27
Nsg28
I90
sg29
Nsg30
Nsg31
Nsg32
Nsg33
Nssg5
S'De Gea'
p604
sg35
I26
sg18
Nsg36
Nsg37
S'Spain'
p605
sg39
Nsba(i__main__
Player
p606
(dp607
g25
(dp608
g27
Nsg28
I88
sg29
Nsg30
Nsg31
Nsg32
Nsg33
Nssg5
S'Thiago'
p609
sg35
I26
sg18
Nsg36
Nsg37
S'Spain'
p610
sg39
Nsba(i__main__
Player
p611
(dp612
g25
(dp613
g27
Nsg28
I87
sg29
Nsg30
Nsg31
Nsg32
Nsg33
Nssg5
S'David Silva'
p614
sg35
I31
sg18
Nsg36
Nsg37
S'Spain'
p615
sg39
Nsba(i__main__
Player
p616
(dp617
g25
(dp618
g27
Nsg28
I87
sg29
Nsg30
Nsg31
Nsg32
Nsg33
Nssg5
S'Piqu\xc3\xa9'
p619
sg35
I30
sg18
Nsg36
Nsg37
S'Spain'
p620
sg39
Nsba(i__main__
Player
p621
(dp622
g25
(dp623
g27
Nsg28
I87
sg29
Nsg30
Nsg31
Nsg32
Nsg33
Nssg5
S'Iniesta'
p624
sg35
I33
sg18
Nsg36
Nsg37
S'Spain'
p625
sg39
Nsba(i__main__
Player
p626
(dp627
g25
(dp628
g27
Nsg28
I86
sg29
Nsg30
Nsg31
Nsg32
Nsg33
Nssg5
S'Isco'
p629
sg35
I25
sg18
Nsg36
Nsg37
S'Spain'
p630
sg39
Nsba(i__main__
Player
p631
(dp632
g25
(dp633
g27
Nsg28
I86
sg29
Nsg30
Nsg31
Nsg32
Nsg33
Nssg5
S'Sergio Busquets'
p634
sg35
I28
sg18
Nsg36
Nsg37
S'Spain'
p635
sg39
Nsba(i__main__
Player
p636
(dp637
g25
(dp638
g27
Nsg28
I86
sg29
Nsg30
Nsg31
Nsg32
Nsg33
Nssg5
S'Diego Costa'
p639
sg35
I28
sg18
Nsg36
Nsg37
S'Spain'
p640
sg39
Nsba(i__main__
Player
p641
(dp642
g25
(dp643
g27
Nsg28
I85
sg29
Nsg30
Nsg31
Nsg32
Nsg33
Nssg5
S'Jordi Alba'
p644
sg35
I28
sg18
Nsg36
Nsg37
S'Spain'
p645
sg39
Nsba(i__main__
Player
p646
(dp647
g25
(dp648
g27
Nsg28
I85
sg29
Nsg30
Nsg31
Nsg32
Nsg33
Nssg5
S'Azpilicueta'
p649
sg35
I27
sg18
Nsg36
Nsg37
S'Spain'
p650
sg39
Nsba(i__main__
Player
p651
(dp652
g25
(dp653
g27
Nsg28
I84
sg29
Nsg30
Nsg31
Nsg32
Nsg33
Nssg5
S'Marco Asensio'
p654
sg35
I21
sg18
Nsg36
Nsg37
S'Spain'
p655
sg39
Nsba(i__main__
Player
p656
(dp657
g25
(dp658
g27
Nsg28
I84
sg29
Nsg30
Nsg31
Nsg32
Nsg33
Nssg5
S'Carvajal'
p659
sg35
I25
sg18
Nsg36
Nsg37
S'Spain'
p660
sg39
Nsba(i__main__
Player
p661
(dp662
g25
(dp663
g27
Nsg28
I84
sg29
Nsg30
Nsg31
Nsg32
Nsg33
Nssg5
S'Koke'
p664
sg35
I25
sg18
Nsg36
Nsg37
S'Spain'
p665
sg39
Nsba(i__main__
Player
p666
(dp667
g25
(dp668
g27
Nsg28
I83
sg29
Nsg30
Nsg31
Nsg32
Nsg33
Nssg5
S'Iago Aspas'
p669
sg35
I29
sg18
Nsg36
Nsg37
S'Spain'
p670
sg39
Nsba(i__main__
Player
p671
(dp672
g25
(dp673
g27
Nsg28
I83
sg29
Nsg30
Nsg31
Nsg32
Nsg33
Nssg5
S'Jos\xc3\xa9 Reina'
p674
sg35
I34
sg18
Nsg36
Nsg37
S'Spain'
p675
sg39
Nsba(i__main__
Player
p676
(dp677
g25
(dp678
g27
Nsg28
I82
sg29
Nsg30
Nsg31
Nsg32
Nsg33
Nssg5
S'Lucas V\xc3\xa1zquez'
p679
sg35
I26
sg18
Nsg36
Nsg37
S'Spain'
p680
sg39
Nsba(i__main__
Player
p681
(dp682
g25
(dp683
g27
Nsg28
I82
sg29
Nsg30
Nsg31
Nsg32
Nsg33
Nssg5
S'Sa\xc3\xbal'
p684
sg35
I22
sg18
Nsg36
Nsg37
S'Spain'
p685
sg39
Nsba(i__main__
Player
p686
(dp687
g25
(dp688
g27
Nsg28
I80
sg29
Nsg30
Nsg31
Nsg32
Nsg33
Nssg5
S'Arrizabalaga'
p689
sg35
I22
sg18
Nsg36
Nsg37
S'Spain'
p690
sg39
Nsba(i__main__
Player
p691
(dp692
g25
(dp693
g27
Nsg28
I80
sg29
Nsg30
Nsg31
Nsg32
Nsg33
Nssg5
S'Nacho Monreal'
p694
sg35
I31
sg18
Nsg36
Nsg37
S'Spain'
p695
sg39
Nsba(i__main__
Player
p696
(dp697
g25
(dp698
g27
Nsg28
I79
sg29
Nsg30
Nsg31
Nsg32
Nsg33
Nssg5
S'Jaume Costa'
p699
sg35
I29
sg18
Nsg36
Nsg37
S'Spain'
p700
sg39
Nsba(i__main__
Player
p701
(dp702
g25
(dp703
g27
Nsg28
I78
sg29
Nsg30
Nsg31
Nsg32
Nsg33
Nssg5
S'Rodrigo'
p704
sg35
I26
sg18
Nsg36
Nsg37
S'Spain'
p705
sg39
Nsba(i__main__
Player
p706
(dp707
g25
(dp708
g27
Nsg28
I78
sg29
Nsg30
Nsg31
Nsg32
Nsg33
Nssg5
S'Rodrigo'
p709
sg35
I26
sg18
Nsg36
Nsg37
S'Spain'
p710
sg39
Nsba(i__main__
Player
p711
(dp712
g25
(dp713
g27
Nsg28
I76
sg29
Nsg30
Nsg31
Nsg32
Nsg33
Nssg5
S'V\xc3\xadctor V\xc3\xa1zquez'
p714
sg35
I30
sg18
Nsg36
Nsg37
S'Spain'
p715
sg39
Nsbasg147
I2
sg148
Nsba(i__main__
Team
p716
(dp717
g11
Nsg5
S'Morocco'
p718
sg13
I0
sg14
I1
sg15
I40
sg16
Nsg17
I3
sg18
(lp719
sg20
I0
sg21
(lp720
(i__main__
Player
p721
(dp722
g25
(dp723
g27
Nsg28
I81
sg29
Nsg30
Nsg31
Nsg32
Nsg33
Nssg5
S'H. Ziyech'
p724
sg35
I24
sg18
Nsg36
Nsg37
S'Morocco'
p725
sg39
Nsba(i__main__
Player
p726
(dp727
g25
(dp728
g27
Nsg28
I81
sg29
Nsg30
Nsg31
Nsg32
Nsg33
Nssg5
S'Y. Belhanda'
p729
sg35
I27
sg18
Nsg36
Nsg37
S'Morocco'
p730
sg39
Nsba(i__main__
Player
p731
(dp732
g25
(dp733
g27
Nsg28
I80
sg29
Nsg30
Nsg31
Nsg32
Nsg33
Nssg5
S'K. El Ahmadi'
p734
sg35
I32
sg18
Nsg36
Nsg37
S'Morocco'
p735
sg39
Nsba(i__main__
Player
p736
(dp737
g25
(dp738
g27
Nsg28
I79
sg29
Nsg30
Nsg31
Nsg32
Nsg33
Nssg5
S'N. Amrabat'
p739
sg35
I30
sg18
Nsg36
Nsg37
S'Morocco'
p740
sg39
Nsba(i__main__
Player
p741
(dp742
g25
(dp743
g27
Nsg28
I76
sg29
Nsg30
Nsg31
Nsg32
Nsg33
Nssg5
S'N. Dirar'
p744
sg35
I31
sg18
Nsg36
Nsg37
S'Morocco'
p745
sg39
Nsba(i__main__
Player
p746
(dp747
g25
(dp748
g27
Nsg28
I76
sg29
Nsg30
Nsg31
Nsg32
Nsg33
Nssg5
S'R. Sa\xc3\xafss'
p749
sg35
I27
sg18
Nsg36
Nsg37
S'Morocco'
p750
sg39
Nsba(i__main__
Player
p751
(dp752
g25
(dp753
g27
Nsg28
I75
sg29
Nsg30
Nsg31
Nsg32
Nsg33
Nssg5
S'F. Fajr'
p754
sg35
I28
sg18
Nsg36
Nsg37
S'Morocco'
p755
sg39
Nsba(i__main__
Player
p756
(dp757
g25
(dp758
g27
Nsg28
I74
sg29
Nsg30
Nsg31
Nsg32
Nsg33
Nssg5
S'S. Amrabat'
p759
sg35
I20
sg18
Nsg36
Nsg37
S'Morocco'
p760
sg39
Nsba(i__main__
Player
p761
(dp762
g25
(dp763
g27
Nsg28
I73
sg29
Nsg30
Nsg31
Nsg32
Nsg33
Nssg5
S'A. Bouhaddouz'
p764
sg35
I30
sg18
Nsg36
Nsg37
S'Morocco'
p765
sg39
Nsba(i__main__
Player
p766
(dp767
g25
(dp768
g27
Nsg28
I72
sg29
Nsg30
Nsg31
Nsg32
Nsg33
Nssg5
S'Manuel da Costa'
p769
sg35
I31
sg18
Nsg36
Nsg37
S'Morocco'
p770
sg39
Nsba(i__main__
Player
p771
(dp772
g25
(dp773
g27
Nsg28
I72
sg29
Nsg30
Nsg31
Nsg32
Nsg33
Nssg5
S'Y. Ait Bennasser'
p774
sg35
I20
sg18
Nsg36
Nsg37
S'Morocco'
p775
sg39
Nsba(i__main__
Player
p776
(dp777
g25
(dp778
g27
Nsg28
I71
sg29
Nsg30
Nsg31
Nsg32
Nsg33
Nssg5
S'K. Bouta\xc3\xafb'
p779
sg35
I30
sg18
Nsg36
Nsg37
S'Morocco'
p780
sg39
Nsba(i__main__
Player
p781
(dp782
g25
(dp783
g27
Nsg28
I71
sg29
Nsg30
Nsg31
Nsg32
Nsg33
Nssg5
S'Y. Bounou'
p784
sg35
I26
sg18
Nsg36
Nsg37
S'Morocco'
p785
sg39
Nsba(i__main__
Player
p786
(dp787
g25
(dp788
g27
Nsg28
I71
sg29
Nsg30
Nsg31
Nsg32
Nsg33
Nssg5
S'A. Harit'
p789
sg35
I20
sg18
Nsg36
Nsg37
S'Morocco'
p790
sg39
Nsba(i__main__
Player
p791
(dp792
g25
(dp793
g27
Nsg28
I71
sg29
Nsg30
Nsg31
Nsg32
Nsg33
Nssg5
S'A. Hakimi'
p794
sg35
I18
sg18
Nsg36
Nsg37
S'Morocco'
p795
sg39
Nsba(i__main__
Player
p796
(dp797
g25
(dp798
g27
Nsg28
I69
sg29
Nsg30
Nsg31
Nsg32
Nsg33
Nssg5
S'Y. En-Nesyri'
p799
sg35
I20
sg18
Nsg36
Nsg37
S'Morocco'
p800
sg39
Nsba(i__main__
Player
p801
(dp802
g25
(dp803
g27
Nsg28
I63
sg29
Nsg30
Nsg31
Nsg32
Nsg33
Nssg5
S'H. Mendyl'
p804
sg35
I19
sg18
Nsg36
Nsg37
S'Morocco'
p805
sg39
Nsba(i__main__
Player
p806
(dp807
g25
(dp808
g27
Nsg28
I73
sg29
Nsg30
Nsg31
Nsg32
Nsg33
Nssg5
g143
sg35
I25
sg18
Nsg36
Nsg37
g718
sg39
Nsba(i__main__
Player
p809
(dp810
g25
(dp811
g27
Nsg28
I73
sg29
Nsg30
Nsg31
Nsg32
Nsg33
Nssg5
g143
sg35
I25
sg18
Nsg36
Nsg37
g718
sg39
Nsba(i__main__
Player
p812
(dp813
g25
(dp814
g27
Nsg28
I73
sg29
Nsg30
Nsg31
Nsg32
Nsg33
Nssg5
g143
sg35
I25
sg18
Nsg36
Nsg37
g718
sg39
Nsba(i__main__
Player
p815
(dp816
g25
(dp817
g27
Nsg28
I73
sg29
Nsg30
Nsg31
Nsg32
Nsg33
Nssg5
g143
sg35
I25
sg18
Nsg36
Nsg37
g718
sg39
Nsba(i__main__
Player
p818
(dp819
g25
(dp820
g27
Nsg28
I73
sg29
Nsg30
Nsg31
Nsg32
Nsg33
Nssg5
g143
sg35
I25
sg18
Nsg36
Nsg37
g718
sg39
Nsba(i__main__
Player
p821
(dp822
g25
(dp823
g27
Nsg28
I73
sg29
Nsg30
Nsg31
Nsg32
Nsg33
Nssg5
g143
sg35
I25
sg18
Nsg36
Nsg37
g718
sg39
Nsbasg147
I2
sg148
Nsba(i__main__
Team
p824
(dp825
g11
Nsg5
S'Iran'
p826
sg13
I0
sg14
I1
sg15
Nsg16
Nsg17
I3
sg18
(lp827
sg20
I0
sg21
(lp828
(i__main__
Player
p829
(dp830
g25
(dp831
g27
Nsg28
I77
sg29
Nsg30
Nsg31
Nsg32
Nsg33
Nssg5
S'S. Azmoun'
p832
sg35
I22
sg18
Nsg36
Nsg37
S'Iran'
p833
sg39
Nsba(i__main__
Player
p834
(dp835
g25
(dp836
g27
Nsg28
I75
sg29
Nsg30
Nsg31
Nsg32
Nsg33
Nssg5
S'A. Jahanbakhsh'
p837
sg35
I23
sg18
Nsg36
Nsg37
S'Iran'
p838
sg39
Nsba(i__main__
Player
p839
(dp840
g25
(dp841
g27
Nsg28
I73
sg29
Nsg30
Nsg31
Nsg32
Nsg33
Nssg5
S'M. Mohammadi'
p842
sg35
I23
sg18
Nsg36
Nsg37
S'Iran'
p843
sg39
Nsba(i__main__
Player
p844
(dp845
g25
(dp846
g27
Nsg28
I73
sg29
Nsg30
Nsg31
Nsg32
Nsg33
Nssg5
S'K. Ansarifard'
p847
sg35
I27
sg18
Nsg36
Nsg37
S'Iran'
p848
sg39
Nsba(i__main__
Player
p849
(dp850
g25
(dp851
g27
Nsg28
I72
sg29
Nsg30
Nsg31
Nsg32
Nsg33
Nssg5
S'R. Ghoochannejhad'
p852
sg35
I29
sg18
Nsg36
Nsg37
S'Iran'
p853
sg39
Nsba(i__main__
Player
p854
(dp855
g25
(dp856
g27
Nsg28
I71
sg29
Nsg30
Nsg31
Nsg32
Nsg33
Nssg5
S'S. Ghoddos'
p857
sg35
I23
sg18
Nsg36
Nsg37
S'Iran'
p858
sg39
Nsba(i__main__
Player
p859
(dp860
g25
(dp861
g27
Nsg28
I70
sg29
Nsg30
Nsg31
Nsg32
Nsg33
Nssg5
S'R. Rezaeian'
p862
sg35
I27
sg18
Nsg36
Nsg37
S'Iran'
p863
sg39
Nsba(i__main__
Player
p864
(dp865
g25
(dp866
g27
Nsg28
I66
sg29
Nsg30
Nsg31
Nsg32
Nsg33
Nssg5
S'S. Ezatolahi'
p867
sg35
I20
sg18
Nsg36
Nsg37
S'Iran'
p868
sg39
Nsba(i__main__
Player
p869
(dp870
g25
(dp871
g27
Nsg28
I62
sg29
Nsg30
Nsg31
Nsg32
Nsg33
Nssg5
S'A. Abedzadeh'
p872
sg35
I24
sg18
Nsg36
Nsg37
S'Iran'
p873
sg39
Nsba(i__main__
Player
p874
(dp875
g25
(dp876
g27
Nsg28
I71
sg29
Nsg30
Nsg31
Nsg32
Nsg33
Nssg5
g143
sg35
I24
sg18
Nsg36
Nsg37
g826
sg39
Nsba(i__main__
Player
p877
(dp878
g25
(dp879
g27
Nsg28
I71
sg29
Nsg30
Nsg31
Nsg32
Nsg33
Nssg5
g143
sg35
I24
sg18
Nsg36
Nsg37
g826
sg39
Nsba(i__main__
Player
p880
(dp881
g25
(dp882
g27
Nsg28
I71
sg29
Nsg30
Nsg31
Nsg32
Nsg33
Nssg5
g143
sg35
I24
sg18
Nsg36
Nsg37
g826
sg39
Nsba(i__main__
Player
p883
(dp884
g25
(dp885
g27
Nsg28
I71
sg29
Nsg30
Nsg31
Nsg32
Nsg33
Nssg5
g143
sg35
I24
sg18
Nsg36
Nsg37
g826
sg39
Nsba(i__main__
Player
p886
(dp887
g25
(dp888
g27
Nsg28
I71
sg29
Nsg30
Nsg31
Nsg32
Nsg33
Nssg5
g143
sg35
I24
sg18
Nsg36
Nsg37
g826
sg39
Nsba(i__main__
Player
p889
(dp890
g25
(dp891
g27
Nsg28
I71
sg29
Nsg30
Nsg31
Nsg32
Nsg33
Nssg5
g143
sg35
I24
sg18
Nsg36
Nsg37
g826
sg39
Nsba(i__main__
Player
p892
(dp893
g25
(dp894
g27
Nsg28
I71
sg29
Nsg30
Nsg31
Nsg32
Nsg33
Nssg5
g143
sg35
I24
sg18
Nsg36
Nsg37
g826
sg39
Nsba(i__main__
Player
p895
(dp896
g25
(dp897
g27
Nsg28
I71
sg29
Nsg30
Nsg31
Nsg32
Nsg33
Nssg5
g143
sg35
I24
sg18
Nsg36
Nsg37
g826
sg39
Nsba(i__main__
Player
p898
(dp899
g25
(dp900
g27
Nsg28
I71
sg29
Nsg30
Nsg31
Nsg32
Nsg33
Nssg5
g143
sg35
I24
sg18
Nsg36
Nsg37
g826
sg39
Nsba(i__main__
Player
p901
(dp902
g25
(dp903
g27
Nsg28
I71
sg29
Nsg30
Nsg31
Nsg32
Nsg33
Nssg5
g143
sg35
I24
sg18
Nsg36
Nsg37
g826
sg39
Nsba(i__main__
Player
p904
(dp905
g25
(dp906
g27
Nsg28
I71
sg29
Nsg30
Nsg31
Nsg32
Nsg33
Nssg5
g143
sg35
I24
sg18
Nsg36
Nsg37
g826
sg39
Nsba(i__main__
Player
p907
(dp908
g25
(dp909
g27
Nsg28
I71
sg29
Nsg30
Nsg31
Nsg32
Nsg33
Nssg5
g143
sg35
I24
sg18
Nsg36
Nsg37
g826
sg39
Nsba(i__main__
Player
p910
(dp911
g25
(dp912
g27
Nsg28
I71
sg29
Nsg30
Nsg31
Nsg32
Nsg33
Nssg5
g143
sg35
I24
sg18
Nsg36
Nsg37
g826
sg39
Nsba(i__main__
Player
p913
(dp914
g25
(dp915
g27
Nsg28
I71
sg29
Nsg30
Nsg31
Nsg32
Nsg33
Nssg5
g143
sg35
I24
sg18
Nsg36
Nsg37
g826
sg39
Nsbasg147
I2
sg148
Nsbasba(i__main__
Group
p916
(dp917
g3
(lp918
I0
aI0
aI0
aI0
asg5
S'Group C'
p919
sg7
(lp920
(i__main__
Team
p921
(dp922
g11
Nsg5
S'France'
p923
sg13
I0
sg14
I1
sg15
I9
sg16
Nsg17
I3
sg18
(lp924
sg20
I0
sg21
(lp925
(i__main__
Player
p926
(dp927
g25
(dp928
g27
Nsg28
I88
sg29
Nsg30
Nsg31
Nsg32
Nsg33
Nssg5
S'A. Griezmann'
p929
sg35
I26
sg18
Nsg36
Nsg37
S'France'
p930
sg39
Nsba(i__main__
Player
p931
(dp932
g25
(dp933
g27
Nsg28
I87
sg29
Nsg30
Nsg31
Nsg32
Nsg33
Nssg5
S'N. Kant\xc3\xa9'
p934
sg35
I26
sg18
Nsg36
Nsg37
S'France'
p935
sg39
Nsba(i__main__
Player
p936
(dp937
g25
(dp938
g27
Nsg28
I87
sg29
Nsg30
Nsg31
Nsg32
Nsg33
Nssg5
S'P. Pogba'
p939
sg35
I24
sg18
Nsg36
Nsg37
S'France'
p940
sg39
Nsba(i__main__
Player
p941
(dp942
g25
(dp943
g27
Nsg28
I85
sg29
Nsg30
Nsg31
Nsg32
Nsg33
Nssg5
S'R. Varane'
p944
sg35
I24
sg18
Nsg36
Nsg37
S'France'
p945
sg39
Nsba(i__main__
Player
p946
(dp947
g25
(dp948
g27
Nsg28
I85
sg29
Nsg30
Nsg31
Nsg32
Nsg33
Nssg5
S'B. Matuidi'
p949
sg35
I30
sg18
Nsg36
Nsg37
S'France'
p950
sg39
Nsba(i__main__
Player
p951
(dp952
g25
(dp953
g27
Nsg28
I83
sg29
Nsg30
Nsg31
Nsg32
Nsg33
Nssg5
S'K. Mbapp\xc3\xa9'
p954
sg35
I18
sg18
Nsg36
Nsg37
S'France'
p955
sg39
Nsba(i__main__
Player
p956
(dp957
g25
(dp958
g27
Nsg28
I83
sg29
Nsg30
Nsg31
Nsg32
Nsg33
Nssg5
S'O. Demb\xc3\xa9l\xc3\xa9'
p959
sg35
I20
sg18
Nsg36
Nsg37
S'France'
p960
sg39
Nsba(i__main__
Player
p961
(dp962
g25
(dp963
g27
Nsg28
I83
sg29
Nsg30
Nsg31
Nsg32
Nsg33
Nssg5
S'T. Lemar'
p964
sg35
I21
sg18
Nsg36
Nsg37
S'France'
p965
sg39
Nsba(i__main__
Player
p966
(dp967
g25
(dp968
g27
Nsg28
I83
sg29
Nsg30
Nsg31
Nsg32
Nsg33
Nssg5
S'S. Umtiti'
p969
sg35
I23
sg18
Nsg36
Nsg37
S'France'
p970
sg39
Nsba(i__main__
Player
p971
(dp972
g25
(dp973
g27
Nsg28
I82
sg29
Nsg30
Nsg31
Nsg32
Nsg33
Nssg5
S'C. Tolisso'
p974
sg35
I22
sg18
Nsg36
Nsg37
S'France'
p975
sg39
Nsba(i__main__
Player
p976
(dp977
g25
(dp978
g27
Nsg28
I82
sg29
Nsg30
Nsg31
Nsg32
Nsg33
Nssg5
S'N. Fekir'
p979
sg35
I23
sg18
Nsg36
Nsg37
S'France'
p980
sg39
Nsba(i__main__
Player
p981
(dp982
g25
(dp983
g27
Nsg28
I82
sg29
Nsg30
Nsg31
Nsg32
Nsg33
Nssg5
S'F. Thauvin'
p984
sg35
I24
sg18
Nsg36
Nsg37
S'France'
p985
sg39
Nsba(i__main__
Player
p986
(dp987
g25
(dp988
g27
Nsg28
I82
sg29
Nsg30
Nsg31
Nsg32
Nsg33
Nssg5
S'O. Giroud'
p989
sg35
I30
sg18
Nsg36
Nsg37
S'France'
p990
sg39
Nsba(i__main__
Player
p991
(dp992
g25
(dp993
g27
Nsg28
I82
sg29
Nsg30
Nsg31
Nsg32
Nsg33
Nssg5
S'S. Mandanda'
p994
sg35
I32
sg18
Nsg36
Nsg37
S'France'
p995
sg39
Nsba(i__main__
Player
p996
(dp997
g25
(dp998
g27
Nsg28
I81
sg29
Nsg30
Nsg31
Nsg32
Nsg33
Nssg5
S'A. Rami'
p999
sg35
I31
sg18
Nsg36
Nsg37
S'France'
p1000
sg39
Nsba(i__main__
Player
p1001
(dp1002
g25
(dp1003
g27
Nsg28
I79
sg29
Nsg30
Nsg31
Nsg32
Nsg33
Nssg5
S'D. Sidib\xc3\xa9'
p1004
sg35
I24
sg18
Nsg36
Nsg37
S'France'
p1005
sg39
Nsba(i__main__
Player
p1006
(dp1007
g25
(dp1008
g27
Nsg28
I79
sg29
Nsg30
Nsg31
Nsg32
Nsg33
Nssg5
S'A. Areola'
p1009
sg35
I24
sg18
Nsg36
Nsg37
S'France'
p1010
sg39
Nsba(i__main__
Player
p1011
(dp1012
g25
(dp1013
g27
Nsg28
I78
sg29
Nsg30
Nsg31
Nsg32
Nsg33
Nssg5
S'B. Mendy'
p1014
sg35
I22
sg18
Nsg36
Nsg37
S'France'
p1015
sg39
Nsba(i__main__
Player
p1016
(dp1017
g25
(dp1018
g27
Nsg28
I77
sg29
Nsg30
Nsg31
Nsg32
Nsg33
Nssg5
S'P. Kimpembe'
p1019
sg35
I21
sg18
Nsg36
Nsg37
S'France'
p1020
sg39
Nsba(i__main__
Player
p1021
(dp1022
g25
(dp1023
g27
Nsg28
I77
sg29
Nsg30
Nsg31
Nsg32
Nsg33
Nssg5
S'L. Hern\xc3\xa1ndez'
p1024
sg35
I21
sg18
Nsg36
Nsg37
S'France'
p1025
sg39
Nsba(i__main__
Player
p1026
(dp1027
g25
(dp1028
g27
Nsg28
I76
sg29
Nsg30
Nsg31
Nsg32
Nsg33
Nssg5
S'N. Mendy'
p1029
sg35
I25
sg18
Nsg36
Nsg37
S'France'
p1030
sg39
Nsba(i__main__
Player
p1031
(dp1032
g25
(dp1033
g27
Nsg28
I75
sg29
Nsg30
Nsg31
Nsg32
Nsg33
Nssg5
S'M. Demb\xc3\xa9l\xc3\xa9'
p1034
sg35
I20
sg18
Nsg36
Nsg37
S'France'
p1035
sg39
Nsba(i__main__
Player
p1036
(dp1037
g25
(dp1038
g27
Nsg28
I75
sg29
Nsg30
Nsg31
Nsg32
Nsg33
Nssg5
S'T. Hern\xc3\xa1ndez'
p1039
sg35
I19
sg18
Nsg36
Nsg37
S'France'
p1040
sg39
Nsbasg147
I2
sg148
Nsba(i__main__
Team
p1041
(dp1042
g11
Nsg5
S'Australia'
p1043
sg13
I0
sg14
I1
sg15
I39
sg16
Nsg17
I3
sg18
(lp1044
sg20
I0
sg21
(lp1045
(i__main__
Player
p1046
(dp1047
g25
(dp1048
g27
Nsg28
I77
sg29
Nsg30
Nsg31
Nsg32
Nsg33
Nssg5
S'M. Ryan'
p1049
sg35
I25
sg18
Nsg36
Nsg37
S'Australia'
p1050
sg39
Nsba(i__main__
Player
p1051
(dp1052
g25
(dp1053
g27
Nsg28
I77
sg29
Nsg30
Nsg31
Nsg32
Nsg33
Nssg5
S'B. Jones'
p1054
sg35
I35
sg18
Nsg36
Nsg37
S'Australia'
p1055
sg39
Nsba(i__main__
Player
p1056
(dp1057
g25
(dp1058
g27
Nsg28
I77
sg29
Nsg30
Nsg31
Nsg32
Nsg33
Nssg5
S'A. Mooy'
p1059
sg35
I26
sg18
Nsg36
Nsg37
S'Australia'
p1060
sg39
Nsba(i__main__
Player
p1061
(dp1062
g25
(dp1063
g27
Nsg28
I74
sg29
Nsg30
Nsg31
Nsg32
Nsg33
Nssg5
S'T. Sainsbury'
p1064
sg35
I25
sg18
Nsg36
Nsg37
S'Australia'
p1065
sg39
Nsba(i__main__
Player
p1066
(dp1067
g25
(dp1068
g27
Nsg28
I74
sg29
Nsg30
Nsg31
Nsg32
Nsg33
Nssg5
S'M. Milligan'
p1069
sg35
I31
sg18
Nsg36
Nsg37
S'Australia'
p1070
sg39
Nsba(i__main__
Player
p1071
(dp1072
g25
(dp1073
g27
Nsg28
I73
sg29
Nsg30
Nsg31
Nsg32
Nsg33
Nssg5
S'J. Maclaren'
p1074
sg35
I23
sg18
Nsg36
Nsg37
S'Australia'
p1075
sg39
Nsba(i__main__
Player
p1076
(dp1077
g25
(dp1078
g27
Nsg28
I73
sg29
Nsg30
Nsg31
Nsg32
Nsg33
Nssg5
S'A. Behich'
p1079
sg35
I26
sg18
Nsg36
Nsg37
S'Australia'
p1080
sg39
Nsba(i__main__
Player
p1081
(dp1082
g25
(dp1083
g27
Nsg28
I72
sg29
Nsg30
Nsg31
Nsg32
Nsg33
Nssg5
S'R. Kruse'
p1084
sg35
I28
sg18
Nsg36
Nsg37
S'Australia'
p1085
sg39
Nsba(i__main__
Player
p1086
(dp1087
g25
(dp1088
g27
Nsg28
I72
sg29
Nsg30
Nsg31
Nsg32
Nsg33
Nssg5
S'M. Leckie'
p1089
sg35
I26
sg18
Nsg36
Nsg37
S'Australia'
p1090
sg39
Nsba(i__main__
Player
p1091
(dp1092
g25
(dp1093
g27
Nsg28
I71
sg29
Nsg30
Nsg31
Nsg32
Nsg33
Nssg5
S'M. Luongo'
p1094
sg35
I24
sg18
Nsg36
Nsg37
S'Australia'
p1095
sg39
Nsba(i__main__
Player
p1096
(dp1097
g25
(dp1098
g27
Nsg28
I71
sg29
Nsg30
Nsg31
Nsg32
Nsg33
Nssg5
S'J. Irvine'
p1099
sg35
I24
sg18
Nsg36
Nsg37
S'Australia'
p1100
sg39
Nsba(i__main__
Player
p1101
(dp1102
g25
(dp1103
g27
Nsg28
I70
sg29
Nsg30
Nsg31
Nsg32
Nsg33
Nssg5
S'J. Risdon'
p1104
sg35
I24
sg18
Nsg36
Nsg37
S'Australia'
p1105
sg39
Nsba(i__main__
Player
p1106
(dp1107
g25
(dp1108
g27
Nsg28
I70
sg29
Nsg30
Nsg31
Nsg32
Nsg33
Nssg5
S'M. Degenek'
p1109
sg35
I23
sg18
Nsg36
Nsg37
S'Australia'
p1110
sg39
Nsba(i__main__
Player
p1111
(dp1112
g25
(dp1113
g27
Nsg28
I70
sg29
Nsg30
Nsg31
Nsg32
Nsg33
Nssg5
S'T. Cahill'
p1114
sg35
I37
sg18
Nsg36
Nsg37
S'Australia'
p1115
sg39
Nsba(i__main__
Player
p1116
(dp1117
g25
(dp1118
g27
Nsg28
I70
sg29
Nsg30
Nsg31
Nsg32
Nsg33
Nssg5
S'D. Vukovic'
p1119
sg35
I32
sg18
Nsg36
Nsg37
S'Australia'
p1120
sg39
Nsba(i__main__
Player
p1121
(dp1122
g25
(dp1123
g27
Nsg28
I69
sg29
Nsg30
Nsg31
Nsg32
Nsg33
Nssg5
S'M. Jurman'
p1124
sg35
I27
sg18
Nsg36
Nsg37
S'Australia'
p1125
sg39
Nsba(i__main__
Player
p1126
(dp1127
g25
(dp1128
g27
Nsg28
I68
sg29
Nsg30
Nsg31
Nsg32
Nsg33
Nssg5
S'J. Meredith'
p1129
sg35
I29
sg18
Nsg36
Nsg37
S'Australia'
p1130
sg39
Nsba(i__main__
Player
p1131
(dp1132
g25
(dp1133
g27
Nsg28
I66
sg29
Nsg30
Nsg31
Nsg32
Nsg33
Nssg5
S'D. Petratos'
p1134
sg35
I24
sg18
Nsg36
Nsg37
S'Australia'
p1135
sg39
Nsba(i__main__
Player
p1136
(dp1137
g25
(dp1138
g27
Nsg28
I65
sg29
Nsg30
Nsg31
Nsg32
Nsg33
Nssg5
S'A. Nabbout'
p1139
sg35
I24
sg18
Nsg36
Nsg37
S'Australia'
p1140
sg39
Nsba(i__main__
Player
p1141
(dp1142
g25
(dp1143
g27
Nsg28
I59
sg29
Nsg30
Nsg31
Nsg32
Nsg33
Nssg5
S'D. Ryan'
p1144
sg35
I17
sg18
Nsg36
Nsg37
S'Australia'
p1145
sg39
Nsba(i__main__
Player
p1146
(dp1147
g25
(dp1148
g27
Nsg28
I58
sg29
Nsg30
Nsg31
Nsg32
Nsg33
Nssg5
S'D. Arzani'
p1149
sg35
I18
sg18
Nsg36
Nsg37
S'Australia'
p1150
sg39
Nsba(i__main__
Player
p1151
(dp1152
g25
(dp1153
g27
Nsg28
I57
sg29
Nsg30
Nsg31
Nsg32
Nsg33
Nssg5
S'K. Petratos'
p1154
sg35
I19
sg18
Nsg36
Nsg37
S'Australia'
p1155
sg39
Nsba(i__main__
Player
p1156
(dp1157
g25
(dp1158
g27
Nsg28
I69
sg29
Nsg30
Nsg31
Nsg32
Nsg33
Nssg5
g143
sg35
I25
sg18
Nsg36
Nsg37
g1043
sg39
Nsbasg147
I2
sg148
Nsba(i__main__
Team
p1159
(dp1160
g11
Nsg5
S'Peru'
p1161
sg13
I0
sg14
I1
sg15
I11
sg16
Nsg17
I3
sg18
(lp1162
sg20
I0
sg21
(lp1163
(i__main__
Player
p1164
(dp1165
g25
(dp1166
g27
Nsg28
I78
sg29
Nsg30
Nsg31
Nsg32
Nsg33
Nssg5
S'J. Farf\xc3\xa1n'
p1167
sg35
I32
sg18
Nsg36
Nsg37
S'Peru'
p1168
sg39
Nsba(i__main__
Player
p1169
(dp1170
g25
(dp1171
g27
Nsg28
I77
sg29
Nsg30
Nsg31
Nsg32
Nsg33
Nssg5
S'A. Carrillo'
p1172
sg35
I26
sg18
Nsg36
Nsg37
S'Peru'
p1173
sg39
Nsba(i__main__
Player
p1174
(dp1175
g25
(dp1176
g27
Nsg28
I76
sg29
Nsg30
Nsg31
Nsg32
Nsg33
Nssg5
S'P. Hurtado'
p1177
sg35
I26
sg18
Nsg36
Nsg37
S'Peru'
p1178
sg39
Nsba(i__main__
Player
p1179
(dp1180
g25
(dp1181
g27
Nsg28
I76
sg29
Nsg30
Nsg31
Nsg32
Nsg33
Nssg5
S'R. Ruid\xc3\xadaz'
p1182
sg35
I26
sg18
Nsg36
Nsg37
S'Peru'
p1183
sg39
Nsba(i__main__
Player
p1184
(dp1185
g25
(dp1186
g27
Nsg28
I74
sg29
Nsg30
Nsg31
Nsg32
Nsg33
Nssg5
S'P. Gallese'
p1187
sg35
I27
sg18
Nsg36
Nsg37
S'Peru'
p1188
sg39
Nsba(i__main__
Player
p1189
(dp1190
g25
(dp1191
g27
Nsg28
I73
sg29
Nsg30
Nsg31
Nsg32
Nsg33
Nssg5
S'A. Rodr\xc3\xadguez'
p1192
sg35
I33
sg18
Nsg36
Nsg37
S'Peru'
p1193
sg39
Nsba(i__main__
Player
p1194
(dp1195
g25
(dp1196
g27
Nsg28
I72
sg29
Nsg30
Nsg31
Nsg32
Nsg33
Nssg5
S'R. Tapia'
p1197
sg35
I21
sg18
Nsg36
Nsg37
S'Peru'
p1198
sg39
Nsba(i__main__
Player
p1199
(dp1200
g25
(dp1201
g27
Nsg28
I72
sg29
Nsg30
Nsg31
Nsg32
Nsg33
Nssg5
S'L. Adv\xc3\xadncula'
p1202
sg35
I27
sg18
Nsg36
Nsg37
S'Peru'
p1203
sg39
Nsba(i__main__
Player
p1204
(dp1205
g25
(dp1206
g27
Nsg28
I71
sg29
Nsg30
Nsg31
Nsg32
Nsg33
Nssg5
S'Y. Yot\xc3\xban'
p1207
sg35
I27
sg18
Nsg36
Nsg37
S'Peru'
p1208
sg39
Nsba(i__main__
Player
p1209
(dp1210
g25
(dp1211
g27
Nsg28
I69
sg29
Nsg30
Nsg31
Nsg32
Nsg33
Nssg5
S'A. Polo'
p1212
sg35
I22
sg18
Nsg36
Nsg37
S'Peru'
p1213
sg39
Nsba(i__main__
Player
p1214
(dp1215
g25
(dp1216
g27
Nsg28
I68
sg29
Nsg30
Nsg31
Nsg32
Nsg33
Nssg5
S'J. Carvallo'
p1217
sg35
I31
sg18
Nsg36
Nsg37
S'Peru'
p1218
sg39
Nsba(i__main__
Player
p1219
(dp1220
g25
(dp1221
g27
Nsg28
I67
sg29
Nsg30
Nsg31
Nsg32
Nsg33
Nssg5
S'C. Ramos'
p1222
sg35
I28
sg18
Nsg36
Nsg37
S'Peru'
p1223
sg39
Nsba(i__main__
Player
p1224
(dp1225
g25
(dp1226
g27
Nsg28
I67
sg29
Nsg30
Nsg31
Nsg32
Nsg33
Nssg5
S'M. Araujo'
p1227
sg35
I22
sg18
Nsg36
Nsg37
S'Peru'
p1228
sg39
Nsba(i__main__
Player
p1229
(dp1230
g25
(dp1231
g27
Nsg28
I65
sg29
Nsg30
Nsg31
Nsg32
Nsg33
Nssg5
S'A. Corzo'
p1232
sg35
I28
sg18
Nsg36
Nsg37
S'Peru'
p1233
sg39
Nsba(i__main__
Player
p1234
(dp1235
g25
(dp1236
g27
Nsg28
I65
sg29
Nsg30
Nsg31
Nsg32
Nsg33
Nssg5
S'P. Aquino'
p1237
sg35
I22
sg18
Nsg36
Nsg37
S'Peru'
p1238
sg39
Nsba(i__main__
Player
p1239
(dp1240
g25
(dp1241
g27
Nsg28
I64
sg29
Nsg30
Nsg31
Nsg32
Nsg33
Nssg5
S'W. Cartagena'
p1242
sg35
I22
sg18
Nsg36
Nsg37
S'Peru'
p1243
sg39
Nsba(i__main__
Player
p1244
(dp1245
g25
(dp1246
g27
Nsg28
I63
sg29
Nsg30
Nsg31
Nsg32
Nsg33
Nssg5
S'E. Flores'
p1247
sg35
I23
sg18
Nsg36
Nsg37
S'Peru'
p1248
sg39
Nsba(i__main__
Player
p1249
(dp1250
g25
(dp1251
g27
Nsg28
I63
sg29
Nsg30
Nsg31
Nsg32
Nsg33
Nssg5
S'N. Loyola'
p1252
sg35
I22
sg18
Nsg36
Nsg37
S'Peru'
p1253
sg39
Nsba(i__main__
Player
p1254
(dp1255
g25
(dp1256
g27
Nsg28
I70
sg29
Nsg30
Nsg31
Nsg32
Nsg33
Nssg5
g143
sg35
I25
sg18
Nsg36
Nsg37
g1161
sg39
Nsba(i__main__
Player
p1257
(dp1258
g25
(dp1259
g27
Nsg28
I70
sg29
Nsg30
Nsg31
Nsg32
Nsg33
Nssg5
g143
sg35
I25
sg18
Nsg36
Nsg37
g1161
sg39
Nsba(i__main__
Player
p1260
(dp1261
g25
(dp1262
g27
Nsg28
I70
sg29
Nsg30
Nsg31
Nsg32
Nsg33
Nssg5
g143
sg35
I25
sg18
Nsg36
Nsg37
g1161
sg39
Nsba(i__main__
Player
p1263
(dp1264
g25
(dp1265
g27
Nsg28
I70
sg29
Nsg30
Nsg31
Nsg32
Nsg33
Nssg5
g143
sg35
I25
sg18
Nsg36
Nsg37
g1161
sg39
Nsba(i__main__
Player
p1266
(dp1267
g25
(dp1268
g27
Nsg28
I70
sg29
Nsg30
Nsg31
Nsg32
Nsg33
Nssg5
g143
sg35
I25
sg18
Nsg36
Nsg37
g1161
sg39
Nsbasg147
I2
sg148
Nsba(i__main__
Team
p1269
(dp1270
g11
Nsg5
S'Denmark'
p1271
sg13
I0
sg14
I1
sg15
I12
sg16
Nsg17
I3
sg18
(lp1272
sg20
I0
sg21
(lp1273
(i__main__
Player
p1274
(dp1275
g25
(dp1276
g27
Nsg28
I87
sg29
Nsg30
Nsg31
Nsg32
Nsg33
Nssg5
S'C. Eriksen'
p1277
sg35
I25
sg18
Nsg36
Nsg37
S'Denmark'
p1278
sg39
Nsba(i__main__
Player
p1279
(dp1280
g25
(dp1281
g27
Nsg28
I83
sg29
Nsg30
Nsg31
Nsg32
Nsg33
Nssg5
S'K. Schmeichel'
p1282
sg35
I30
sg18
Nsg36
Nsg37
S'Denmark'
p1283
sg39
Nsba(i__main__
Player
p1284
(dp1285
g25
(dp1286
g27
Nsg28
I81
sg29
Nsg30
Nsg31
Nsg32
Nsg33
Nssg5
S'A. Christensen'
p1287
sg35
I21
sg18
Nsg36
Nsg37
S'Denmark'
p1288
sg39
Nsba(i__main__
Player
p1289
(dp1290
g25
(dp1291
g27
Nsg28
I79
sg29
Nsg30
Nsg31
Nsg32
Nsg33
Nssg5
S'J. Vestergaard'
p1292
sg35
I24
sg18
Nsg36
Nsg37
S'Denmark'
p1293
sg39
Nsba(i__main__
Player
p1294
(dp1295
g25
(dp1296
g27
Nsg28
I79
sg29
Nsg30
Nsg31
Nsg32
Nsg33
Nssg5
S'N. J\xc3\xb8rgensen'
p1297
sg35
I26
sg18
Nsg36
Nsg37
S'Denmark'
p1298
sg39
Nsba(i__main__
Player
p1299
(dp1300
g25
(dp1301
g27
Nsg28
I79
sg29
Nsg30
Nsg31
Nsg32
Nsg33
Nssg5
S'M. Krohn-Dehli'
p1302
sg35
I34
sg18
Nsg36
Nsg37
S'Denmark'
p1303
sg39
Nsba(i__main__
Player
p1304
(dp1305
g25
(dp1306
g27
Nsg28
I78
sg29
Nsg30
Nsg31
Nsg32
Nsg33
Nssg5
S'K. Dolberg'
p1307
sg35
I19
sg18
Nsg36
Nsg37
S'Denmark'
p1308
sg39
Nsba(i__main__
Player
p1309
(dp1310
g25
(dp1311
g27
Nsg28
I77
sg29
Nsg30
Nsg31
Nsg32
Nsg33
Nssg5
S'M. Braithwaite'
p1312
sg35
I26
sg18
Nsg36
Nsg37
S'Denmark'
p1313
sg39
Nsba(i__main__
Player
p1314
(dp1315
g25
(dp1316
g27
Nsg28
I76
sg29
Nsg30
Nsg31
Nsg32
Nsg33
Nssg5
S'Y. Poulsen'
p1317
sg35
I23
sg18
Nsg36
Nsg37
S'Denmark'
p1318
sg39
Nsba(i__main__
Player
p1319
(dp1320
g25
(dp1321
g27
Nsg28
I75
sg29
Nsg30
Nsg31
Nsg32
Nsg33
Nssg5
S'L. Lerager'
p1322
sg35
I23
sg18
Nsg36
Nsg37
S'Denmark'
p1323
sg39
Nsba(i__main__
Player
p1324
(dp1325
g25
(dp1326
g27
Nsg28
I75
sg29
Nsg30
Nsg31
Nsg32
Nsg33
Nssg5
S'J. L\xc3\xb6ssl'
p1327
sg35
I28
sg18
Nsg36
Nsg37
S'Denmark'
p1328
sg39
Nsba(i__main__
Player
p1329
(dp1330
g25
(dp1331
g27
Nsg28
I75
sg29
Nsg30
Nsg31
Nsg32
Nsg33
Nssg5
S'V. Fischer'
p1332
sg35
I23
sg18
Nsg36
Nsg37
S'Denmark'
p1333
sg39
Nsba(i__main__
Player
p1334
(dp1335
g25
(dp1336
g27
Nsg28
I75
sg29
Nsg30
Nsg31
Nsg32
Nsg33
Nssg5
S'M. J\xc3\xb8rgensen'
p1337
sg35
I27
sg18
Nsg36
Nsg37
S'Denmark'
p1338
sg39
Nsba(i__main__
Player
p1339
(dp1340
g25
(dp1341
g27
Nsg28
I74
sg29
Nsg30
Nsg31
Nsg32
Nsg33
Nssg5
S'P. Sisto'
p1342
sg35
I22
sg18
Nsg36
Nsg37
S'Denmark'
p1343
sg39
Nsba(i__main__
Player
p1344
(dp1345
g25
(dp1346
g27
Nsg28
I73
sg29
Nsg30
Nsg31
Nsg32
Nsg33
Nssg5
S'F. R\xc3\xb8nnow'
p1347
sg35
I24
sg18
Nsg36
Nsg37
S'Denmark'
p1348
sg39
Nsba(i__main__
Player
p1349
(dp1350
g25
(dp1351
g27
Nsg28
I73
sg29
Nsg30
Nsg31
Nsg32
Nsg33
Nssg5
S'A. Cornelius'
p1352
sg35
I24
sg18
Nsg36
Nsg37
S'Denmark'
p1353
sg39
Nsba(i__main__
Player
p1354
(dp1355
g25
(dp1356
g27
Nsg28
I71
sg29
Nsg30
Nsg31
Nsg32
Nsg33
Nssg5
S'J. Poulsen'
p1357
sg35
I33
sg18
Nsg36
Nsg37
S'Denmark'
p1358
sg39
Nsba(i__main__
Player
p1359
(dp1360
g25
(dp1361
g27
Nsg28
I71
sg29
Nsg30
Nsg31
Nsg32
Nsg33
Nssg5
S'H. Dalsgaard'
p1362
sg35
I27
sg18
Nsg36
Nsg37
S'Denmark'
p1363
sg39
Nsba(i__main__
Player
p1364
(dp1365
g25
(dp1366
g27
Nsg28
I70
sg29
Nsg30
Nsg31
Nsg32
Nsg33
Nssg5
S'W. Kvist'
p1367
sg35
I32
sg18
Nsg36
Nsg37
S'Denmark'
p1368
sg39
Nsba(i__main__
Player
p1369
(dp1370
g25
(dp1371
g27
Nsg28
I70
sg29
Nsg30
Nsg31
Nsg32
Nsg33
Nssg5
S'K. Larsen'
p1372
sg35
I24
sg18
Nsg36
Nsg37
S'Denmark'
p1373
sg39
Nsba(i__main__
Player
p1374
(dp1375
g25
(dp1376
g27
Nsg28
I69
sg29
Nsg30
Nsg31
Nsg32
Nsg33
Nssg5
S'J. Knudsen'
p1377
sg35
I24
sg18
Nsg36
Nsg37
S'Denmark'
p1378
sg39
Nsba(i__main__
Player
p1379
(dp1380
g25
(dp1381
g27
Nsg28
I69
sg29
Nsg30
Nsg31
Nsg32
Nsg33
Nssg5
S'J. Stryger Larsen'
p1382
sg35
I26
sg18
Nsg36
Nsg37
S'Denmark'
p1383
sg39
Nsba(i__main__
Player
p1384
(dp1385
g25
(dp1386
g27
Nsg28
I68
sg29
Nsg30
Nsg31
Nsg32
Nsg33
Nssg5
S'L. Christensen'
p1387
sg35
I22
sg18
Nsg36
Nsg37
S'Denmark'
p1388
sg39
Nsbasg147
I2
sg148
Nsbasba(i__main__
Group
p1389
(dp1390
g3
(lp1391
I0
aI0
aI0
aI0
asg5
S'Group D'
p1392
sg7
(lp1393
(i__main__
Team
p1394
(dp1395
g11
Nsg5
S'Argentina'
p1396
sg13
I0
sg14
I1
sg15
I4
sg16
Nsg17
I3
sg18
(lp1397
sg20
I0
sg21
(lp1398
(i__main__
Player
p1399
(dp1400
g25
(dp1401
g27
Nsg28
I90
sg29
Nsg30
Nsg31
Nsg32
Nsg33
Nssg5
S'G. Higua\xc3\xadn'
p1402
sg35
I29
sg18
Nsg36
Nsg37
S'Argentina'
p1403
sg39
Nsba(i__main__
Player
p1404
(dp1405
g25
(dp1406
g27
Nsg28
I89
sg29
Nsg30
Nsg31
Nsg32
Nsg33
Nssg5
S'S. Ag\xc3\xbcero'
p1407
sg35
I29
sg18
Nsg36
Nsg37
S'Argentina'
p1408
sg39
Nsba(i__main__
Player
p1409
(dp1410
g25
(dp1411
g27
Nsg28
I88
sg29
Nsg30
Nsg31
Nsg32
Nsg33
Nssg5
S'P. Dybala'
p1412
sg35
I23
sg18
Nsg36
Nsg37
S'Argentina'
p1413
sg39
Nsba(i__main__
Player
p1414
(dp1415
g25
(dp1416
g27
Nsg28
I85
sg29
Nsg30
Nsg31
Nsg32
Nsg33
Nssg5
S'A. Di Mar\xc3\xada'
p1417
sg35
I29
sg18
Nsg36
Nsg37
S'Argentina'
p1418
sg39
Nsba(i__main__
Player
p1419
(dp1420
g25
(dp1421
g27
Nsg28
I83
sg29
Nsg30
Nsg31
Nsg32
Nsg33
Nssg5
S'N. Otamendi'
p1422
sg35
I29
sg18
Nsg36
Nsg37
S'Argentina'
p1423
sg39
Nsba(i__main__
Player
p1424
(dp1425
g25
(dp1426
g27
Nsg28
I83
sg29
Nsg30
Nsg31
Nsg32
Nsg33
Nssg5
S'E. Banega'
p1427
sg35
I29
sg18
Nsg36
Nsg37
S'Argentina'
p1428
sg39
Nsba(i__main__
Player
p1429
(dp1430
g25
(dp1431
g27
Nsg28
I83
sg29
Nsg30
Nsg31
Nsg32
Nsg33
Nssg5
S'L. Biglia'
p1432
sg35
I31
sg18
Nsg36
Nsg37
S'Argentina'
p1433
sg39
Nsba(i__main__
Player
p1434
(dp1435
g25
(dp1436
g27
Nsg28
I83
sg29
Nsg30
Nsg31
Nsg32
Nsg33
Nssg5
S'J. Mascherano'
p1437
sg35
I33
sg18
Nsg36
Nsg37
S'Argentina'
p1438
sg39
Nsba(i__main__
Player
p1439
(dp1440
g25
(dp1441
g27
Nsg28
I82
sg29
Nsg30
Nsg31
Nsg32
Nsg33
Nssg5
S'M. Rojo'
p1442
sg35
I27
sg18
Nsg36
Nsg37
S'Argentina'
p1443
sg39
Nsba(i__main__
Player
p1444
(dp1445
g25
(dp1446
g27
Nsg28
I82
sg29
Nsg30
Nsg31
Nsg32
Nsg33
Nssg5
S'F. Fazio'
p1447
sg35
I30
sg18
Nsg36
Nsg37
S'Argentina'
p1448
sg39
Nsba(i__main__
Player
p1449
(dp1450
g25
(dp1451
g27
Nsg28
I80
sg29
Nsg30
Nsg31
Nsg32
Nsg33
Nssg5
S'E. Salvio'
p1452
sg35
I26
sg18
Nsg36
Nsg37
S'Argentina'
p1453
sg39
Nsba(i__main__
Player
p1454
(dp1455
g25
(dp1456
g27
Nsg28
I79
sg29
Nsg30
Nsg31
Nsg32
Nsg33
Nssg5
S'M. Acu\xc3\xb1a'
p1457
sg35
I25
sg18
Nsg36
Nsg37
S'Argentina'
p1458
sg39
Nsba(i__main__
Player
p1459
(dp1460
g25
(dp1461
g27
Nsg28
I79
sg29
Nsg30
Nsg31
Nsg32
Nsg33
Nssg5
S'N. Tagliafico'
p1462
sg35
I24
sg18
Nsg36
Nsg37
S'Argentina'
p1463
sg39
Nsba(i__main__
Player
p1464
(dp1465
g25
(dp1466
g27
Nsg28
I79
sg29
Nsg30
Nsg31
Nsg32
Nsg33
Nssg5
S'C. Ansaldi'
p1467
sg35
I30
sg18
Nsg36
Nsg37
S'Argentina'
p1468
sg39
Nsba(i__main__
Player
p1469
(dp1470
g25
(dp1471
g27
Nsg28
I79
sg29
Nsg30
Nsg31
Nsg32
Nsg33
Nssg5
S'W. Caballero'
p1472
sg35
I35
sg18
Nsg36
Nsg37
S'Argentina'
p1473
sg39
Nsba(i__main__
Player
p1474
(dp1475
g25
(dp1476
g27
Nsg28
I78
sg29
Nsg30
Nsg31
Nsg32
Nsg33
Nssg5
S'E. P\xc3\xa9rez'
p1477
sg35
I31
sg18
Nsg36
Nsg37
S'Argentina'
p1478
sg39
Nsba(i__main__
Player
p1479
(dp1480
g25
(dp1481
g27
Nsg28
I77
sg29
Nsg30
Nsg31
Nsg32
Nsg33
Nssg5
S'P. P\xc3\xa9rez'
p1482
sg35
I31
sg18
Nsg36
Nsg37
S'Argentina'
p1483
sg39
Nsba(i__main__
Player
p1484
(dp1485
g25
(dp1486
g27
Nsg28
I77
sg29
Nsg30
Nsg31
Nsg32
Nsg33
Nssg5
S'F. Armani'
p1487
sg35
I30
sg18
Nsg36
Nsg37
S'Argentina'
p1488
sg39
Nsba(i__main__
Player
p1489
(dp1490
g25
(dp1491
g27
Nsg28
I77
sg29
Nsg30
Nsg31
Nsg32
Nsg33
Nssg5
S'F. Higua\xc3\xadn'
p1492
sg35
I32
sg18
Nsg36
Nsg37
S'Argentina'
p1493
sg39
Nsba(i__main__
Player
p1494
(dp1495
g25
(dp1496
g27
Nsg28
I76
sg29
Nsg30
Nsg31
Nsg32
Nsg33
Nssg5
S'G. Mercado'
p1497
sg35
I30
sg18
Nsg36
Nsg37
S'Argentina'
p1498
sg39
Nsba(i__main__
Player
p1499
(dp1500
g25
(dp1501
g27
Nsg28
I75
sg29
Nsg30
Nsg31
Nsg32
Nsg33
Nssg5
S'C. Pav\xc3\xb3n'
p1502
sg35
I21
sg18
Nsg36
Nsg37
S'Argentina'
p1503
sg39
Nsba(i__main__
Player
p1504
(dp1505
g25
(dp1506
g27
Nsg28
I74
sg29
Nsg30
Nsg31
Nsg32
Nsg33
Nssg5
S'G. Lo Celso'
p1507
sg35
I21
sg18
Nsg36
Nsg37
S'Argentina'
p1508
sg39
Nsba(i__main__
Player
p1509
(dp1510
g25
(dp1511
g27
Nsg28
I73
sg29
Nsg30
Nsg31
Nsg32
Nsg33
Nssg5
S'D. P\xc3\xa9rez'
p1512
sg35
I28
sg18
Nsg36
Nsg37
S'Argentina'
p1513
sg39
Nsbasg147
I2
sg148
Nsba(i__main__
Team
p1514
(dp1515
g11
Nsg5
S'Iceland'
p1516
sg13
I0
sg14
I1
sg15
I22
sg16
Nsg17
I3
sg18
(lp1517
sg20
I0
sg21
(lp1518
(i__main__
Player
p1519
(dp1520
g25
(dp1521
g27
Nsg28
I82
sg29
Nsg30
Nsg31
Nsg32
Nsg33
Nssg5
S'G. Sigur\xc3\xb0sson'
p1522
sg35
I27
sg18
Nsg36
Nsg37
S'Iceland'
p1523
sg39
Nsba(i__main__
Player
p1524
(dp1525
g25
(dp1526
g27
Nsg28
I76
sg29
Nsg30
Nsg31
Nsg32
Nsg33
Nssg5
S'A. Finnbogason'
p1527
sg35
I28
sg18
Nsg36
Nsg37
S'Iceland'
p1528
sg39
Nsba(i__main__
Player
p1529
(dp1530
g25
(dp1531
g27
Nsg28
I75
sg29
Nsg30
Nsg31
Nsg32
Nsg33
Nssg5
S'E. Hallfre\xc3\xb0sson'
p1532
sg35
I33
sg18
Nsg36
Nsg37
S'Iceland'
p1533
sg39
Nsba(i__main__
Player
p1534
(dp1535
g25
(dp1536
g27
Nsg28
I73
sg29
Nsg30
Nsg31
Nsg32
Nsg33
Nssg5
S'J. Gu\xc3\xb0mundsson'
p1537
sg35
I26
sg18
Nsg36
Nsg37
S'Iceland'
p1538
sg39
Nsba(i__main__
Player
p1539
(dp1540
g25
(dp1541
g27
Nsg28
I73
sg29
Nsg30
Nsg31
Nsg32
Nsg33
Nssg5
S'B. Bjarnason'
p1542
sg35
I29
sg18
Nsg36
Nsg37
S'Iceland'
p1543
sg39
Nsba(i__main__
Player
p1544
(dp1545
g25
(dp1546
g27
Nsg28
I73
sg29
Nsg30
Nsg31
Nsg32
Nsg33
Nssg5
S'B. Sigur\xc3\xb0arson'
p1547
sg35
I25
sg18
Nsg36
Nsg37
S'Iceland'
p1548
sg39
Nsba(i__main__
Player
p1549
(dp1550
g25
(dp1551
g27
Nsg28
I72
sg29
Nsg30
Nsg31
Nsg32
Nsg33
Nssg5
S'R. Sigur\xc3\xb0sson'
p1552
sg35
I31
sg18
Nsg36
Nsg37
S'Iceland'
p1553
sg39
Nsba(i__main__
Player
p1554
(dp1555
g25
(dp1556
g27
Nsg28
I72
sg29
Nsg30
Nsg31
Nsg32
Nsg33
Nssg5
S'S. Ingason'
p1557
sg35
I23
sg18
Nsg36
Nsg37
S'Iceland'
p1558
sg39
Nsba(i__main__
Player
p1559
(dp1560
g25
(dp1561
g27
Nsg28
I70
sg29
Nsg30
Nsg31
Nsg32
Nsg33
Nssg5
S'O. Sk\xc3\xbalason'
p1562
sg35
I34
sg18
Nsg36
Nsg37
S'Iceland'
p1563
sg39
Nsba(i__main__
Player
p1564
(dp1565
g25
(dp1566
g27
Nsg28
I70
sg29
Nsg30
Nsg31
Nsg32
Nsg33
Nssg5
S'K. \xc3\x81rnason'
p1567
sg35
I34
sg18
Nsg36
Nsg37
S'Iceland'
p1568
sg39
Nsba(i__main__
Player
p1569
(dp1570
g25
(dp1571
g27
Nsg28
I70
sg29
Nsg30
Nsg31
Nsg32
Nsg33
Nssg5
S'A. Traustason'
p1572
sg35
I24
sg18
Nsg36
Nsg37
S'Iceland'
p1573
sg39
Nsba(i__main__
Player
p1574
(dp1575
g25
(dp1576
g27
Nsg28
I69
sg29
Nsg30
Nsg31
Nsg32
Nsg33
Nssg5
S'J. B\xc3\xb6\xc3\xb0varsson'
p1577
sg35
I25
sg18
Nsg36
Nsg37
S'Iceland'
p1578
sg39
Nsba(i__main__
Player
p1579
(dp1580
g25
(dp1581
g27
Nsg28
I68
sg29
Nsg30
Nsg31
Nsg32
Nsg33
Nssg5
S'R. G\xc3\xadslason'
p1582
sg35
I29
sg18
Nsg36
Nsg37
S'Iceland'
p1583
sg39
Nsba(i__main__
Player
p1584
(dp1585
g25
(dp1586
g27
Nsg28
I68
sg29
Nsg30
Nsg31
Nsg32
Nsg33
Nssg5
S'H. Magn\xc3\xbasson'
p1587
sg35
I24
sg18
Nsg36
Nsg37
S'Iceland'
p1588
sg39
Nsba(i__main__
Player
p1589
(dp1590
g25
(dp1591
g27
Nsg28
I68
sg29
Nsg30
Nsg31
Nsg32
Nsg33
Nssg5
S'A. Sk\xc3\xbalason'
p1592
sg35
I30
sg18
Nsg36
Nsg37
S'Iceland'
p1593
sg39
Nsba(i__main__
Player
p1594
(dp1595
g25
(dp1596
g27
Nsg28
I67
sg29
Nsg30
Nsg31
Nsg32
Nsg33
Nssg5
S'H. Halld\xc3\xb3rsson'
p1597
sg35
I33
sg18
Nsg36
Nsg37
S'Iceland'
p1598
sg39
Nsba(i__main__
Player
p1599
(dp1600
g25
(dp1601
g27
Nsg28
I66
sg29
Nsg30
Nsg31
Nsg32
Nsg33
Nssg5
S'B. S\xc3\xa6varsson'
p1602
sg35
I32
sg18
Nsg36
Nsg37
S'Iceland'
p1603
sg39
Nsba(i__main__
Player
p1604
(dp1605
g25
(dp1606
g27
Nsg28
I66
sg29
Nsg30
Nsg31
Nsg32
Nsg33
Nssg5
S'A. Gu\xc3\xb0mundsson'
p1607
sg35
I20
sg18
Nsg36
Nsg37
S'Iceland'
p1608
sg39
Nsba(i__main__
Player
p1609
(dp1610
g25
(dp1611
g27
Nsg28
I66
sg29
Nsg30
Nsg31
Nsg32
Nsg33
Nssg5
S'A. Sigur\xc3\xb0arson'
p1612
sg35
I23
sg18
Nsg36
Nsg37
S'Iceland'
p1613
sg39
Nsba(i__main__
Player
p1614
(dp1615
g25
(dp1616
g27
Nsg28
I65
sg29
Nsg30
Nsg31
Nsg32
Nsg33
Nssg5
S'K. Finnbogason'
p1617
sg35
I30
sg18
Nsg36
Nsg37
S'Iceland'
p1618
sg39
Nsba(i__main__
Player
p1619
(dp1620
g25
(dp1621
g27
Nsg28
I64
sg29
Nsg30
Nsg31
Nsg32
Nsg33
Nssg5
S'R. R\xc3\xbanarsson'
p1622
sg35
I22
sg18
Nsg36
Nsg37
S'Iceland'
p1623
sg39
Nsba(i__main__
Player
p1624
(dp1625
g25
(dp1626
g27
Nsg28
I62
sg29
Nsg30
Nsg31
Nsg32
Nsg33
Nssg5
S'K. Sigur\xc3\xb0sson'
p1627
sg35
I25
sg18
Nsg36
Nsg37
S'Iceland'
p1628
sg39
Nsba(i__main__
Player
p1629
(dp1630
g25
(dp1631
g27
Nsg28
I53
sg29
Nsg30
Nsg31
Nsg32
Nsg33
Nssg5
S'A. Sigur\xc3\xb0sson'
p1632
sg35
I18
sg18
Nsg36
Nsg37
S'Iceland'
p1633
sg39
Nsbasg147
I2
sg148
Nsba(i__main__
Team
p1634
(dp1635
g11
Nsg5
S'Croatia'
p1636
sg13
I0
sg14
I1
sg15
I17
sg16
Nsg17
I3
sg18
(lp1637
sg20
I0
sg21
(lp1638
(i__main__
Player
p1639
(dp1640
g25
(dp1641
g27
Nsg28
I87
sg29
Nsg30
Nsg31
Nsg32
Nsg33
Nssg5
S'I. Rakiti\xc4\x87'
p1642
sg35
I29
sg18
Nsg36
Nsg37
S'Croatia'
p1643
sg39
Nsba(i__main__
Player
p1644
(dp1645
g25
(dp1646
g27
Nsg28
I85
sg29
Nsg30
Nsg31
Nsg32
Nsg33
Nssg5
S'D. Suba\xc5\xa1i\xc4\x87'
p1647
sg35
I32
sg18
Nsg36
Nsg37
S'Croatia'
p1648
sg39
Nsba(i__main__
Player
p1649
(dp1650
g25
(dp1651
g27
Nsg28
I84
sg29
Nsg30
Nsg31
Nsg32
Nsg33
Nssg5
S'I. Peri\xc5\xa1i\xc4\x87'
p1652
sg35
I28
sg18
Nsg36
Nsg37
S'Croatia'
p1653
sg39
Nsba(i__main__
Player
p1654
(dp1655
g25
(dp1656
g27
Nsg28
I83
sg29
Nsg30
Nsg31
Nsg32
Nsg33
Nssg5
S'M. Mand\xc5\xbeuki\xc4\x87'
p1657
sg35
I31
sg18
Nsg36
Nsg37
S'Croatia'
p1658
sg39
Nsba(i__main__
Player
p1659
(dp1660
g25
(dp1661
g27
Nsg28
I82
sg29
Nsg30
Nsg31
Nsg32
Nsg33
Nssg5
S'M. Kova\xc4\x8di\xc4\x87'
p1662
sg35
I23
sg18
Nsg36
Nsg37
S'Croatia'
p1663
sg39
Nsba(i__main__
Player
p1664
(dp1665
g25
(dp1666
g27
Nsg28
I82
sg29
Nsg30
Nsg31
Nsg32
Nsg33
Nssg5
S'V. \xc4\x86orluka'
p1667
sg35
I31
sg18
Nsg36
Nsg37
S'Croatia'
p1668
sg39
Nsba(i__main__
Player
p1669
(dp1670
g25
(dp1671
g27
Nsg28
I81
sg29
Nsg30
Nsg31
Nsg32
Nsg33
Nssg5
S'A. Kramari\xc4\x87'
p1672
sg35
I26
sg18
Nsg36
Nsg37
S'Croatia'
p1673
sg39
Nsba(i__main__
Player
p1674
(dp1675
g25
(dp1676
g27
Nsg28
I81
sg29
Nsg30
Nsg31
Nsg32
Nsg33
Nssg5
S'M. Brozovi\xc4\x87'
p1677
sg35
I24
sg18
Nsg36
Nsg37
S'Croatia'
p1678
sg39
Nsba(i__main__
Player
p1679
(dp1680
g25
(dp1681
g27
Nsg28
I81
sg29
Nsg30
Nsg31
Nsg32
Nsg33
Nssg5
S'D. Lovren'
p1682
sg35
I27
sg18
Nsg36
Nsg37
S'Croatia'
p1683
sg39
Nsba(i__main__
Player
p1684
(dp1685
g25
(dp1686
g27
Nsg28
I81
sg29
Nsg30
Nsg31
Nsg32
Nsg33
Nssg5
S'N. Kalini\xc4\x87'
p1687
sg35
I29
sg18
Nsg36
Nsg37
S'Croatia'
p1688
sg39
Nsba(i__main__
Player
p1689
(dp1690
g25
(dp1691
g27
Nsg28
I79
sg29
Nsg30
Nsg31
Nsg32
Nsg33
Nssg5
S'S. Vrsaljko'
p1692
sg35
I25
sg18
Nsg36
Nsg37
S'Croatia'
p1693
sg39
Nsba(i__main__
Player
p1694
(dp1695
g25
(dp1696
g27
Nsg28
I78
sg29
Nsg30
Nsg31
Nsg32
Nsg33
Nssg5
S'M. Badelj'
p1697
sg35
I28
sg18
Nsg36
Nsg37
S'Croatia'
p1698
sg39
Nsba(i__main__
Player
p1699
(dp1700
g25
(dp1701
g27
Nsg28
I78
sg29
Nsg30
Nsg31
Nsg32
Nsg33
Nssg5
S'M. Badelj'
p1702
sg35
I28
sg18
Nsg36
Nsg37
S'Croatia'
p1703
sg39
Nsba(i__main__
Player
p1704
(dp1705
g25
(dp1706
g27
Nsg28
I77
sg29
Nsg30
Nsg31
Nsg32
Nsg33
Nssg5
S'L. Kalini\xc4\x87'
p1707
sg35
I27
sg18
Nsg36
Nsg37
S'Croatia'
p1708
sg39
Nsba(i__main__
Player
p1709
(dp1710
g25
(dp1711
g27
Nsg28
I76
sg29
Nsg30
Nsg31
Nsg32
Nsg33
Nssg5
S'T. Jedvaj'
p1712
sg35
I21
sg18
Nsg36
Nsg37
S'Croatia'
p1713
sg39
Nsba(i__main__
Player
p1714
(dp1715
g25
(dp1716
g27
Nsg28
I76
sg29
Nsg30
Nsg31
Nsg32
Nsg33
Nssg5
S'M. Pjaca'
p1717
sg35
I22
sg18
Nsg36
Nsg37
S'Croatia'
p1718
sg39
Nsba(i__main__
Player
p1719
(dp1720
g25
(dp1721
g27
Nsg28
I75
sg29
Nsg30
Nsg31
Nsg32
Nsg33
Nssg5
S'I. Strini\xc4\x87'
p1722
sg35
I29
sg18
Nsg36
Nsg37
S'Croatia'
p1723
sg39
Nsba(i__main__
Player
p1724
(dp1725
g25
(dp1726
g27
Nsg28
I72
sg29
Nsg30
Nsg31
Nsg32
Nsg33
Nssg5
S'A. Rebi\xc4\x87'
p1727
sg35
I23
sg18
Nsg36
Nsg37
S'Croatia'
p1728
sg39
Nsba(i__main__
Player
p1729
(dp1730
g25
(dp1731
g27
Nsg28
I71
sg29
Nsg30
Nsg31
Nsg32
Nsg33
Nssg5
S'D. \xc4\x86aleta-Car'
p1732
sg35
I20
sg18
Nsg36
Nsg37
S'Croatia'
p1733
sg39
Nsba(i__main__
Player
p1734
(dp1735
g25
(dp1736
g27
Nsg28
I58
sg29
Nsg30
Nsg31
Nsg32
Nsg33
Nssg5
S'D. Lovren'
p1737
sg35
I18
sg18
Nsg36
Nsg37
S'Croatia'
p1738
sg39
Nsba(i__main__
Player
p1739
(dp1740
g25
(dp1741
g27
Nsg28
I58
sg29
Nsg30
Nsg31
Nsg32
Nsg33
Nssg5
S'D. Kova\xc4\x8di\xc4\x87'
p1742
sg35
I23
sg18
Nsg36
Nsg37
S'Croatia'
p1743
sg39
Nsba(i__main__
Player
p1744
(dp1745
g25
(dp1746
g27
Nsg28
I77
sg29
Nsg30
Nsg31
Nsg32
Nsg33
Nssg5
g143
sg35
I25
sg18
Nsg36
Nsg37
g1636
sg39
Nsba(i__main__
Player
p1747
(dp1748
g25
(dp1749
g27
Nsg28
I77
sg29
Nsg30
Nsg31
Nsg32
Nsg33
Nssg5
g143
sg35
I25
sg18
Nsg36
Nsg37
g1636
sg39
Nsbasg147
I2
sg148
Nsba(i__main__
Team
p1750
(dp1751
g11
Nsg5
S'Nigeria'
p1752
sg13
I0
sg14
I1
sg15
I50
sg16
Nsg17
I3
sg18
(lp1753
sg20
I0
sg21
(lp1754
(i__main__
Player
p1755
(dp1756
g25
(dp1757
g27
Nsg28
I79
sg29
Nsg30
Nsg31
Nsg32
Nsg33
Nssg5
S'V. Moses'
p1758
sg35
I26
sg18
Nsg36
Nsg37
S'Nigeria'
p1759
sg39
Nsba(i__main__
Player
p1760
(dp1761
g25
(dp1762
g27
Nsg28
I77
sg29
Nsg30
Nsg31
Nsg32
Nsg33
Nssg5
S'O. Ndidi'
p1763
sg35
I20
sg18
Nsg36
Nsg37
S'Nigeria'
p1764
sg39
Nsba(i__main__
Player
p1765
(dp1766
g25
(dp1767
g27
Nsg28
I76
sg29
Nsg30
Nsg31
Nsg32
Nsg33
Nssg5
S'A. Musa'
p1768
sg35
I24
sg18
Nsg36
Nsg37
S'Nigeria'
p1769
sg39
Nsba(i__main__
Player
p1770
(dp1771
g25
(dp1772
g27
Nsg28
I75
sg29
Nsg30
Nsg31
Nsg32
Nsg33
Nssg5
S'L. Balogun'
p1773
sg35
I29
sg18
Nsg36
Nsg37
S'Nigeria'
p1774
sg39
Nsba(i__main__
Player
p1775
(dp1776
g25
(dp1777
g27
Nsg28
I75
sg29
Nsg30
Nsg31
Nsg32
Nsg33
Nssg5
S'K. Iheanacho'
p1778
sg35
I20
sg18
Nsg36
Nsg37
S'Nigeria'
p1779
sg39
Nsba(i__main__
Player
p1780
(dp1781
g25
(dp1782
g27
Nsg28
I74
sg29
Nsg30
Nsg31
Nsg32
Nsg33
Nssg5
S'A. Iwobi'
p1783
sg35
I21
sg18
Nsg36
Nsg37
S'Nigeria'
p1784
sg39
Nsba(i__main__
Player
p1785
(dp1786
g25
(dp1787
g27
Nsg28
I74
sg29
Nsg30
Nsg31
Nsg32
Nsg33
Nssg5
S'O. Onazi'
p1788
sg35
I24
sg18
Nsg36
Nsg37
S'Nigeria'
p1789
sg39
Nsba(i__main__
Player
p1790
(dp1791
g25
(dp1792
g27
Nsg28
I73
sg29
Nsg30
Nsg31
Nsg32
Nsg33
Nssg5
S'J. Obi'
p1793
sg35
I26
sg18
Nsg36
Nsg37
S'Nigeria'
p1794
sg39
Nsba(i__main__
Player
p1795
(dp1796
g25
(dp1797
g27
Nsg28
I73
sg29
Nsg30
Nsg31
Nsg32
Nsg33
Nssg5
S'P. Etebo'
p1798
sg35
I21
sg18
Nsg36
Nsg37
S'Nigeria'
p1799
sg39
Nsba(i__main__
Player
p1800
(dp1801
g25
(dp1802
g27
Nsg28
I72
sg29
Nsg30
Nsg31
Nsg32
Nsg33
Nssg5
S'K. Omeruo'
p1803
sg35
I23
sg18
Nsg36
Nsg37
S'Nigeria'
p1804
sg39
Nsba(i__main__
Player
p1805
(dp1806
g25
(dp1807
g27
Nsg28
I71
sg29
Nsg30
Nsg31
Nsg32
Nsg33
Nssg5
S'E. Echi\xc3\xa9jil\xc3\xa9'
p1808
sg35
I29
sg18
Nsg36
Nsg37
S'Nigeria'
p1809
sg39
Nsba(i__main__
Player
p1810
(dp1811
g25
(dp1812
g27
Nsg28
I71
sg29
Nsg30
Nsg31
Nsg32
Nsg33
Nssg5
S'W. Troost-Ekong'
p1813
sg35
I23
sg18
Nsg36
Nsg37
S'Nigeria'
p1814
sg39
Nsba(i__main__
Player
p1815
(dp1816
g25
(dp1817
g27
Nsg28
I71
sg29
Nsg30
Nsg31
Nsg32
Nsg33
Nssg5
S'C. Awaziem'
p1818
sg35
I20
sg18
Nsg36
Nsg37
S'Nigeria'
p1819
sg39
Nsba(i__main__
Player
p1820
(dp1821
g25
(dp1822
g27
Nsg28
I69
sg29
Nsg30
Nsg31
Nsg32
Nsg33
Nssg5
S'S. Abdullahi'
p1823
sg35
I20
sg18
Nsg36
Nsg37
S'Nigeria'
p1824
sg39
Nsba(i__main__
Player
p1825
(dp1826
g25
(dp1827
g27
Nsg28
I66
sg29
Nsg30
Nsg31
Nsg32
Nsg33
Nssg5
S'T. Ebuehi'
p1828
sg35
I21
sg18
Nsg36
Nsg37
S'Nigeria'
p1829
sg39
Nsba(i__main__
Player
p1830
(dp1831
g25
(dp1832
g27
Nsg28
I64
sg29
Nsg30
Nsg31
Nsg32
Nsg33
Nssg5
S'I. Abdullahi'
p1833
sg35
I20
sg18
Nsg36
Nsg37
S'Nigeria'
p1834
sg39
Nsba(i__main__
Player
p1835
(dp1836
g25
(dp1837
g27
Nsg28
I72
sg29
Nsg30
Nsg31
Nsg32
Nsg33
Nssg5
g143
sg35
I22
sg18
Nsg36
Nsg37
g1752
sg39
Nsba(i__main__
Player
p1838
(dp1839
g25
(dp1840
g27
Nsg28
I72
sg29
Nsg30
Nsg31
Nsg32
Nsg33
Nssg5
g143
sg35
I22
sg18
Nsg36
Nsg37
g1752
sg39
Nsba(i__main__
Player
p1841
(dp1842
g25
(dp1843
g27
Nsg28
I72
sg29
Nsg30
Nsg31
Nsg32
Nsg33
Nssg5
g143
sg35
I22
sg18
Nsg36
Nsg37
g1752
sg39
Nsba(i__main__
Player
p1844
(dp1845
g25
(dp1846
g27
Nsg28
I72
sg29
Nsg30
Nsg31
Nsg32
Nsg33
Nssg5
g143
sg35
I22
sg18
Nsg36
Nsg37
g1752
sg39
Nsba(i__main__
Player
p1847
(dp1848
g25
(dp1849
g27
Nsg28
I72
sg29
Nsg30
Nsg31
Nsg32
Nsg33
Nssg5
g143
sg35
I22
sg18
Nsg36
Nsg37
g1752
sg39
Nsba(i__main__
Player
p1850
(dp1851
g25
(dp1852
g27
Nsg28
I72
sg29
Nsg30
Nsg31
Nsg32
Nsg33
Nssg5
g143
sg35
I22
sg18
Nsg36
Nsg37
g1752
sg39
Nsba(i__main__
Player
p1853
(dp1854
g25
(dp1855
g27
Nsg28
I72
sg29
Nsg30
Nsg31
Nsg32
Nsg33
Nssg5
g143
sg35
I22
sg18
Nsg36
Nsg37
g1752
sg39
Nsbasg147
I2
sg148
Nsbasba(i__main__
Group
p1856
(dp1857
g3
(lp1858
I0
aI0
aI0
aI0
asg5
S'Group E'
p1859
sg7
(lp1860
(i__main__
Team
p1861
(dp1862
g11
Nsg5
S'Brazil'
p1863
sg13
I0
sg14
I1
sg15
I2
sg16
Nsg17
I3
sg18
(lp1864
sg20
I0
sg21
(lp1865
(i__main__
Player
p1866
(dp1867
g25
(dp1868
g27
Nsg28
I92
sg29
Nsg30
Nsg31
Nsg32
Nsg33
Nssg5
S'Neymar'
p1869
sg35
I25
sg18
Nsg36
Nsg37
S'Brazil'
p1870
sg39
Nsba(i__main__
Player
p1871
(dp1872
g25
(dp1873
g27
Nsg28
I88
sg29
Nsg30
Nsg31
Nsg32
Nsg33
Nssg5
S'Thiago Silva'
p1874
sg35
I32
sg18
Nsg36
Nsg37
S'Brazil'
p1875
sg39
Nsba(i__main__
Player
p1876
(dp1877
g25
(dp1878
g27
Nsg28
I86
sg29
Nsg30
Nsg31
Nsg32
Nsg33
Nssg5
S'Coutinho'
p1879
sg35
I25
sg18
Nsg36
Nsg37
S'Brazil'
p1880
sg39
Nsba(i__main__
Player
p1881
(dp1882
g25
(dp1883
g27
Nsg28
I86
sg29
Nsg30
Nsg31
Nsg32
Nsg33
Nssg5
S'Miranda'
p1884
sg35
I32
sg18
Nsg36
Nsg37
S'Brazil'
p1885
sg39
Nsba(i__main__
Player
p1886
(dp1887
g25
(dp1888
g27
Nsg28
I85
sg29
Nsg30
Nsg31
Nsg32
Nsg33
Nssg5
S'Casemiro'
p1889
sg35
I25
sg18
Nsg36
Nsg37
S'Brazil'
p1890
sg39
Nsba(i__main__
Player
p1891
(dp1892
g25
(dp1893
g27
Nsg28
I85
sg29
Nsg30
Nsg31
Nsg32
Nsg33
Nssg5
S'Filipe Lu\xc3\xads'
p1894
sg35
I31
sg18
Nsg36
Nsg37
S'Brazil'
p1895
sg39
Nsba(i__main__
Player
p1896
(dp1897
g25
(dp1898
g27
Nsg28
I84
sg29
Nsg30
Nsg31
Nsg32
Nsg33
Nssg5
S'Willian'
p1899
sg35
I28
sg18
Nsg36
Nsg37
S'Brazil'
p1900
sg39
Nsba(i__main__
Player
p1901
(dp1902
g25
(dp1903
g27
Nsg28
I83
sg29
Nsg30
Nsg31
Nsg32
Nsg33
Nssg5
S'Ederson'
p1904
sg35
I23
sg18
Nsg36
Nsg37
S'Brazil'
p1905
sg39
Nsba(i__main__
Player
p1906
(dp1907
g25
(dp1908
g27
Nsg28
I83
sg29
Nsg30
Nsg31
Nsg32
Nsg33
Nssg5
S'Marquinhos'
p1909
sg35
I23
sg18
Nsg36
Nsg37
S'Brazil'
p1910
sg39
Nsba(i__main__
Player
p1911
(dp1912
g25
(dp1913
g27
Nsg28
I83
sg29
Nsg30
Nsg31
Nsg32
Nsg33
Nssg5
S'Roberto Firmino'
p1914
sg35
I25
sg18
Nsg36
Nsg37
S'Brazil'
p1915
sg39
Nsba(i__main__
Player
p1916
(dp1917
g25
(dp1918
g27
Nsg28
I82
sg29
Nsg30
Nsg31
Nsg32
Nsg33
Nssg5
S'Douglas Costa'
p1919
sg35
I26
sg18
Nsg36
Nsg37
S'Brazil'
p1920
sg39
Nsba(i__main__
Player
p1921
(dp1922
g25
(dp1923
g27
Nsg28
I82
sg29
Nsg30
Nsg31
Nsg32
Nsg33
Nssg5
S'Taison'
p1924
sg35
I29
sg18
Nsg36
Nsg37
S'Brazil'
p1925
sg39
Nsba(i__main__
Player
p1926
(dp1927
g25
(dp1928
g27
Nsg28
I82
sg29
Nsg30
Nsg31
Nsg32
Nsg33
Nssg5
S'Fernandinho'
p1929
sg35
I32
sg18
Nsg36
Nsg37
S'Brazil'
p1930
sg39
Nsba(i__main__
Player
p1931
(dp1932
g25
(dp1933
g27
Nsg28
I81
sg29
Nsg30
Nsg31
Nsg32
Nsg33
Nssg5
S'Gabriel Jesus'
p1934
sg35
I20
sg18
Nsg36
Nsg37
S'Brazil'
p1935
sg39
Nsba(i__main__
Player
p1936
(dp1937
g25
(dp1938
g27
Nsg28
I81
sg29
Nsg30
Nsg31
Nsg32
Nsg33
Nssg5
S'Paulinho'
p1939
sg35
I28
sg18
Nsg36
Nsg37
S'Brazil'
p1940
sg39
Nsba(i__main__
Player
p1941
(dp1942
g25
(dp1943
g27
Nsg28
I80
sg29
Nsg30
Nsg31
Nsg32
Nsg33
Nssg5
S'Alisson'
p1944
sg35
I24
sg18
Nsg36
Nsg37
S'Brazil'
p1945
sg39
Nsba(i__main__
Player
p1946
(dp1947
g25
(dp1948
g27
Nsg28
I80
sg29
Nsg30
Nsg31
Nsg32
Nsg33
Nssg5
S'Fred'
p1949
sg35
I24
sg18
Nsg36
Nsg37
S'Brazil'
p1950
sg39
Nsba(i__main__
Player
p1951
(dp1952
g25
(dp1953
g27
Nsg28
I80
sg29
Nsg30
Nsg31
Nsg32
Nsg33
Nssg5
S'Renato Augusto'
p1954
sg35
I29
sg18
Nsg36
Nsg37
S'Brazil'
p1955
sg39
Nsba(i__main__
Player
p1956
(dp1957
g25
(dp1958
g27
Nsg28
I79
sg29
Nsg30
Nsg31
Nsg32
Nsg33
Nssg5
S'Danilo'
p1959
sg35
I33
sg18
Nsg36
Nsg37
S'Brazil'
p1960
sg39
Nsba(i__main__
Player
p1961
(dp1962
g25
(dp1963
g27
Nsg28
I78
sg29
Nsg30
Nsg31
Nsg32
Nsg33
Nssg5
S'Danilo'
p1964
sg35
I25
sg18
Nsg36
Nsg37
S'Brazil'
p1965
sg39
Nsba(i__main__
Player
p1966
(dp1967
g25
(dp1968
g27
Nsg28
I78
sg29
Nsg30
Nsg31
Nsg32
Nsg33
Nssg5
S'Danilo'
p1969
sg35
I25
sg18
Nsg36
Nsg37
S'Brazil'
p1970
sg39
Nsba(i__main__
Player
p1971
(dp1972
g25
(dp1973
g27
Nsg28
I77
sg29
Nsg30
Nsg31
Nsg32
Nsg33
Nssg5
S'Juan Jesus'
p1974
sg35
I26
sg18
Nsg36
Nsg37
S'Brazil'
p1975
sg39
Nsba(i__main__
Player
p1976
(dp1977
g25
(dp1978
g27
Nsg28
I75
sg29
Nsg30
Nsg31
Nsg32
Nsg33
Nssg5
S'C\xc3\xa1ssio'
p1979
sg35
I36
sg18
Nsg36
Nsg37
S'Brazil'
p1980
sg39
Nsbasg147
I2
sg148
Nsba(i__main__
Team
p1981
(dp1982
g11
Nsg5
S'Switzerland'
p1983
sg13
I0
sg14
I1
sg15
I8
sg16
Nsg17
I3
sg18
(lp1984
sg20
I0
sg21
(lp1985
(i__main__
Player
p1986
(dp1987
g25
(dp1988
g27
Nsg28
I84
sg29
Nsg30
Nsg31
Nsg32
Nsg33
Nssg5
S'R. B\xc3\xbcrki'
p1989
sg35
I26
sg18
Nsg36
Nsg37
S'Switzerland'
p1990
sg39
Nsba(i__main__
Player
p1991
(dp1992
g25
(dp1993
g27
Nsg28
I83
sg29
Nsg30
Nsg31
Nsg32
Nsg33
Nssg5
S'Y. Sommer'
p1994
sg35
I28
sg18
Nsg36
Nsg37
S'Switzerland'
p1995
sg39
Nsba(i__main__
Player
p1996
(dp1997
g25
(dp1998
g27
Nsg28
I82
sg29
Nsg30
Nsg31
Nsg32
Nsg33
Nssg5
S'G. Xhaka'
p1999
sg35
I24
sg18
Nsg36
Nsg37
S'Switzerland'
p2000
sg39
Nsba(i__main__
Player
p2001
(dp2002
g25
(dp2003
g27
Nsg28
I82
sg29
Nsg30
Nsg31
Nsg32
Nsg33
Nssg5
S'X. Shaqiri'
p2004
sg35
I25
sg18
Nsg36
Nsg37
S'Switzerland'
p2005
sg39
Nsba(i__main__
Player
p2006
(dp2007
g25
(dp2008
g27
Nsg28
I81
sg29
Nsg30
Nsg31
Nsg32
Nsg33
Nssg5
S'R. Rodr\xc3\xadguez'
p2009
sg35
I24
sg18
Nsg36
Nsg37
S'Switzerland'
p2010
sg39
Nsba(i__main__
Player
p2011
(dp2012
g25
(dp2013
g27
Nsg28
I78
sg29
Nsg30
Nsg31
Nsg32
Nsg33
Nssg5
S'B. D\xc5\xbeemaili'
p2014
sg35
I31
sg18
Nsg36
Nsg37
S'Switzerland'
p2015
sg39
Nsba(i__main__
Player
p2016
(dp2017
g25
(dp2018
g27
Nsg28
I77
sg29
Nsg30
Nsg31
Nsg32
Nsg33
Nssg5
S'V. Behrami'
p2019
sg35
I32
sg18
Nsg36
Nsg37
S'Switzerland'
p2020
sg39
Nsba(i__main__
Player
p2021
(dp2022
g25
(dp2023
g27
Nsg28
I77
sg29
Nsg30
Nsg31
Nsg32
Nsg33
Nssg5
S'M. Lang'
p2024
sg35
I26
sg18
Nsg36
Nsg37
S'Switzerland'
p2025
sg39
Nsba(i__main__
Player
p2026
(dp2027
g25
(dp2028
g27
Nsg28
I76
sg29
Nsg30
Nsg31
Nsg32
Nsg33
Nssg5
S'B. Embolo'
p2029
sg35
I20
sg18
Nsg36
Nsg37
S'Switzerland'
p2030
sg39
Nsba(i__main__
Player
p2031
(dp2032
g25
(dp2033
g27
Nsg28
I76
sg29
Nsg30
Nsg31
Nsg32
Nsg33
Nssg5
S'Gelson Fernandes'
p2034
sg35
I30
sg18
Nsg36
Nsg37
S'Switzerland'
p2035
sg39
Nsba(i__main__
Player
p2036
(dp2037
g25
(dp2038
g27
Nsg28
I75
sg29
Nsg30
Nsg31
Nsg32
Nsg33
Nssg5
S'R. Freuler'
p2039
sg35
I25
sg18
Nsg36
Nsg37
S'Switzerland'
p2040
sg39
Nsba(i__main__
Player
p2041
(dp2042
g25
(dp2043
g27
Nsg28
I75
sg29
Nsg30
Nsg31
Nsg32
Nsg33
Nssg5
S'S. Zuber'
p2044
sg35
I25
sg18
Nsg36
Nsg37
S'Switzerland'
p2045
sg39
Nsba(i__main__
Player
p2046
(dp2047
g25
(dp2048
g27
Nsg28
I75
sg29
Nsg30
Nsg31
Nsg32
Nsg33
Nssg5
S'F. Sch\xc3\xa4r'
p2049
sg35
I25
sg18
Nsg36
Nsg37
S'Switzerland'
p2050
sg39
Nsba(i__main__
Player
p2051
(dp2052
g25
(dp2053
g27
Nsg28
I75
sg29
Nsg30
Nsg31
Nsg32
Nsg33
Nssg5
S'Y. Mvogo'
p2054
sg35
I23
sg18
Nsg36
Nsg37
S'Switzerland'
p2055
sg39
Nsba(i__main__
Player
p2056
(dp2057
g25
(dp2058
g27
Nsg28
I74
sg29
Nsg30
Nsg31
Nsg32
Nsg33
Nssg5
S'N. Elvedi'
p2059
sg35
I20
sg18
Nsg36
Nsg37
S'Switzerland'
p2060
sg39
Nsba(i__main__
Player
p2061
(dp2062
g25
(dp2063
g27
Nsg28
I74
sg29
Nsg30
Nsg31
Nsg32
Nsg33
Nssg5
S'J. Drmi\xc4\x87'
p2064
sg35
I24
sg18
Nsg36
Nsg37
S'Switzerland'
p2065
sg39
Nsba(i__main__
Player
p2066
(dp2067
g25
(dp2068
g27
Nsg28
I74
sg29
Nsg30
Nsg31
Nsg32
Nsg33
Nssg5
S'H. Seferovi\xc4\x87'
p2069
sg35
I25
sg18
Nsg36
Nsg37
S'Switzerland'
p2070
sg39
Nsba(i__main__
Player
p2071
(dp2072
g25
(dp2073
g27
Nsg28
I74
sg29
Nsg30
Nsg31
Nsg32
Nsg33
Nssg5
S'F. Moubandje'
p2074
sg35
I27
sg18
Nsg36
Nsg37
S'Switzerland'
p2075
sg39
Nsba(i__main__
Player
p2076
(dp2077
g25
(dp2078
g27
Nsg28
I73
sg29
Nsg30
Nsg31
Nsg32
Nsg33
Nssg5
S'J. Djourou'
p2079
sg35
I30
sg18
Nsg36
Nsg37
S'Switzerland'
p2080
sg39
Nsba(i__main__
Player
p2081
(dp2082
g25
(dp2083
g27
Nsg28
I72
sg29
Nsg30
Nsg31
Nsg32
Nsg33
Nssg5
S'M. Akanji'
p2084
sg35
I21
sg18
Nsg36
Nsg37
S'Switzerland'
p2085
sg39
Nsba(i__main__
Player
p2086
(dp2087
g25
(dp2088
g27
Nsg28
I72
sg29
Nsg30
Nsg31
Nsg32
Nsg33
Nssg5
S'D. Zakaria'
p2089
sg35
I20
sg18
Nsg36
Nsg37
S'Switzerland'
p2090
sg39
Nsba(i__main__
Player
p2091
(dp2092
g25
(dp2093
g27
Nsg28
I69
sg29
Nsg30
Nsg31
Nsg32
Nsg33
Nssg5
S'E. Fernandes'
p2094
sg35
I21
sg18
Nsg36
Nsg37
S'Switzerland'
p2095
sg39
Nsba(i__main__
Player
p2096
(dp2097
g25
(dp2098
g27
Nsg28
I68
sg29
Nsg30
Nsg31
Nsg32
Nsg33
Nssg5
S'F. Rodr\xc3\xadguez'
p2099
sg35
I21
sg18
Nsg36
Nsg37
S'Switzerland'
p2100
sg39
Nsbasg147
I2
sg148
Nsba(i__main__
Team
p2101
(dp2102
g11
Nsg5
S'Costa Rica'
p2103
sg13
I0
sg14
I1
sg15
Nsg16
Nsg17
I3
sg18
(lp2104
sg20
I0
sg21
(lp2105
(i__main__
Player
p2106
(dp2107
g25
(dp2108
g27
Nsg28
I85
sg29
Nsg30
Nsg31
Nsg32
Nsg33
Nssg5
S'K. Navas'
p2109
sg35
I30
sg18
Nsg36
Nsg37
S'Costa Rica'
p2110
sg39
Nsba(i__main__
Player
p2111
(dp2112
g25
(dp2113
g27
Nsg28
I77
sg29
Nsg30
Nsg31
Nsg32
Nsg33
Nssg5
S'O. Duarte'
p2114
sg35
I28
sg18
Nsg36
Nsg37
S'Costa Rica'
p2115
sg39
Nsba(i__main__
Player
p2116
(dp2117
g25
(dp2118
g27
Nsg28
I77
sg29
Nsg30
Nsg31
Nsg32
Nsg33
Nssg5
S'J. Campbell'
p2119
sg35
I25
sg18
Nsg36
Nsg37
S'Costa Rica'
p2120
sg39
Nsba(i__main__
Player
p2121
(dp2122
g25
(dp2123
g27
Nsg28
I75
sg29
Nsg30
Nsg31
Nsg32
Nsg33
Nssg5
S'G. Gonz\xc3\xa1lez'
p2124
sg35
I29
sg18
Nsg36
Nsg37
S'Costa Rica'
p2125
sg39
Nsba(i__main__
Player
p2126
(dp2127
g25
(dp2128
g27
Nsg28
I74
sg29
Nsg30
Nsg31
Nsg32
Nsg33
Nssg5
S'K. Waston'
p2129
sg35
I29
sg18
Nsg36
Nsg37
S'Costa Rica'
p2130
sg39
Nsba(i__main__
Player
p2131
(dp2132
g25
(dp2133
g27
Nsg28
I72
sg29
Nsg30
Nsg31
Nsg32
Nsg33
Nssg5
S'C. Gamboa'
p2134
sg35
I27
sg18
Nsg36
Nsg37
S'Costa Rica'
p2135
sg39
Nsba(i__main__
Player
p2136
(dp2137
g25
(dp2138
g27
Nsg28
I72
sg29
Nsg30
Nsg31
Nsg32
Nsg33
Nssg5
S'B. Oviedo'
p2139
sg35
I27
sg18
Nsg36
Nsg37
S'Costa Rica'
p2140
sg39
Nsba(i__main__
Player
p2141
(dp2142
g25
(dp2143
g27
Nsg28
I71
sg29
Nsg30
Nsg31
Nsg32
Nsg33
Nssg5
S'F. Calvo'
p2144
sg35
I24
sg18
Nsg36
Nsg37
S'Costa Rica'
p2145
sg39
Nsba(i__main__
Player
p2146
(dp2147
g25
(dp2148
g27
Nsg28
I71
sg29
Nsg30
Nsg31
Nsg32
Nsg33
Nssg5
S'C. Bola\xc3\xb1os'
p2149
sg35
I33
sg18
Nsg36
Nsg37
S'Costa Rica'
p2150
sg39
Nsba(i__main__
Player
p2151
(dp2152
g25
(dp2153
g27
Nsg28
I71
sg29
Nsg30
Nsg31
Nsg32
Nsg33
Nssg5
S'B. Acosta'
p2154
sg35
I30
sg18
Nsg36
Nsg37
S'Costa Rica'
p2155
sg39
Nsba(i__main__
Player
p2156
(dp2157
g25
(dp2158
g27
Nsg28
I68
sg29
Nsg30
Nsg31
Nsg32
Nsg33
Nssg5
S'R. Wallace'
p2159
sg35
I29
sg18
Nsg36
Nsg37
S'Costa Rica'
p2160
sg39
Nsba(i__main__
Player
p2161
(dp2162
g25
(dp2163
g27
Nsg28
I68
sg29
Nsg30
Nsg31
Nsg32
Nsg33
Nssg5
S'M. Ure\xc3\xb1a'
p2164
sg35
I27
sg18
Nsg36
Nsg37
S'Costa Rica'
p2165
sg39
Nsba(i__main__
Player
p2166
(dp2167
g25
(dp2168
g27
Nsg28
I68
sg29
Nsg30
Nsg31
Nsg32
Nsg33
Nssg5
S'Y. Tejeda'
p2169
sg35
I25
sg18
Nsg36
Nsg37
S'Costa Rica'
p2170
sg39
Nsba(i__main__
Player
p2171
(dp2172
g25
(dp2173
g27
Nsg28
I67
sg29
Nsg30
Nsg31
Nsg32
Nsg33
Nssg5
S'J. Venegas'
p2174
sg35
I28
sg18
Nsg36
Nsg37
S'Costa Rica'
p2175
sg39
Nsba(i__main__
Player
p2176
(dp2177
g25
(dp2178
g27
Nsg28
I72
sg29
Nsg30
Nsg31
Nsg32
Nsg33
Nssg5
g143
sg35
I27
sg18
Nsg36
Nsg37
g2103
sg39
Nsba(i__main__
Player
p2179
(dp2180
g25
(dp2181
g27
Nsg28
I72
sg29
Nsg30
Nsg31
Nsg32
Nsg33
Nssg5
g143
sg35
I27
sg18
Nsg36
Nsg37
g2103
sg39
Nsba(i__main__
Player
p2182
(dp2183
g25
(dp2184
g27
Nsg28
I72
sg29
Nsg30
Nsg31
Nsg32
Nsg33
Nssg5
g143
sg35
I27
sg18
Nsg36
Nsg37
g2103
sg39
Nsba(i__main__
Player
p2185
(dp2186
g25
(dp2187
g27
Nsg28
I72
sg29
Nsg30
Nsg31
Nsg32
Nsg33
Nssg5
g143
sg35
I27
sg18
Nsg36
Nsg37
g2103
sg39
Nsba(i__main__
Player
p2188
(dp2189
g25
(dp2190
g27
Nsg28
I72
sg29
Nsg30
Nsg31
Nsg32
Nsg33
Nssg5
g143
sg35
I27
sg18
Nsg36
Nsg37
g2103
sg39
Nsba(i__main__
Player
p2191
(dp2192
g25
(dp2193
g27
Nsg28
I72
sg29
Nsg30
Nsg31
Nsg32
Nsg33
Nssg5
g143
sg35
I27
sg18
Nsg36
Nsg37
g2103
sg39
Nsba(i__main__
Player
p2194
(dp2195
g25
(dp2196
g27
Nsg28
I72
sg29
Nsg30
Nsg31
Nsg32
Nsg33
Nssg5
g143
sg35
I27
sg18
Nsg36
Nsg37
g2103
sg39
Nsba(i__main__
Player
p2197
(dp2198
g25
(dp2199
g27
Nsg28
I72
sg29
Nsg30
Nsg31
Nsg32
Nsg33
Nssg5
g143
sg35
I27
sg18
Nsg36
Nsg37
g2103
sg39
Nsba(i__main__
Player
p2200
(dp2201
g25
(dp2202
g27
Nsg28
I72
sg29
Nsg30
Nsg31
Nsg32
Nsg33
Nssg5
g143
sg35
I27
sg18
Nsg36
Nsg37
g2103
sg39
Nsbasg147
I2
sg148
Nsba(i__main__
Team
p2203
(dp2204
g11
Nsg5
S'Serbia'
p2205
sg13
I0
sg14
I1
sg15
I37
sg16
Nsg17
I3
sg18
(lp2206
sg20
I0
sg21
(lp2207
(i__main__
Player
p2208
(dp2209
g25
(dp2210
g27
Nsg28
I83
sg29
Nsg30
Nsg31
Nsg32
Nsg33
Nssg5
S'N. Mati\xc4\x87'
p2211
sg35
I28
sg18
Nsg36
Nsg37
S'Serbia'
p2212
sg39
Nsba(i__main__
Player
p2213
(dp2214
g25
(dp2215
g27
Nsg28
I82
sg29
Nsg30
Nsg31
Nsg32
Nsg33
Nssg5
S'B. Ivanovi\xc4\x87'
p2216
sg35
I33
sg18
Nsg36
Nsg37
S'Serbia'
p2217
sg39
Nsba(i__main__
Player
p2218
(dp2219
g25
(dp2220
g27
Nsg28
I80
sg29
Nsg30
Nsg31
Nsg32
Nsg33
Nssg5
S'S. Milinkovi\xc4\x87-Savi\xc4\x87'
p2221
sg35
I22
sg18
Nsg36
Nsg37
S'Serbia'
p2222
sg39
Nsba(i__main__
Player
p2223
(dp2224
g25
(dp2225
g27
Nsg28
I80
sg29
Nsg30
Nsg31
Nsg32
Nsg33
Nssg5
S'D. Tadi\xc4\x87'
p2226
sg35
I28
sg18
Nsg36
Nsg37
S'Serbia'
p2227
sg39
Nsba(i__main__
Player
p2228
(dp2229
g25
(dp2230
g27
Nsg28
I79
sg29
Nsg30
Nsg31
Nsg32
Nsg33
Nssg5
S'A. Ljaji\xc4\x87'
p2231
sg35
I25
sg18
Nsg36
Nsg37
S'Serbia'
p2232
sg39
Nsba(i__main__
Player
p2233
(dp2234
g25
(dp2235
g27
Nsg28
I78
sg29
Nsg30
Nsg31
Nsg32
Nsg33
Nssg5
S'F. Kosti\xc4\x87'
p2236
sg35
I24
sg18
Nsg36
Nsg37
S'Serbia'
p2237
sg39
Nsba(i__main__
Player
p2238
(dp2239
g25
(dp2240
g27
Nsg28
I78
sg29
Nsg30
Nsg31
Nsg32
Nsg33
Nssg5
S'F. Kosti\xc4\x87'
p2241
sg35
I24
sg18
Nsg36
Nsg37
S'Serbia'
p2242
sg39
Nsba(i__main__
Player
p2243
(dp2244
g25
(dp2245
g27
Nsg28
I77
sg29
Nsg30
Nsg31
Nsg32
Nsg33
Nssg5
S'A. Rukavina'
p2246
sg35
I33
sg18
Nsg36
Nsg37
S'Serbia'
p2247
sg39
Nsba(i__main__
Player
p2248
(dp2249
g25
(dp2250
g27
Nsg28
I77
sg29
Nsg30
Nsg31
Nsg32
Nsg33
Nssg5
S'A. \xc5\xbdivkovi\xc4\x87'
p2251
sg35
I20
sg18
Nsg36
Nsg37
S'Serbia'
p2252
sg39
Nsba(i__main__
Player
p2253
(dp2254
g25
(dp2255
g27
Nsg28
I77
sg29
Nsg30
Nsg31
Nsg32
Nsg33
Nssg5
S'L. Milivojevi\xc4\x87'
p2256
sg35
I26
sg18
Nsg36
Nsg37
S'Serbia'
p2257
sg39
Nsba(i__main__
Player
p2258
(dp2259
g25
(dp2260
g27
Nsg28
I75
sg29
Nsg30
Nsg31
Nsg32
Nsg33
Nssg5
S'S. Rajkovi\xc4\x87'
p2261
sg35
I28
sg18
Nsg36
Nsg37
S'Serbia'
p2262
sg39
Nsba(i__main__
Player
p2263
(dp2264
g25
(dp2265
g27
Nsg28
I75
sg29
Nsg30
Nsg31
Nsg32
Nsg33
Nssg5
S'A. Mitrovi\xc4\x87'
p2266
sg35
I22
sg18
Nsg36
Nsg37
S'Serbia'
p2267
sg39
Nsba(i__main__
Player
p2268
(dp2269
g25
(dp2270
g27
Nsg28
I74
sg29
Nsg30
Nsg31
Nsg32
Nsg33
Nssg5
S'A. Prijovi\xc4\x87'
p2271
sg35
I27
sg18
Nsg36
Nsg37
S'Serbia'
p2272
sg39
Nsba(i__main__
Player
p2273
(dp2274
g25
(dp2275
g27
Nsg28
I74
sg29
Nsg30
Nsg31
Nsg32
Nsg33
Nssg5
S'M. Dmitrovi\xc4\x87'
p2276
sg35
I25
sg18
Nsg36
Nsg37
S'Serbia'
p2277
sg39
Nsba(i__main__
Player
p2278
(dp2279
g25
(dp2280
g27
Nsg28
I74
sg29
Nsg30
Nsg31
Nsg32
Nsg33
Nssg5
S'D. To\xc5\xa1i\xc4\x87'
p2281
sg35
I32
sg18
Nsg36
Nsg37
S'Serbia'
p2282
sg39
Nsba(i__main__
Player
p2283
(dp2284
g25
(dp2285
g27
Nsg28
I73
sg29
Nsg30
Nsg31
Nsg32
Nsg33
Nssg5
S'U. Spaji\xc4\x87'
p2286
sg35
I24
sg18
Nsg36
Nsg37
S'Serbia'
p2287
sg39
Nsba(i__main__
Player
p2288
(dp2289
g25
(dp2290
g27
Nsg28
I73
sg29
Nsg30
Nsg31
Nsg32
Nsg33
Nssg5
S'S. Mitrovi\xc4\x87'
p2291
sg35
I27
sg18
Nsg36
Nsg37
S'Serbia'
p2292
sg39
Nsba(i__main__
Player
p2293
(dp2294
g25
(dp2295
g27
Nsg28
I73
sg29
Nsg30
Nsg31
Nsg32
Nsg33
Nssg5
S'M. Veljkovi\xc4\x87'
p2296
sg35
I21
sg18
Nsg36
Nsg37
S'Serbia'
p2297
sg39
Nsba(i__main__
Player
p2298
(dp2299
g25
(dp2300
g27
Nsg28
I71
sg29
Nsg30
Nsg31
Nsg32
Nsg33
Nssg5
S'M. Gruji\xc4\x87'
p2301
sg35
I21
sg18
Nsg36
Nsg37
S'Serbia'
p2302
sg39
Nsba(i__main__
Player
p2303
(dp2304
g25
(dp2305
g27
Nsg28
I70
sg29
Nsg30
Nsg31
Nsg32
Nsg33
Nssg5
S'N. Milenkovi\xc4\x87'
p2306
sg35
I19
sg18
Nsg36
Nsg37
S'Serbia'
p2307
sg39
Nsba(i__main__
Player
p2308
(dp2309
g25
(dp2310
g27
Nsg28
I70
sg29
Nsg30
Nsg31
Nsg32
Nsg33
Nssg5
S'U. Mati\xc4\x87'
p2311
sg35
I27
sg18
Nsg36
Nsg37
S'Serbia'
p2312
sg39
Nsba(i__main__
Player
p2313
(dp2314
g25
(dp2315
g27
Nsg28
I70
sg29
Nsg30
Nsg31
Nsg32
Nsg33
Nssg5
S'L. Jovi\xc4\x87'
p2316
sg35
I19
sg18
Nsg36
Nsg37
S'Serbia'
p2317
sg39
Nsba(i__main__
Player
p2318
(dp2319
g25
(dp2320
g27
Nsg28
I69
sg29
Nsg30
Nsg31
Nsg32
Nsg33
Nssg5
S'V. Milinkovi\xc4\x87-Savi\xc4\x87'
p2321
sg35
I20
sg18
Nsg36
Nsg37
S'Serbia'
p2322
sg39
Nsbasg147
I2
sg148
Nsbasba(i__main__
Group
p2323
(dp2324
g3
(lp2325
I0
aI0
aI0
aI0
asg5
S'Group F'
p2326
sg7
(lp2327
(i__main__
Team
p2328
(dp2329
g11
Nsg5
S'Germany'
p2330
sg13
I0
sg14
I1
sg15
I1
sg16
Nsg17
I3
sg18
(lp2331
sg20
I0
sg21
(lp2332
(i__main__
Player
p2333
(dp2334
g25
(dp2335
g27
Nsg28
I90
sg29
Nsg30
Nsg31
Nsg32
Nsg33
Nssg5
S'T. Kroos'
p2336
sg35
I27
sg18
Nsg36
Nsg37
S'Germany'
p2337
sg39
Nsba(i__main__
Player
p2338
(dp2339
g25
(dp2340
g27
Nsg28
I88
sg29
Nsg30
Nsg31
Nsg32
Nsg33
Nssg5
S'J. Boateng'
p2341
sg35
I28
sg18
Nsg36
Nsg37
S'Germany'
p2342
sg39
Nsba(i__main__
Player
p2343
(dp2344
g25
(dp2345
g27
Nsg28
I88
sg29
Nsg30
Nsg31
Nsg32
Nsg33
Nssg5
S'M. Hummels'
p2346
sg35
I28
sg18
Nsg36
Nsg37
S'Germany'
p2347
sg39
Nsba(i__main__
Player
p2348
(dp2349
g25
(dp2350
g27
Nsg28
I88
sg29
Nsg30
Nsg31
Nsg32
Nsg33
Nssg5
S'M. \xc3\x96zil'
p2351
sg35
I28
sg18
Nsg36
Nsg37
S'Germany'
p2352
sg39
Nsba(i__main__
Player
p2353
(dp2354
g25
(dp2355
g27
Nsg28
I86
sg29
Nsg30
Nsg31
Nsg32
Nsg33
Nssg5
S'T. M\xc3\xbcller'
p2356
sg35
I27
sg18
Nsg36
Nsg37
S'Germany'
p2357
sg39
Nsba(i__main__
Player
p2358
(dp2359
g25
(dp2360
g27
Nsg28
I86
sg29
Nsg30
Nsg31
Nsg32
Nsg33
Nssg5
S'M. Reus'
p2361
sg35
I28
sg18
Nsg36
Nsg37
S'Germany'
p2362
sg39
Nsba(i__main__
Player
p2363
(dp2364
g25
(dp2365
g27
Nsg28
I85
sg29
Nsg30
Nsg31
Nsg32
Nsg33
Nssg5
S'M. ter Stegen'
p2366
sg35
I25
sg18
Nsg36
Nsg37
S'Germany'
p2367
sg39
Nsba(i__main__
Player
p2368
(dp2369
g25
(dp2370
g27
Nsg28
I85
sg29
Nsg30
Nsg31
Nsg32
Nsg33
Nssg5
S'I. G\xc3\xbcndo\xc4\x9fan'
p2371
sg35
I26
sg18
Nsg36
Nsg37
S'Germany'
p2372
sg39
Nsba(i__main__
Player
p2373
(dp2374
g25
(dp2375
g27
Nsg28
I84
sg29
Nsg30
Nsg31
Nsg32
Nsg33
Nssg5
S'J. Draxler'
p2376
sg35
I23
sg18
Nsg36
Nsg37
S'Germany'
p2377
sg39
Nsba(i__main__
Player
p2378
(dp2379
g25
(dp2380
g27
Nsg28
I84
sg29
Nsg30
Nsg31
Nsg32
Nsg33
Nssg5
S'S. Khedira'
p2381
sg35
I30
sg18
Nsg36
Nsg37
S'Germany'
p2382
sg39
Nsba(i__main__
Player
p2383
(dp2384
g25
(dp2385
g27
Nsg28
I83
sg29
Nsg30
Nsg31
Nsg32
Nsg33
Nssg5
S'N. S\xc3\xbcle'
p2386
sg35
I21
sg18
Nsg36
Nsg37
S'Germany'
p2387
sg39
Nsba(i__main__
Player
p2388
(dp2389
g25
(dp2390
g27
Nsg28
I82
sg29
Nsg30
Nsg31
Nsg32
Nsg33
Nssg5
S'T. Werner'
p2391
sg35
I21
sg18
Nsg36
Nsg37
S'Germany'
p2392
sg39
Nsba(i__main__
Player
p2393
(dp2394
g25
(dp2395
g27
Nsg28
I82
sg29
Nsg30
Nsg31
Nsg32
Nsg33
Nssg5
S'L. Goretzka'
p2396
sg35
I22
sg18
Nsg36
Nsg37
S'Germany'
p2397
sg39
Nsba(i__main__
Player
p2398
(dp2399
g25
(dp2400
g27
Nsg28
I82
sg29
Nsg30
Nsg31
Nsg32
Nsg33
Nssg5
S'A. R\xc3\xbcdiger'
p2401
sg35
I24
sg18
Nsg36
Nsg37
S'Germany'
p2402
sg39
Nsba(i__main__
Player
p2403
(dp2404
g25
(dp2405
g27
Nsg28
I82
sg29
Nsg30
Nsg31
Nsg32
Nsg33
Nssg5
S'K. Trapp'
p2406
sg35
I26
sg18
Nsg36
Nsg37
S'Germany'
p2407
sg39
Nsba(i__main__
Player
p2408
(dp2409
g25
(dp2410
g27
Nsg28
I82
sg29
Nsg30
Nsg31
Nsg32
Nsg33
Nssg5
S'M. G\xc3\xb3mez'
p2411
sg35
I31
sg18
Nsg36
Nsg37
S'Germany'
p2412
sg39
Nsba(i__main__
Player
p2413
(dp2414
g25
(dp2415
g27
Nsg28
I81
sg29
Nsg30
Nsg31
Nsg32
Nsg33
Nssg5
S'J. Kimmich'
p2416
sg35
I22
sg18
Nsg36
Nsg37
S'Germany'
p2417
sg39
Nsba(i__main__
Player
p2418
(dp2419
g25
(dp2420
g27
Nsg28
I81
sg29
Nsg30
Nsg31
Nsg32
Nsg33
Nssg5
S'S. Rudy'
p2421
sg35
I27
sg18
Nsg36
Nsg37
S'Germany'
p2422
sg39
Nsba(i__main__
Player
p2423
(dp2424
g25
(dp2425
g27
Nsg28
I80
sg29
Nsg30
Nsg31
Nsg32
Nsg33
Nssg5
S'J. Brandt'
p2426
sg35
I21
sg18
Nsg36
Nsg37
S'Germany'
p2427
sg39
Nsba(i__main__
Player
p2428
(dp2429
g25
(dp2430
g27
Nsg28
I80
sg29
Nsg30
Nsg31
Nsg32
Nsg33
Nssg5
S'J. Hector'
p2431
sg35
I27
sg18
Nsg36
Nsg37
S'Germany'
p2432
sg39
Nsba(i__main__
Player
p2433
(dp2434
g25
(dp2435
g27
Nsg28
I78
sg29
Nsg30
Nsg31
Nsg32
Nsg33
Nssg5
S'M. Ginter'
p2436
sg35
I23
sg18
Nsg36
Nsg37
S'Germany'
p2437
sg39
Nsba(i__main__
Player
p2438
(dp2439
g25
(dp2440
g27
Nsg28
I78
sg29
Nsg30
Nsg31
Nsg32
Nsg33
Nssg5
S'M. Ginter'
p2441
sg35
I23
sg18
Nsg36
Nsg37
S'Germany'
p2442
sg39
Nsba(i__main__
Player
p2443
(dp2444
g25
(dp2445
g27
Nsg28
I73
sg29
Nsg30
Nsg31
Nsg32
Nsg33
Nssg5
S'F. Kroos'
p2446
sg35
I26
sg18
Nsg36
Nsg37
S'Germany'
p2447
sg39
Nsbasg147
I2
sg148
Nsba(i__main__
Team
p2448
(dp2449
g11
Nsg5
S'Mexico'
p2450
sg13
I0
sg14
I1
sg15
I16
sg16
Nsg17
I3
sg18
(lp2451
sg20
I0
sg21
(lp2452
(i__main__
Player
p2453
(dp2454
g25
(dp2455
g27
Nsg28
I82
sg29
Nsg30
Nsg31
Nsg32
Nsg33
Nssg5
S'J. Hern\xc3\xa1ndez'
p2456
sg35
I29
sg18
Nsg36
Nsg37
S'Mexico'
p2457
sg39
Nsba(i__main__
Player
p2458
(dp2459
g25
(dp2460
g27
Nsg28
I82
sg29
Nsg30
Nsg31
Nsg32
Nsg33
Nssg5
S'C. Vela'
p2461
sg35
I28
sg18
Nsg36
Nsg37
S'Mexico'
p2462
sg39
Nsba(i__main__
Player
p2463
(dp2464
g25
(dp2465
g27
Nsg28
I81
sg29
Nsg30
Nsg31
Nsg32
Nsg33
Nssg5
S'J. Corona'
p2466
sg35
I24
sg18
Nsg36
Nsg37
S'Mexico'
p2467
sg39
Nsba(i__main__
Player
p2468
(dp2469
g25
(dp2470
g27
Nsg28
I80
sg29
Nsg30
Nsg31
Nsg32
Nsg33
Nssg5
S'H. Moreno'
p2471
sg35
I29
sg18
Nsg36
Nsg37
S'Mexico'
p2472
sg39
Nsba(i__main__
Player
p2473
(dp2474
g25
(dp2475
g27
Nsg28
I80
sg29
Nsg30
Nsg31
Nsg32
Nsg33
Nssg5
S'A. Guardado'
p2476
sg35
I30
sg18
Nsg36
Nsg37
S'Mexico'
p2477
sg39
Nsba(i__main__
Player
p2478
(dp2479
g25
(dp2480
g27
Nsg28
I80
sg29
Nsg30
Nsg31
Nsg32
Nsg33
Nssg5
S'J. dos Santos'
p2481
sg35
I27
sg18
Nsg36
Nsg37
S'Mexico'
p2482
sg39
Nsba(i__main__
Player
p2483
(dp2484
g25
(dp2485
g27
Nsg28
I79
sg29
Nsg30
Nsg31
Nsg32
Nsg33
Nssg5
S'M. Fabi\xc3\xa1n'
p2486
sg35
I27
sg18
Nsg36
Nsg37
S'Mexico'
p2487
sg39
Nsba(i__main__
Player
p2488
(dp2489
g25
(dp2490
g27
Nsg28
I79
sg29
Nsg30
Nsg31
Nsg32
Nsg33
Nssg5
S'G. dos Santos'
p2491
sg35
I28
sg18
Nsg36
Nsg37
S'Mexico'
p2492
sg39
Nsba(i__main__
Player
p2493
(dp2494
g25
(dp2495
g27
Nsg28
I79
sg29
Nsg30
Nsg31
Nsg32
Nsg33
Nssg5
S'H. Herrera'
p2496
sg35
I27
sg18
Nsg36
Nsg37
S'Mexico'
p2497
sg39
Nsba(i__main__
Player
p2498
(dp2499
g25
(dp2500
g27
Nsg28
I79
sg29
Nsg30
Nsg31
Nsg32
Nsg33
Nssg5
S'G. Ochoa'
p2501
sg35
I31
sg18
Nsg36
Nsg37
S'Mexico'
p2502
sg39
Nsba(i__main__
Player
p2503
(dp2504
g25
(dp2505
g27
Nsg28
I78
sg29
Nsg30
Nsg31
Nsg32
Nsg33
Nssg5
S'H. Lozano'
p2506
sg35
I21
sg18
Nsg36
Nsg37
S'Mexico'
p2507
sg39
Nsba(i__main__
Player
p2508
(dp2509
g25
(dp2510
g27
Nsg28
I78
sg29
Nsg30
Nsg31
Nsg32
Nsg33
Nssg5
S'R. Jim\xc3\xa9nez'
p2511
sg35
I26
sg18
Nsg36
Nsg37
S'Mexico'
p2512
sg39
Nsba(i__main__
Player
p2513
(dp2514
g25
(dp2515
g27
Nsg28
I78
sg29
Nsg30
Nsg31
Nsg32
Nsg33
Nssg5
S'M. Lay\xc3\xban'
p2516
sg35
I29
sg18
Nsg36
Nsg37
S'Mexico'
p2517
sg39
Nsba(i__main__
Player
p2518
(dp2519
g25
(dp2520
g27
Nsg28
I77
sg29
Nsg30
Nsg31
Nsg32
Nsg33
Nssg5
S'J. Aquino'
p2521
sg35
I27
sg18
Nsg36
Nsg37
S'Mexico'
p2522
sg39
Nsba(i__main__
Player
p2523
(dp2524
g25
(dp2525
g27
Nsg28
I77
sg29
Nsg30
Nsg31
Nsg32
Nsg33
Nssg5
S'E. Hern\xc3\xa1ndez'
p2526
sg35
I29
sg18
Nsg36
Nsg37
S'Mexico'
p2527
sg39
Nsba(i__main__
Player
p2528
(dp2529
g25
(dp2530
g27
Nsg28
I76
sg29
Nsg30
Nsg31
Nsg32
Nsg33
Nssg5
S'O. Peralta'
p2531
sg35
I33
sg18
Nsg36
Nsg37
S'Mexico'
p2532
sg39
Nsba(i__main__
Player
p2533
(dp2534
g25
(dp2535
g27
Nsg28
I76
sg29
Nsg30
Nsg31
Nsg32
Nsg33
Nssg5
S'E. Guti\xc3\xa9rrez'
p2536
sg35
I22
sg18
Nsg36
Nsg37
S'Mexico'
p2537
sg39
Nsba(i__main__
Player
p2538
(dp2539
g25
(dp2540
g27
Nsg28
I76
sg29
Nsg30
Nsg31
Nsg32
Nsg33
Nssg5
S'J. Corona'
p2541
sg35
I36
sg18
Nsg36
Nsg37
S'Mexico'
p2542
sg39
Nsba(i__main__
Player
p2543
(dp2544
g25
(dp2545
g27
Nsg28
I75
sg29
Nsg30
Nsg31
Nsg32
Nsg33
Nssg5
S'J. Hern\xc3\xa1ndez'
p2546
sg35
I28
sg18
Nsg36
Nsg37
S'Mexico'
p2547
sg39
Nsba(i__main__
Player
p2548
(dp2549
g25
(dp2550
g27
Nsg28
I75
sg29
Nsg30
Nsg31
Nsg32
Nsg33
Nssg5
S'H. Ayala'
p2551
sg35
I30
sg18
Nsg36
Nsg37
S'Mexico'
p2552
sg39
Nsba(i__main__
Player
p2553
(dp2554
g25
(dp2555
g27
Nsg28
I74
sg29
Nsg30
Nsg31
Nsg32
Nsg33
Nssg5
S'C. Salcedo'
p2556
sg35
I23
sg18
Nsg36
Nsg37
S'Mexico'
p2557
sg39
Nsba(i__main__
Player
p2558
(dp2559
g25
(dp2560
g27
Nsg28
I72
sg29
Nsg30
Nsg31
Nsg32
Nsg33
Nssg5
S'E. Hern\xc3\xa1ndez'
p2561
sg35
I30
sg18
Nsg36
Nsg37
S'Mexico'
p2562
sg39
Nsba(i__main__
Player
p2563
(dp2564
g25
(dp2565
g27
Nsg28
I72
sg29
Nsg30
Nsg31
Nsg32
Nsg33
Nssg5
S'I. Jim\xc3\xa9nez'
p2566
sg35
I27
sg18
Nsg36
Nsg37
S'Mexico'
p2567
sg39
Nsbasg147
I2
sg148
Nsba(i__main__
Team
p2568
(dp2569
g11
Nsg5
S'Sweden'
p2570
sg13
I0
sg14
I1
sg15
I18
sg16
Nsg17
I3
sg18
(lp2571
sg20
I0
sg21
(lp2572
(i__main__
Player
p2573
(dp2574
g25
(dp2575
g27
Nsg28
I83
sg29
Nsg30
Nsg31
Nsg32
Nsg33
Nssg5
S'E. Forsberg'
p2576
sg35
I25
sg18
Nsg36
Nsg37
S'Sweden'
p2577
sg39
Nsba(i__main__
Player
p2578
(dp2579
g25
(dp2580
g27
Nsg28
I80
sg29
Nsg30
Nsg31
Nsg32
Nsg33
Nssg5
S'M. Berg'
p2581
sg35
I30
sg18
Nsg36
Nsg37
S'Sweden'
p2582
sg39
Nsba(i__main__
Player
p2583
(dp2584
g25
(dp2585
g27
Nsg28
I79
sg29
Nsg30
Nsg31
Nsg32
Nsg33
Nssg5
S'V. Lindel\xc3\xb6f'
p2586
sg35
I22
sg18
Nsg36
Nsg37
S'Sweden'
p2587
sg39
Nsba(i__main__
Player
p2588
(dp2589
g25
(dp2590
g27
Nsg28
I78
sg29
Nsg30
Nsg31
Nsg32
Nsg33
Nssg5
S'J. Guidetti'
p2591
sg35
I25
sg18
Nsg36
Nsg37
S'Sweden'
p2592
sg39
Nsba(i__main__
Player
p2593
(dp2594
g25
(dp2595
g27
Nsg28
I78
sg29
Nsg30
Nsg31
Nsg32
Nsg33
Nssg5
S'J. Guidetti'
p2596
sg35
I25
sg18
Nsg36
Nsg37
S'Sweden'
p2597
sg39
Nsba(i__main__
Player
p2598
(dp2599
g25
(dp2600
g27
Nsg28
I77
sg29
Nsg30
Nsg31
Nsg32
Nsg33
Nssg5
S'P. Jansson'
p2601
sg35
I26
sg18
Nsg36
Nsg37
S'Sweden'
p2602
sg39
Nsba(i__main__
Player
p2603
(dp2604
g25
(dp2605
g27
Nsg28
I76
sg29
Nsg30
Nsg31
Nsg32
Nsg33
Nssg5
S'J. Olsson'
p2606
sg35
I34
sg18
Nsg36
Nsg37
S'Sweden'
p2607
sg39
Nsba(i__main__
Player
p2608
(dp2609
g25
(dp2610
g27
Nsg28
I76
sg29
Nsg30
Nsg31
Nsg32
Nsg33
Nssg5
S'A. Ekdal'
p2611
sg35
I27
sg18
Nsg36
Nsg37
S'Sweden'
p2612
sg39
Nsba(i__main__
Player
p2613
(dp2614
g25
(dp2615
g27
Nsg28
I76
sg29
Nsg30
Nsg31
Nsg32
Nsg33
Nssg5
S'S. Larsson'
p2616
sg35
I24
sg18
Nsg36
Nsg37
S'Sweden'
p2617
sg39
Nsba(i__main__
Player
p2618
(dp2619
g25
(dp2620
g27
Nsg28
I75
sg29
Nsg30
Nsg31
Nsg32
Nsg33
Nssg5
S'J. Durmaz'
p2621
sg35
I28
sg18
Nsg36
Nsg37
S'Sweden'
p2622
sg39
Nsba(i__main__
Player
p2623
(dp2624
g25
(dp2625
g27
Nsg28
I75
sg29
Nsg30
Nsg31
Nsg32
Nsg33
Nssg5
S'M. Olsson'
p2626
sg35
I29
sg18
Nsg36
Nsg37
S'Sweden'
p2627
sg39
Nsba(i__main__
Player
p2628
(dp2629
g25
(dp2630
g27
Nsg28
I75
sg29
Nsg30
Nsg31
Nsg32
Nsg33
Nssg5
S'O. Toivonen'
p2631
sg35
I30
sg18
Nsg36
Nsg37
S'Sweden'
p2632
sg39
Nsba(i__main__
Player
p2633
(dp2634
g25
(dp2635
g27
Nsg28
I75
sg29
Nsg30
Nsg31
Nsg32
Nsg33
Nssg5
S'K. Johnsson'
p2636
sg35
I27
sg18
Nsg36
Nsg37
S'Sweden'
p2637
sg39
Nsba(i__main__
Player
p2638
(dp2639
g25
(dp2640
g27
Nsg28
I74
sg29
Nsg30
Nsg31
Nsg32
Nsg33
Nssg5
S'G. Svensson'
p2641
sg35
I30
sg18
Nsg36
Nsg37
S'Sweden'
p2642
sg39
Nsba(i__main__
Player
p2643
(dp2644
g25
(dp2645
g27
Nsg28
I74
sg29
Nsg30
Nsg31
Nsg32
Nsg33
Nssg5
S'S. Larsson'
p2646
sg35
I32
sg18
Nsg36
Nsg37
S'Sweden'
p2647
sg39
Nsba(i__main__
Player
p2648
(dp2649
g25
(dp2650
g27
Nsg28
I74
sg29
Nsg30
Nsg31
Nsg32
Nsg33
Nssg5
S'J. Johansson'
p2651
sg35
I27
sg18
Nsg36
Nsg37
S'Sweden'
p2652
sg39
Nsba(i__main__
Player
p2653
(dp2654
g25
(dp2655
g27
Nsg28
I74
sg29
Nsg30
Nsg31
Nsg32
Nsg33
Nssg5
S'R. Olsen'
p2656
sg35
I27
sg18
Nsg36
Nsg37
S'Sweden'
p2657
sg39
Nsba(i__main__
Player
p2658
(dp2659
g25
(dp2660
g27
Nsg28
I73
sg29
Nsg30
Nsg31
Nsg32
Nsg33
Nssg5
S'A. Johansson'
p2661
sg35
I35
sg18
Nsg36
Nsg37
S'Sweden'
p2662
sg39
Nsba(i__main__
Player
p2663
(dp2664
g25
(dp2665
g27
Nsg28
I73
sg29
Nsg30
Nsg31
Nsg32
Nsg33
Nssg5
S'E. Krafth'
p2666
sg35
I22
sg18
Nsg36
Nsg37
S'Sweden'
p2667
sg39
Nsba(i__main__
Player
p2668
(dp2669
g25
(dp2670
g27
Nsg28
I73
sg29
Nsg30
Nsg31
Nsg32
Nsg33
Nssg5
S'M. Lustig'
p2671
sg35
I30
sg18
Nsg36
Nsg37
S'Sweden'
p2672
sg39
Nsba(i__main__
Player
p2673
(dp2674
g25
(dp2675
g27
Nsg28
I73
sg29
Nsg30
Nsg31
Nsg32
Nsg33
Nssg5
S'K. Nordfeldt'
p2676
sg35
I28
sg18
Nsg36
Nsg37
S'Sweden'
p2677
sg39
Nsba(i__main__
Player
p2678
(dp2679
g25
(dp2680
g27
Nsg28
I73
sg29
Nsg30
Nsg31
Nsg32
Nsg33
Nssg5
S'N. Johansson'
p2681
sg35
I37
sg18
Nsg36
Nsg37
S'Sweden'
p2682
sg39
Nsba(i__main__
Player
p2683
(dp2684
g25
(dp2685
g27
Nsg28
I73
sg29
Nsg30
Nsg31
Nsg32
Nsg33
Nssg5
S'O. Hiljemark'
p2686
sg35
I25
sg18
Nsg36
Nsg37
S'Sweden'
p2687
sg39
Nsbasg147
I2
sg148
Nsba(i__main__
Team
p2688
(dp2689
g11
Nsg5
S'South Korea'
p2690
sg13
I0
sg14
I1
sg15
Nsg16
Nsg17
I3
sg18
(lp2691
sg20
I0
sg21
(lp2692
(i__main__
Player
p2693
(dp2694
g25
(dp2695
g27
Nsg28
I65
sg29
Nsg30
Nsg31
Nsg32
Nsg33
Nssg5
S'Dummy boy'
p2696
sg35
I25
sg18
Nsg36
Nsg37
g2690
sg39
Nsba(i__main__
Player
p2697
(dp2698
g25
(dp2699
g27
Nsg28
I65
sg29
Nsg30
Nsg31
Nsg32
Nsg33
Nssg5
g143
sg35
I25
sg18
Nsg36
Nsg37
g2690
sg39
Nsba(i__main__
Player
p2700
(dp2701
g25
(dp2702
g27
Nsg28
I65
sg29
Nsg30
Nsg31
Nsg32
Nsg33
Nssg5
g143
sg35
I25
sg18
Nsg36
Nsg37
g2690
sg39
Nsba(i__main__
Player
p2703
(dp2704
g25
(dp2705
g27
Nsg28
I65
sg29
Nsg30
Nsg31
Nsg32
Nsg33
Nssg5
g143
sg35
I25
sg18
Nsg36
Nsg37
g2690
sg39
Nsba(i__main__
Player
p2706
(dp2707
g25
(dp2708
g27
Nsg28
I65
sg29
Nsg30
Nsg31
Nsg32
Nsg33
Nssg5
g143
sg35
I25
sg18
Nsg36
Nsg37
g2690
sg39
Nsba(i__main__
Player
p2709
(dp2710
g25
(dp2711
g27
Nsg28
I65
sg29
Nsg30
Nsg31
Nsg32
Nsg33
Nssg5
g143
sg35
I25
sg18
Nsg36
Nsg37
g2690
sg39
Nsba(i__main__
Player
p2712
(dp2713
g25
(dp2714
g27
Nsg28
I65
sg29
Nsg30
Nsg31
Nsg32
Nsg33
Nssg5
g143
sg35
I25
sg18
Nsg36
Nsg37
g2690
sg39
Nsba(i__main__
Player
p2715
(dp2716
g25
(dp2717
g27
Nsg28
I65
sg29
Nsg30
Nsg31
Nsg32
Nsg33
Nssg5
g143
sg35
I25
sg18
Nsg36
Nsg37
g2690
sg39
Nsba(i__main__
Player
p2718
(dp2719
g25
(dp2720
g27
Nsg28
I65
sg29
Nsg30
Nsg31
Nsg32
Nsg33
Nssg5
g143
sg35
I25
sg18
Nsg36
Nsg37
g2690
sg39
Nsba(i__main__
Player
p2721
(dp2722
g25
(dp2723
g27
Nsg28
I65
sg29
Nsg30
Nsg31
Nsg32
Nsg33
Nssg5
g143
sg35
I25
sg18
Nsg36
Nsg37
g2690
sg39
Nsba(i__main__
Player
p2724
(dp2725
g25
(dp2726
g27
Nsg28
I65
sg29
Nsg30
Nsg31
Nsg32
Nsg33
Nssg5
g143
sg35
I25
sg18
Nsg36
Nsg37
g2690
sg39
Nsba(i__main__
Player
p2727
(dp2728
g25
(dp2729
g27
Nsg28
I65
sg29
Nsg30
Nsg31
Nsg32
Nsg33
Nssg5
g143
sg35
I25
sg18
Nsg36
Nsg37
g2690
sg39
Nsba(i__main__
Player
p2730
(dp2731
g25
(dp2732
g27
Nsg28
I65
sg29
Nsg30
Nsg31
Nsg32
Nsg33
Nssg5
g143
sg35
I25
sg18
Nsg36
Nsg37
g2690
sg39
Nsba(i__main__
Player
p2733
(dp2734
g25
(dp2735
g27
Nsg28
I65
sg29
Nsg30
Nsg31
Nsg32
Nsg33
Nssg5
g143
sg35
I25
sg18
Nsg36
Nsg37
g2690
sg39
Nsba(i__main__
Player
p2736
(dp2737
g25
(dp2738
g27
Nsg28
I65
sg29
Nsg30
Nsg31
Nsg32
Nsg33
Nssg5
g143
sg35
I25
sg18
Nsg36
Nsg37
g2690
sg39
Nsba(i__main__
Player
p2739
(dp2740
g25
(dp2741
g27
Nsg28
I65
sg29
Nsg30
Nsg31
Nsg32
Nsg33
Nssg5
g143
sg35
I25
sg18
Nsg36
Nsg37
g2690
sg39
Nsba(i__main__
Player
p2742
(dp2743
g25
(dp2744
g27
Nsg28
I65
sg29
Nsg30
Nsg31
Nsg32
Nsg33
Nssg5
g143
sg35
I25
sg18
Nsg36
Nsg37
g2690
sg39
Nsba(i__main__
Player
p2745
(dp2746
g25
(dp2747
g27
Nsg28
I65
sg29
Nsg30
Nsg31
Nsg32
Nsg33
Nssg5
g143
sg35
I25
sg18
Nsg36
Nsg37
g2690
sg39
Nsba(i__main__
Player
p2748
(dp2749
g25
(dp2750
g27
Nsg28
I65
sg29
Nsg30
Nsg31
Nsg32
Nsg33
Nssg5
g143
sg35
I25
sg18
Nsg36
Nsg37
g2690
sg39
Nsba(i__main__
Player
p2751
(dp2752
g25
(dp2753
g27
Nsg28
I65
sg29
Nsg30
Nsg31
Nsg32
Nsg33
Nssg5
g143
sg35
I25
sg18
Nsg36
Nsg37
g2690
sg39
Nsba(i__main__
Player
p2754
(dp2755
g25
(dp2756
g27
Nsg28
I65
sg29
Nsg30
Nsg31
Nsg32
Nsg33
Nssg5
g143
sg35
I25
sg18
Nsg36
Nsg37
g2690
sg39
Nsba(i__main__
Player
p2757
(dp2758
g25
(dp2759
g27
Nsg28
I65
sg29
Nsg30
Nsg31
Nsg32
Nsg33
Nssg5
g143
sg35
I25
sg18
Nsg36
Nsg37
g2690
sg39
Nsba(i__main__
Player
p2760
(dp2761
g25
(dp2762
g27
Nsg28
I65
sg29
Nsg30
Nsg31
Nsg32
Nsg33
Nssg5
g143
sg35
I25
sg18
Nsg36
Nsg37
g2690
sg39
Nsbasg147
I2
sg148
Nsbasba(i__main__
Group
p2763
(dp2764
g3
(lp2765
I0
aI0
aI0
aI0
asg5
S'Group G'
p2766
sg7
(lp2767
(i__main__
Team
p2768
(dp2769
g11
Nsg5
S'Belgium'
p2770
sg13
I0
sg14
I1
sg15
I5
sg16
Nsg17
I3
sg18
(lp2771
sg20
I0
sg21
(lp2772
(i__main__
Player
p2773
(dp2774
g25
(dp2775
g27
Nsg28
I90
sg29
Nsg30
Nsg31
Nsg32
Nsg33
Nssg5
S'E. Hazard'
p2776
sg35
I26
sg18
Nsg36
Nsg37
S'Belgium'
p2777
sg39
Nsba(i__main__
Player
p2778
(dp2779
g25
(dp2780
g27
Nsg28
I89
sg29
Nsg30
Nsg31
Nsg32
Nsg33
Nssg5
S'K. De Bruyne'
p2781
sg35
I26
sg18
Nsg36
Nsg37
S'Belgium'
p2782
sg39
Nsba(i__main__
Player
p2783
(dp2784
g25
(dp2785
g27
Nsg28
I89
sg29
Nsg30
Nsg31
Nsg32
Nsg33
Nssg5
S'T. Courtois'
p2786
sg35
I25
sg18
Nsg36
Nsg37
S'Belgium'
p2787
sg39
Nsba(i__main__
Player
p2788
(dp2789
g25
(dp2790
g27
Nsg28
I86
sg29
Nsg30
Nsg31
Nsg32
Nsg33
Nssg5
S'R. Lukaku'
p2791
sg35
I24
sg18
Nsg36
Nsg37
S'Belgium'
p2792
sg39
Nsba(i__main__
Player
p2793
(dp2794
g25
(dp2795
g27
Nsg28
I86
sg29
Nsg30
Nsg31
Nsg32
Nsg33
Nssg5
S'T. Alderweireld'
p2796
sg35
I28
sg18
Nsg36
Nsg37
S'Belgium'
p2797
sg39
Nsba(i__main__
Player
p2798
(dp2799
g25
(dp2800
g27
Nsg28
I86
sg29
Nsg30
Nsg31
Nsg32
Nsg33
Nssg5
S'D. Mertens'
p2801
sg35
I30
sg18
Nsg36
Nsg37
S'Belgium'
p2802
sg39
Nsba(i__main__
Player
p2803
(dp2804
g25
(dp2805
g27
Nsg28
I85
sg29
Nsg30
Nsg31
Nsg32
Nsg33
Nssg5
S'Y. Carrasco'
p2806
sg35
I23
sg18
Nsg36
Nsg37
S'Belgium'
p2807
sg39
Nsba(i__main__
Player
p2808
(dp2809
g25
(dp2810
g27
Nsg28
I85
sg29
Nsg30
Nsg31
Nsg32
Nsg33
Nssg5
S'J. Vertonghen'
p2811
sg35
I30
sg18
Nsg36
Nsg37
S'Belgium'
p2812
sg39
Nsba(i__main__
Player
p2813
(dp2814
g25
(dp2815
g27
Nsg28
I85
sg29
Nsg30
Nsg31
Nsg32
Nsg33
Nssg5
S'V. Kompany'
p2816
sg35
I31
sg18
Nsg36
Nsg37
S'Belgium'
p2817
sg39
Nsba(i__main__
Player
p2818
(dp2819
g25
(dp2820
g27
Nsg28
I83
sg29
Nsg30
Nsg31
Nsg32
Nsg33
Nssg5
S'M. Demb\xc3\xa9l\xc3\xa9'
p2821
sg35
I29
sg18
Nsg36
Nsg37
S'Belgium'
p2822
sg39
Nsba(i__main__
Player
p2823
(dp2824
g25
(dp2825
g27
Nsg28
I82
sg29
Nsg30
Nsg31
Nsg32
Nsg33
Nssg5
S'A. Witsel'
p2826
sg35
I28
sg18
Nsg36
Nsg37
S'Belgium'
p2827
sg39
Nsba(i__main__
Player
p2828
(dp2829
g25
(dp2830
g27
Nsg28
I81
sg29
Nsg30
Nsg31
Nsg32
Nsg33
Nssg5
S'T. Meunier'
p2831
sg35
I25
sg18
Nsg36
Nsg37
S'Belgium'
p2832
sg39
Nsba(i__main__
Player
p2833
(dp2834
g25
(dp2835
g27
Nsg28
I81
sg29
Nsg30
Nsg31
Nsg32
Nsg33
Nssg5
S'S. Mignolet'
p2836
sg35
I29
sg18
Nsg36
Nsg37
S'Belgium'
p2837
sg39
Nsba(i__main__
Player
p2838
(dp2839
g25
(dp2840
g27
Nsg28
I80
sg29
Nsg30
Nsg31
Nsg32
Nsg33
Nssg5
S'Y. Tielemans'
p2841
sg35
I20
sg18
Nsg36
Nsg37
S'Belgium'
p2842
sg39
Nsba(i__main__
Player
p2843
(dp2844
g25
(dp2845
g27
Nsg28
I80
sg29
Nsg30
Nsg31
Nsg32
Nsg33
Nssg5
S'M. Batshuayi'
p2846
sg35
I23
sg18
Nsg36
Nsg37
S'Belgium'
p2847
sg39
Nsba(i__main__
Player
p2848
(dp2849
g25
(dp2850
g27
Nsg28
I80
sg29
Nsg30
Nsg31
Nsg32
Nsg33
Nssg5
S'T. Hazard'
p2851
sg35
I24
sg18
Nsg36
Nsg37
S'Belgium'
p2852
sg39
Nsba(i__main__
Player
p2853
(dp2854
g25
(dp2855
g27
Nsg28
I79
sg29
Nsg30
Nsg31
Nsg32
Nsg33
Nssg5
S'L. Dendoncker'
p2856
sg35
I22
sg18
Nsg36
Nsg37
S'Belgium'
p2857
sg39
Nsba(i__main__
Player
p2858
(dp2859
g25
(dp2860
g27
Nsg28
I79
sg29
Nsg30
Nsg31
Nsg32
Nsg33
Nssg5
S'M. Fellaini'
p2861
sg35
I29
sg18
Nsg36
Nsg37
S'Belgium'
p2862
sg39
Nsba(i__main__
Player
p2863
(dp2864
g25
(dp2865
g27
Nsg28
I78
sg29
Nsg30
Nsg31
Nsg32
Nsg33
Nssg5
S'N. Chadli'
p2866
sg35
I27
sg18
Nsg36
Nsg37
S'Belgium'
p2867
sg39
Nsba(i__main__
Player
p2868
(dp2869
g25
(dp2870
g27
Nsg28
I78
sg29
Nsg30
Nsg31
Nsg32
Nsg33
Nssg5
S'T. Vermaelen'
p2871
sg35
I31
sg18
Nsg36
Nsg37
S'Belgium'
p2872
sg39
Nsba(i__main__
Player
p2873
(dp2874
g25
(dp2875
g27
Nsg28
I78
sg29
Nsg30
Nsg31
Nsg32
Nsg33
Nssg5
S'K. Casteels'
p2876
sg35
I25
sg18
Nsg36
Nsg37
S'Belgium'
p2877
sg39
Nsba(i__main__
Player
p2878
(dp2879
g25
(dp2880
g27
Nsg28
I77
sg29
Nsg30
Nsg31
Nsg32
Nsg33
Nssg5
S'J. Lukaku'
p2881
sg35
I22
sg18
Nsg36
Nsg37
S'Belgium'
p2882
sg39
Nsba(i__main__
Player
p2883
(dp2884
g25
(dp2885
g27
Nsg28
I77
sg29
Nsg30
Nsg31
Nsg32
Nsg33
Nssg5
S'A. Januzaj'
p2886
sg35
I22
sg18
Nsg36
Nsg37
S'Belgium'
p2887
sg39
Nsbasg147
I2
sg148
Nsba(i__main__
Team
p2888
(dp2889
g11
Nsg5
S'Panama'
p2890
sg13
I0
sg14
I1
sg15
I56
sg16
Nsg17
I3
sg18
(lp2891
sg20
I0
sg21
(lp2892
(i__main__
Player
p2893
(dp2894
g25
(dp2895
g27
Nsg28
I71
sg29
Nsg30
Nsg31
Nsg32
Nsg33
Nssg5
S'A. Machado'
p2896
sg35
I32
sg18
Nsg36
Nsg37
S'Panama'
p2897
sg39
Nsba(i__main__
Player
p2898
(dp2899
g25
(dp2900
g27
Nsg28
I71
sg29
Nsg30
Nsg31
Nsg32
Nsg33
Nssg5
S'A. Godoy'
p2901
sg35
I27
sg18
Nsg36
Nsg37
S'Panama'
p2902
sg39
Nsba(i__main__
Player
p2903
(dp2904
g25
(dp2905
g27
Nsg28
I70
sg29
Nsg30
Nsg31
Nsg32
Nsg33
Nssg5
S'G. G\xc3\xb3mez'
p2906
sg35
I33
sg18
Nsg36
Nsg37
S'Panama'
p2907
sg39
Nsba(i__main__
Player
p2908
(dp2909
g25
(dp2910
g27
Nsg28
I70
sg29
Nsg30
Nsg31
Nsg32
Nsg33
Nssg5
S'R. Torres'
p2911
sg35
I31
sg18
Nsg36
Nsg37
S'Panama'
p2912
sg39
Nsba(i__main__
Player
p2913
(dp2914
g25
(dp2915
g27
Nsg28
I68
sg29
Nsg30
Nsg31
Nsg32
Nsg33
Nssg5
S'G. Torres'
p2916
sg35
I28
sg18
Nsg36
Nsg37
S'Panama'
p2917
sg39
Nsba(i__main__
Player
p2918
(dp2919
g25
(dp2920
g27
Nsg28
I67
sg29
Nsg30
Nsg31
Nsg32
Nsg33
Nssg5
S'A. Cooper'
p2921
sg35
I29
sg18
Nsg36
Nsg37
S'Panama'
p2922
sg39
Nsba(i__main__
Player
p2923
(dp2924
g25
(dp2925
g27
Nsg28
I66
sg29
Nsg30
Nsg31
Nsg32
Nsg33
Nssg5
S'H. Cummings'
p2926
sg35
I25
sg18
Nsg36
Nsg37
S'Panama'
p2927
sg39
Nsba(i__main__
Player
p2928
(dp2929
g25
(dp2930
g27
Nsg28
I65
sg29
Nsg30
Nsg31
Nsg32
Nsg33
Nssg5
S'F. Escobar'
p2931
sg35
I22
sg18
Nsg36
Nsg37
S'Panama'
p2932
sg39
Nsba(i__main__
Player
p2933
(dp2934
g25
(dp2935
g27
Nsg28
I64
sg29
Nsg30
Nsg31
Nsg32
Nsg33
Nssg5
S'M. Murillo'
p2936
sg35
I21
sg18
Nsg36
Nsg37
S'Panama'
p2937
sg39
Nsba(i__main__
Player
p2938
(dp2939
g25
(dp2940
g27
Nsg28
I57
sg29
Nsg30
Nsg31
Nsg32
Nsg33
Nssg5
S'L. Ovalle'
p2941
sg35
I28
sg18
Nsg36
Nsg37
S'Panama'
p2942
sg39
Nsba(i__main__
Player
p2943
(dp2944
g25
(dp2945
g27
Nsg28
I66
sg29
Nsg30
Nsg31
Nsg32
Nsg33
Nssg5
g143
sg35
I27
sg18
Nsg36
Nsg37
g2890
sg39
Nsba(i__main__
Player
p2946
(dp2947
g25
(dp2948
g27
Nsg28
I66
sg29
Nsg30
Nsg31
Nsg32
Nsg33
Nssg5
g143
sg35
I27
sg18
Nsg36
Nsg37
g2890
sg39
Nsba(i__main__
Player
p2949
(dp2950
g25
(dp2951
g27
Nsg28
I66
sg29
Nsg30
Nsg31
Nsg32
Nsg33
Nssg5
g143
sg35
I27
sg18
Nsg36
Nsg37
g2890
sg39
Nsba(i__main__
Player
p2952
(dp2953
g25
(dp2954
g27
Nsg28
I66
sg29
Nsg30
Nsg31
Nsg32
Nsg33
Nssg5
g143
sg35
I27
sg18
Nsg36
Nsg37
g2890
sg39
Nsba(i__main__
Player
p2955
(dp2956
g25
(dp2957
g27
Nsg28
I66
sg29
Nsg30
Nsg31
Nsg32
Nsg33
Nssg5
g143
sg35
I27
sg18
Nsg36
Nsg37
g2890
sg39
Nsba(i__main__
Player
p2958
(dp2959
g25
(dp2960
g27
Nsg28
I66
sg29
Nsg30
Nsg31
Nsg32
Nsg33
Nssg5
g143
sg35
I27
sg18
Nsg36
Nsg37
g2890
sg39
Nsba(i__main__
Player
p2961
(dp2962
g25
(dp2963
g27
Nsg28
I66
sg29
Nsg30
Nsg31
Nsg32
Nsg33
Nssg5
g143
sg35
I27
sg18
Nsg36
Nsg37
g2890
sg39
Nsba(i__main__
Player
p2964
(dp2965
g25
(dp2966
g27
Nsg28
I66
sg29
Nsg30
Nsg31
Nsg32
Nsg33
Nssg5
g143
sg35
I27
sg18
Nsg36
Nsg37
g2890
sg39
Nsba(i__main__
Player
p2967
(dp2968
g25
(dp2969
g27
Nsg28
I66
sg29
Nsg30
Nsg31
Nsg32
Nsg33
Nssg5
g143
sg35
I27
sg18
Nsg36
Nsg37
g2890
sg39
Nsba(i__main__
Player
p2970
(dp2971
g25
(dp2972
g27
Nsg28
I66
sg29
Nsg30
Nsg31
Nsg32
Nsg33
Nssg5
g143
sg35
I27
sg18
Nsg36
Nsg37
g2890
sg39
Nsba(i__main__
Player
p2973
(dp2974
g25
(dp2975
g27
Nsg28
I66
sg29
Nsg30
Nsg31
Nsg32
Nsg33
Nssg5
g143
sg35
I27
sg18
Nsg36
Nsg37
g2890
sg39
Nsba(i__main__
Player
p2976
(dp2977
g25
(dp2978
g27
Nsg28
I66
sg29
Nsg30
Nsg31
Nsg32
Nsg33
Nssg5
g143
sg35
I27
sg18
Nsg36
Nsg37
g2890
sg39
Nsba(i__main__
Player
p2979
(dp2980
g25
(dp2981
g27
Nsg28
I66
sg29
Nsg30
Nsg31
Nsg32
Nsg33
Nssg5
g143
sg35
I27
sg18
Nsg36
Nsg37
g2890
sg39
Nsbasg147
I2
sg148
Nsba(i__main__
Team
p2982
(dp2983
g11
Nsg5
S'Tunisia'
p2984
sg13
I0
sg14
I1
sg15
I27
sg16
Nsg17
I3
sg18
(lp2985
sg20
I0
sg21
(lp2986
(i__main__
Player
p2987
(dp2988
g25
(dp2989
g27
Nsg28
I75
sg29
Nsg30
Nsg31
Nsg32
Nsg33
Nssg5
S'Y. Benalouane'
p2990
sg35
I30
sg18
Nsg36
Nsg37
S'Tunisia'
p2991
sg39
Nsba(i__main__
Player
p2992
(dp2993
g25
(dp2994
g27
Nsg28
I74
sg29
Nsg30
Nsg31
Nsg32
Nsg33
Nssg5
S'E. Skhiri'
p2995
sg35
I22
sg18
Nsg36
Nsg37
S'Tunisia'
p2996
sg39
Nsba(i__main__
Player
p2997
(dp2998
g25
(dp2999
g27
Nsg28
I72
sg29
Nsg30
Nsg31
Nsg32
Nsg33
Nssg5
S'S. Ben Youssef'
p3000
sg35
I28
sg18
Nsg36
Nsg37
S'Tunisia'
p3001
sg39
Nsba(i__main__
Player
p3002
(dp3003
g25
(dp3004
g27
Nsg28
I72
sg29
Nsg30
Nsg31
Nsg32
Nsg33
Nssg5
S'N. Sliti'
p3005
sg35
I24
sg18
Nsg36
Nsg37
S'Tunisia'
p3006
sg39
Nsba(i__main__
Player
p3007
(dp3008
g25
(dp3009
g27
Nsg28
I68
sg29
Nsg30
Nsg31
Nsg32
Nsg33
Nssg5
S'B. Srarfi'
p3010
sg35
I20
sg18
Nsg36
Nsg37
S'Tunisia'
p3011
sg39
Nsba(i__main__
Player
p3012
(dp3013
g25
(dp3014
g27
Nsg28
I66
sg29
Nsg30
Nsg31
Nsg32
Nsg33
Nssg5
S'O. Haddadi'
p3015
sg35
I25
sg18
Nsg36
Nsg37
S'Tunisia'
p3016
sg39
Nsba(i__main__
Player
p3017
(dp3018
g25
(dp3019
g27
Nsg28
I65
sg29
Nsg30
Nsg31
Nsg32
Nsg33
Nssg5
S'D. Bronn'
p3020
sg35
I22
sg18
Nsg36
Nsg37
S'Tunisia'
p3021
sg39
Nsba(i__main__
Player
p3022
(dp3023
g25
(dp3024
g27
Nsg28
I63
sg29
Nsg30
Nsg31
Nsg32
Nsg33
Nssg5
S'F. Ben Mustapha'
p3025
sg35
I28
sg18
Nsg36
Nsg37
S'Tunisia'
p3026
sg39
Nsba(i__main__
Player
p3027
(dp3028
g25
(dp3029
g27
Nsg28
I69
sg29
Nsg30
Nsg31
Nsg32
Nsg33
Nssg5
g143
sg35
I24
sg18
Nsg36
Nsg37
g2984
sg39
Nsba(i__main__
Player
p3030
(dp3031
g25
(dp3032
g27
Nsg28
I69
sg29
Nsg30
Nsg31
Nsg32
Nsg33
Nssg5
g143
sg35
I24
sg18
Nsg36
Nsg37
g2984
sg39
Nsba(i__main__
Player
p3033
(dp3034
g25
(dp3035
g27
Nsg28
I69
sg29
Nsg30
Nsg31
Nsg32
Nsg33
Nssg5
g143
sg35
I24
sg18
Nsg36
Nsg37
g2984
sg39
Nsba(i__main__
Player
p3036
(dp3037
g25
(dp3038
g27
Nsg28
I69
sg29
Nsg30
Nsg31
Nsg32
Nsg33
Nssg5
g143
sg35
I24
sg18
Nsg36
Nsg37
g2984
sg39
Nsba(i__main__
Player
p3039
(dp3040
g25
(dp3041
g27
Nsg28
I69
sg29
Nsg30
Nsg31
Nsg32
Nsg33
Nssg5
g143
sg35
I24
sg18
Nsg36
Nsg37
g2984
sg39
Nsba(i__main__
Player
p3042
(dp3043
g25
(dp3044
g27
Nsg28
I69
sg29
Nsg30
Nsg31
Nsg32
Nsg33
Nssg5
g143
sg35
I24
sg18
Nsg36
Nsg37
g2984
sg39
Nsba(i__main__
Player
p3045
(dp3046
g25
(dp3047
g27
Nsg28
I69
sg29
Nsg30
Nsg31
Nsg32
Nsg33
Nssg5
g143
sg35
I24
sg18
Nsg36
Nsg37
g2984
sg39
Nsba(i__main__
Player
p3048
(dp3049
g25
(dp3050
g27
Nsg28
I69
sg29
Nsg30
Nsg31
Nsg32
Nsg33
Nssg5
g143
sg35
I24
sg18
Nsg36
Nsg37
g2984
sg39
Nsba(i__main__
Player
p3051
(dp3052
g25
(dp3053
g27
Nsg28
I69
sg29
Nsg30
Nsg31
Nsg32
Nsg33
Nssg5
g143
sg35
I24
sg18
Nsg36
Nsg37
g2984
sg39
Nsba(i__main__
Player
p3054
(dp3055
g25
(dp3056
g27
Nsg28
I69
sg29
Nsg30
Nsg31
Nsg32
Nsg33
Nssg5
g143
sg35
I24
sg18
Nsg36
Nsg37
g2984
sg39
Nsba(i__main__
Player
p3057
(dp3058
g25
(dp3059
g27
Nsg28
I69
sg29
Nsg30
Nsg31
Nsg32
Nsg33
Nssg5
g143
sg35
I24
sg18
Nsg36
Nsg37
g2984
sg39
Nsba(i__main__
Player
p3060
(dp3061
g25
(dp3062
g27
Nsg28
I69
sg29
Nsg30
Nsg31
Nsg32
Nsg33
Nssg5
g143
sg35
I24
sg18
Nsg36
Nsg37
g2984
sg39
Nsba(i__main__
Player
p3063
(dp3064
g25
(dp3065
g27
Nsg28
I69
sg29
Nsg30
Nsg31
Nsg32
Nsg33
Nssg5
g143
sg35
I24
sg18
Nsg36
Nsg37
g2984
sg39
Nsba(i__main__
Player
p3066
(dp3067
g25
(dp3068
g27
Nsg28
I69
sg29
Nsg30
Nsg31
Nsg32
Nsg33
Nssg5
g143
sg35
I24
sg18
Nsg36
Nsg37
g2984
sg39
Nsba(i__main__
Player
p3069
(dp3070
g25
(dp3071
g27
Nsg28
I69
sg29
Nsg30
Nsg31
Nsg32
Nsg33
Nssg5
g143
sg35
I24
sg18
Nsg36
Nsg37
g2984
sg39
Nsbasg147
I2
sg148
Nsba(i__main__
Team
p3072
(dp3073
g11
Nsg5
S'England'
p3074
sg13
I0
sg14
I1
sg15
I15
sg16
Nsg17
I3
sg18
(lp3075
sg20
I0
sg21
(lp3076
(i__main__
Player
p3077
(dp3078
g25
(dp3079
g27
Nsg28
I84
sg29
Nsg30
Nsg31
Nsg32
Nsg33
Nssg5
S'D. Alli'
p3080
sg35
I21
sg18
Nsg36
Nsg37
S'England'
p3081
sg39
Nsba(i__main__
Player
p3082
(dp3083
g25
(dp3084
g27
Nsg28
I84
sg29
Nsg30
Nsg31
Nsg32
Nsg33
Nssg5
S'G. Cahill'
p3085
sg35
I31
sg18
Nsg36
Nsg37
S'England'
p3086
sg39
Nsba(i__main__
Player
p3087
(dp3088
g25
(dp3089
g27
Nsg28
I83
sg29
Nsg30
Nsg31
Nsg32
Nsg33
Nssg5
S'K. Walker'
p3090
sg35
I27
sg18
Nsg36
Nsg37
S'England'
p3091
sg39
Nsba(i__main__
Player
p3092
(dp3093
g25
(dp3094
g27
Nsg28
I82
sg29
Nsg30
Nsg31
Nsg32
Nsg33
Nssg5
S'R. Sterling'
p3095
sg35
I22
sg18
Nsg36
Nsg37
S'England'
p3096
sg39
Nsba(i__main__
Player
p3097
(dp3098
g25
(dp3099
g27
Nsg28
I82
sg29
Nsg30
Nsg31
Nsg32
Nsg33
Nssg5
S'E. Dier'
p3100
sg35
I23
sg18
Nsg36
Nsg37
S'England'
p3101
sg39
Nsba(i__main__
Player
p3102
(dp3103
g25
(dp3104
g27
Nsg28
I82
sg29
Nsg30
Nsg31
Nsg32
Nsg33
Nssg5
S'J. Henderson'
p3105
sg35
I27
sg18
Nsg36
Nsg37
S'England'
p3106
sg39
Nsba(i__main__
Player
p3107
(dp3108
g25
(dp3109
g27
Nsg28
I82
sg29
Nsg30
Nsg31
Nsg32
Nsg33
Nssg5
S'D. Rose'
p3110
sg35
I26
sg18
Nsg36
Nsg37
S'England'
p3111
sg39
Nsba(i__main__
Player
p3112
(dp3113
g25
(dp3114
g27
Nsg28
I81
sg29
Nsg30
Nsg31
Nsg32
Nsg33
Nssg5
S'J. Vardy'
p3115
sg35
I30
sg18
Nsg36
Nsg37
S'England'
p3116
sg39
Nsba(i__main__
Player
p3117
(dp3118
g25
(dp3119
g27
Nsg28
I81
sg29
Nsg30
Nsg31
Nsg32
Nsg33
Nssg5
S'J. Butland'
p3120
sg35
I24
sg18
Nsg36
Nsg37
S'England'
p3121
sg39
Nsba(i__main__
Player
p3122
(dp3123
g25
(dp3124
g27
Nsg28
I80
sg29
Nsg30
Nsg31
Nsg32
Nsg33
Nssg5
S'M. Rashford'
p3125
sg35
I19
sg18
Nsg36
Nsg37
S'England'
p3126
sg39
Nsba(i__main__
Player
p3127
(dp3128
g25
(dp3129
g27
Nsg28
I80
sg29
Nsg30
Nsg31
Nsg32
Nsg33
Nssg5
S'D. Welbeck'
p3130
sg35
I26
sg18
Nsg36
Nsg37
S'England'
p3131
sg39
Nsba(i__main__
Player
p3132
(dp3133
g25
(dp3134
g27
Nsg28
I79
sg29
Nsg30
Nsg31
Nsg32
Nsg33
Nssg5
S'J. Stones'
p3135
sg35
I23
sg18
Nsg36
Nsg37
S'England'
p3136
sg39
Nsba(i__main__
Player
p3137
(dp3138
g25
(dp3139
g27
Nsg28
I79
sg29
Nsg30
Nsg31
Nsg32
Nsg33
Nssg5
S'P. Jones'
p3140
sg35
I25
sg18
Nsg36
Nsg37
S'England'
p3141
sg39
Nsba(i__main__
Player
p3142
(dp3143
g25
(dp3144
g27
Nsg28
I78
sg29
Nsg30
Nsg31
Nsg32
Nsg33
Nssg5
S'J. Lingard'
p3145
sg35
I24
sg18
Nsg36
Nsg37
S'England'
p3146
sg39
Nsba(i__main__
Player
p3147
(dp3148
g25
(dp3149
g27
Nsg28
I78
sg29
Nsg30
Nsg31
Nsg32
Nsg33
Nssg5
S'J. Lingard'
p3150
sg35
I24
sg18
Nsg36
Nsg37
S'England'
p3151
sg39
Nsba(i__main__
Player
p3152
(dp3153
g25
(dp3154
g27
Nsg28
I78
sg29
Nsg30
Nsg31
Nsg32
Nsg33
Nssg5
S'K. Trippier'
p3155
sg35
I26
sg18
Nsg36
Nsg37
S'England'
p3156
sg39
Nsba(i__main__
Player
p3157
(dp3158
g25
(dp3159
g27
Nsg28
I77
sg29
Nsg30
Nsg31
Nsg32
Nsg33
Nssg5
S'F. Delph'
p3160
sg35
I27
sg18
Nsg36
Nsg37
S'England'
p3161
sg39
Nsba(i__main__
Player
p3162
(dp3163
g25
(dp3164
g27
Nsg28
I77
sg29
Nsg30
Nsg31
Nsg32
Nsg33
Nssg5
S'J. Pickford'
p3165
sg35
I23
sg18
Nsg36
Nsg37
S'England'
p3166
sg39
Nsba(i__main__
Player
p3167
(dp3168
g25
(dp3169
g27
Nsg28
I77
sg29
Nsg30
Nsg31
Nsg32
Nsg33
Nssg5
S'H. Maguire'
p3170
sg35
I24
sg18
Nsg36
Nsg37
S'England'
p3171
sg39
Nsba(i__main__
Player
p3172
(dp3173
g25
(dp3174
g27
Nsg28
I75
sg29
Nsg30
Nsg31
Nsg32
Nsg33
Nssg5
S'A. Young'
p3175
sg35
I31
sg18
Nsg36
Nsg37
S'England'
p3176
sg39
Nsba(i__main__
Player
p3177
(dp3178
g25
(dp3179
g27
Nsg28
I71
sg29
Nsg30
Nsg31
Nsg32
Nsg33
Nssg5
S'D. Jones'
p3180
sg35
I32
sg18
Nsg36
Nsg37
S'England'
p3181
sg39
Nsba(i__main__
Player
p3182
(dp3183
g25
(dp3184
g27
Nsg28
I71
sg29
Nsg30
Nsg31
Nsg32
Nsg33
Nssg5
S'B. Jones'
p3185
sg35
I30
sg18
Nsg36
Nsg37
S'England'
p3186
sg39
Nsba(i__main__
Player
p3187
(dp3188
g25
(dp3189
g27
Nsg28
I70
sg29
Nsg30
Nsg31
Nsg32
Nsg33
Nssg5
S'R. Loftus-Cheek'
p3190
sg35
I21
sg18
Nsg36
Nsg37
S'England'
p3191
sg39
Nsbasg147
I2
sg148
Nsbasba(i__main__
Group
p3192
(dp3193
g3
(lp3194
I0
aI0
aI0
aI0
asg5
S'Group H'
p3195
sg7
(lp3196
(i__main__
Team
p3197
(dp3198
g11
Nsg5
S'Poland'
p3199
sg13
I0
sg14
I1
sg15
I7
sg16
Nsg17
I3
sg18
(lp3200
sg20
I0
sg21
(lp3201
(i__main__
Player
p3202
(dp3203
g25
(dp3204
g27
Nsg28
I85
sg29
Nsg30
Nsg31
Nsg32
Nsg33
Nssg5
S'K. Glik'
p3205
sg35
I29
sg18
Nsg36
Nsg37
S'Poland'
p3206
sg39
Nsba(i__main__
Player
p3207
(dp3208
g25
(dp3209
g27
Nsg28
I83
sg29
Nsg30
Nsg31
Nsg32
Nsg33
Nssg5
S'L. Piszczek'
p3210
sg35
I32
sg18
Nsg36
Nsg37
S'Poland'
p3211
sg39
Nsba(i__main__
Player
p3212
(dp3213
g25
(dp3214
g27
Nsg28
I82
sg29
Nsg30
Nsg31
Nsg32
Nsg33
Nssg5
S'W. Szcz\xc4\x99sny'
p3215
sg35
I27
sg18
Nsg36
Nsg37
S'Poland'
p3216
sg39
Nsba(i__main__
Player
p3217
(dp3218
g25
(dp3219
g27
Nsg28
I81
sg29
Nsg30
Nsg31
Nsg32
Nsg33
Nssg5
S'G. Krychowiak'
p3220
sg35
I27
sg18
Nsg36
Nsg37
S'Poland'
p3221
sg39
Nsba(i__main__
Player
p3222
(dp3223
g25
(dp3224
g27
Nsg28
I80
sg29
Nsg30
Nsg31
Nsg32
Nsg33
Nssg5
S'P. Zieli\xc5\x84ski'
p3225
sg35
I23
sg18
Nsg36
Nsg37
S'Poland'
p3226
sg39
Nsba(i__main__
Player
p3227
(dp3228
g25
(dp3229
g27
Nsg28
I80
sg29
Nsg30
Nsg31
Nsg32
Nsg33
Nssg5
S'L. Fabia\xc5\x84ski'
p3230
sg35
I32
sg18
Nsg36
Nsg37
S'Poland'
p3231
sg39
Nsba(i__main__
Player
p3232
(dp3233
g25
(dp3234
g27
Nsg28
I79
sg29
Nsg30
Nsg31
Nsg32
Nsg33
Nssg5
S'A. Milik'
p3235
sg35
I23
sg18
Nsg36
Nsg37
S'Poland'
p3236
sg39
Nsba(i__main__
Player
p3237
(dp3238
g25
(dp3239
g27
Nsg28
I78
sg29
Nsg30
Nsg31
Nsg32
Nsg33
Nssg5
S'L. Teodorczyk'
p3240
sg35
I26
sg18
Nsg36
Nsg37
S'Poland'
p3241
sg39
Nsba(i__main__
Player
p3242
(dp3243
g25
(dp3244
g27
Nsg28
I76
sg29
Nsg30
Nsg31
Nsg32
Nsg33
Nssg5
S'K. Grosicki'
p3245
sg35
I29
sg18
Nsg36
Nsg37
S'Poland'
p3246
sg39
Nsba(i__main__
Player
p3247
(dp3248
g25
(dp3249
g27
Nsg28
I76
sg29
Nsg30
Nsg31
Nsg32
Nsg33
Nssg5
S'J. B\xc5\x82aszczykowski'
p3250
sg35
I31
sg18
Nsg36
Nsg37
S'Poland'
p3251
sg39
Nsba(i__main__
Player
p3252
(dp3253
g25
(dp3254
g27
Nsg28
I76
sg29
Nsg30
Nsg31
Nsg32
Nsg33
Nssg5
S'M. Pazdan'
p3255
sg35
I29
sg18
Nsg36
Nsg37
S'Poland'
p3256
sg39
Nsba(i__main__
Player
p3257
(dp3258
g25
(dp3259
g27
Nsg28
I75
sg29
Nsg30
Nsg31
Nsg32
Nsg33
Nssg5
S'K. Linetty'
p3260
sg35
I22
sg18
Nsg36
Nsg37
S'Poland'
p3261
sg39
Nsba(i__main__
Player
p3262
(dp3263
g25
(dp3264
g27
Nsg28
I74
sg29
Nsg30
Nsg31
Nsg32
Nsg33
Nssg5
S'B. Bia\xc5\x82kowski'
p3265
sg35
I29
sg18
Nsg36
Nsg37
S'Poland'
p3266
sg39
Nsba(i__main__
Player
p3267
(dp3268
g25
(dp3269
g27
Nsg28
I73
sg29
Nsg30
Nsg31
Nsg32
Nsg33
Nssg5
S'B. Bereszy\xc5\x84ski'
p3270
sg35
I24
sg18
Nsg36
Nsg37
S'Poland'
p3271
sg39
Nsba(i__main__
Player
p3272
(dp3273
g25
(dp3274
g27
Nsg28
I73
sg29
Nsg30
Nsg31
Nsg32
Nsg33
Nssg5
S'J. G\xc3\xb3ralski'
p3275
sg35
I24
sg18
Nsg36
Nsg37
S'Poland'
p3276
sg39
Nsba(i__main__
Player
p3277
(dp3278
g25
(dp3279
g27
Nsg28
I73
sg29
Nsg30
Nsg31
Nsg32
Nsg33
Nssg5
S'A. J\xc4\x99drzejczyk'
p3280
sg35
I29
sg18
Nsg36
Nsg37
S'Poland'
p3281
sg39
Nsba(i__main__
Player
p3282
(dp3283
g25
(dp3284
g27
Nsg28
I72
sg29
Nsg30
Nsg31
Nsg32
Nsg33
Nssg5
S'M. Rybus'
p3285
sg35
I27
sg18
Nsg36
Nsg37
S'Poland'
p3286
sg39
Nsba(i__main__
Player
p3287
(dp3288
g25
(dp3289
g27
Nsg28
I71
sg29
Nsg30
Nsg31
Nsg32
Nsg33
Nssg5
S'Thiago Cionek'
p3290
sg35
I31
sg18
Nsg36
Nsg37
S'Poland'
p3291
sg39
Nsba(i__main__
Player
p3292
(dp3293
g25
(dp3294
g27
Nsg28
I69
sg29
Nsg30
Nsg31
Nsg32
Nsg33
Nssg5
S'S. Peszko'
p3295
sg35
I32
sg18
Nsg36
Nsg37
S'Poland'
p3296
sg39
Nsba(i__main__
Player
p3297
(dp3298
g25
(dp3299
g27
Nsg28
I68
sg29
Nsg30
Nsg31
Nsg32
Nsg33
Nssg5
S'J. Bednarek'
p3300
sg35
I21
sg18
Nsg36
Nsg37
S'Poland'
p3301
sg39
Nsba(i__main__
Player
p3302
(dp3303
g25
(dp3304
g27
Nsg28
I68
sg29
Nsg30
Nsg31
Nsg32
Nsg33
Nssg5
S'D. Kownacki'
p3305
sg35
I20
sg18
Nsg36
Nsg37
S'Poland'
p3306
sg39
Nsba(i__main__
Player
p3307
(dp3308
g25
(dp3309
g27
Nsg28
I67
sg29
Nsg30
Nsg31
Nsg32
Nsg33
Nssg5
S'R. Kurzawa'
p3310
sg35
I24
sg18
Nsg36
Nsg37
S'Poland'
p3311
sg39
Nsba(i__main__
Player
p3312
(dp3313
g25
(dp3314
g27
Nsg28
I56
sg29
Nsg30
Nsg31
Nsg32
Nsg33
Nssg5
S'D. Zieli\xc5\x84ski'
p3315
sg35
I20
sg18
Nsg36
Nsg37
S'Poland'
p3316
sg39
Nsbasg147
I2
sg148
Nsba(i__main__
Team
p3317
(dp3318
g11
Nsg5
S'Senegal'
p3319
sg13
I0
sg14
I1
sg15
I23
sg16
Nsg17
I3
sg18
(lp3320
sg20
I0
sg21
(lp3321
(i__main__
Player
p3322
(dp3323
g25
(dp3324
g27
Nsg28
I84
sg29
Nsg30
Nsg31
Nsg32
Nsg33
Nssg5
S'S. Man\xc3\xa9'
p3325
sg35
I25
sg18
Nsg36
Nsg37
S'Senegal'
p3326
sg39
Nsba(i__main__
Player
p3327
(dp3328
g25
(dp3329
g27
Nsg28
I84
sg29
Nsg30
Nsg31
Nsg32
Nsg33
Nssg5
S'K. Koulibaly'
p3330
sg35
I26
sg18
Nsg36
Nsg37
S'Senegal'
p3331
sg39
Nsba(i__main__
Player
p3332
(dp3333
g25
(dp3334
g27
Nsg28
I83
sg29
Nsg30
Nsg31
Nsg32
Nsg33
Nssg5
S'I. Gueye'
p3335
sg35
I27
sg18
Nsg36
Nsg37
S'Senegal'
p3336
sg39
Nsba(i__main__
Player
p3337
(dp3338
g25
(dp3339
g27
Nsg28
I79
sg29
Nsg30
Nsg31
Nsg32
Nsg33
Nssg5
S'S. San\xc3\xa9'
p3340
sg35
I26
sg18
Nsg36
Nsg37
S'Senegal'
p3341
sg39
Nsba(i__main__
Player
p3342
(dp3343
g25
(dp3344
g27
Nsg28
I78
sg29
Nsg30
Nsg31
Nsg32
Nsg33
Nssg5
S'K. Mbodj'
p3345
sg35
I27
sg18
Nsg36
Nsg37
S'Senegal'
p3346
sg39
Nsba(i__main__
Player
p3347
(dp3348
g25
(dp3349
g27
Nsg28
I78
sg29
Nsg30
Nsg31
Nsg32
Nsg33
Nssg5
S'K. Mbodj'
p3350
sg35
I27
sg18
Nsg36
Nsg37
S'Senegal'
p3351
sg39
Nsba(i__main__
Player
p3352
(dp3353
g25
(dp3354
g27
Nsg28
I78
sg29
Nsg30
Nsg31
Nsg32
Nsg33
Nssg5
S"A. N'Diaye"
p3355
sg35
I27
sg18
Nsg36
Nsg37
S'Senegal'
p3356
sg39
Nsba(i__main__
Player
p3357
(dp3358
g25
(dp3359
g27
Nsg28
I77
sg29
Nsg30
Nsg31
Nsg32
Nsg33
Nssg5
S'Badou Ndiaye'
p3360
sg35
I26
sg18
Nsg36
Nsg37
S'Senegal'
p3361
sg39
Nsba(i__main__
Player
p3362
(dp3363
g25
(dp3364
g27
Nsg28
I77
sg29
Nsg30
Nsg31
Nsg32
Nsg33
Nssg5
S'L. San\xc3\xa9'
p3365
sg35
I30
sg18
Nsg36
Nsg37
S'Senegal'
p3366
sg39
Nsba(i__main__
Player
p3367
(dp3368
g25
(dp3369
g27
Nsg28
I77
sg29
Nsg30
Nsg31
Nsg32
Nsg33
Nssg5
S'M. Diouf'
p3370
sg35
I29
sg18
Nsg36
Nsg37
S'Senegal'
p3371
sg39
Nsba(i__main__
Player
p3372
(dp3373
g25
(dp3374
g27
Nsg28
I76
sg29
Nsg30
Nsg31
Nsg32
Nsg33
Nssg5
S"C. N'Doye"
p3375
sg35
I31
sg18
Nsg36
Nsg37
S'Senegal'
p3376
sg39
Nsba(i__main__
Player
p3377
(dp3378
g25
(dp3379
g27
Nsg28
I75
sg29
Nsg30
Nsg31
Nsg32
Nsg33
Nssg5
S'D. Sakho'
p3380
sg35
I27
sg18
Nsg36
Nsg37
S'Senegal'
p3381
sg39
Nsba(i__main__
Player
p3382
(dp3383
g25
(dp3384
g27
Nsg28
I74
sg29
Nsg30
Nsg31
Nsg32
Nsg33
Nssg5
S'M. Konat\xc3\xa9'
p3385
sg35
I24
sg18
Nsg36
Nsg37
S'Senegal'
p3386
sg39
Nsba(i__main__
Player
p3387
(dp3388
g25
(dp3389
g27
Nsg28
I73
sg29
Nsg30
Nsg31
Nsg32
Nsg33
Nssg5
S'I. Sarr'
p3390
sg35
I19
sg18
Nsg36
Nsg37
S'Senegal'
p3391
sg39
Nsba(i__main__
Player
p3392
(dp3393
g25
(dp3394
g27
Nsg28
I73
sg29
Nsg30
Nsg31
Nsg32
Nsg33
Nssg5
S'A. Gomis'
p3395
sg35
I23
sg18
Nsg36
Nsg37
S'Senegal'
p3396
sg39
Nsba(i__main__
Player
p3397
(dp3398
g25
(dp3399
g27
Nsg28
I72
sg29
Nsg30
Nsg31
Nsg32
Nsg33
Nssg5
S'M. Diallo'
p3400
sg35
I31
sg18
Nsg36
Nsg37
S'Senegal'
p3401
sg39
Nsba(i__main__
Player
p3402
(dp3403
g25
(dp3404
g27
Nsg28
I71
sg29
Nsg30
Nsg31
Nsg32
Nsg33
Nssg5
S'B. Sarr'
p3405
sg35
I26
sg18
Nsg36
Nsg37
S'Senegal'
p3406
sg39
Nsba(i__main__
Player
p3407
(dp3408
g25
(dp3409
g27
Nsg28
I71
sg29
Nsg30
Nsg31
Nsg32
Nsg33
Nssg5
S'P. San\xc3\xa9'
p3410
sg35
I25
sg18
Nsg36
Nsg37
S'Senegal'
p3411
sg39
Nsba(i__main__
Player
p3412
(dp3413
g25
(dp3414
g27
Nsg28
I71
sg29
Nsg30
Nsg31
Nsg32
Nsg33
Nssg5
S"D. N'Doye"
p3415
sg35
I32
sg18
Nsg36
Nsg37
S'Senegal'
p3416
sg39
Nsba(i__main__
Player
p3417
(dp3418
g25
(dp3419
g27
Nsg28
I71
sg29
Nsg30
Nsg31
Nsg32
Nsg33
Nssg5
S'I. Sarr'
p3420
sg35
I30
sg18
Nsg36
Nsg37
S'Senegal'
p3421
sg39
Nsba(i__main__
Player
p3422
(dp3423
g25
(dp3424
g27
Nsg28
I70
sg29
Nsg30
Nsg31
Nsg32
Nsg33
Nssg5
S'A. Diallo'
p3425
sg35
I25
sg18
Nsg36
Nsg37
S'Senegal'
p3426
sg39
Nsba(i__main__
Player
p3427
(dp3428
g25
(dp3429
g27
Nsg28
I70
sg29
Nsg30
Nsg31
Nsg32
Nsg33
Nssg5
S'V. San\xc3\xa9'
p3430
sg35
I27
sg18
Nsg36
Nsg37
S'Senegal'
p3431
sg39
Nsba(i__main__
Player
p3432
(dp3433
g25
(dp3434
g27
Nsg28
I68
sg29
Nsg30
Nsg31
Nsg32
Nsg33
Nssg5
S'A. Mbengue'
p3435
sg35
I25
sg18
Nsg36
Nsg37
S'Senegal'
p3436
sg39
Nsbasg147
I2
sg148
Nsba(i__main__
Team
p3437
(dp3438
g11
Nsg5
S'Colombia'
p3439
sg13
I0
sg14
I1
sg15
Nsg16
Nsg17
I3
sg18
(lp3440
sg20
I0
sg21
(lp3441
(i__main__
Player
p3442
(dp3443
g25
(dp3444
g27
Nsg28
I86
sg29
Nsg30
Nsg31
Nsg32
Nsg33
Nssg5
S'J. Rodr\xc3\xadguez'
p3445
sg35
I25
sg18
Nsg36
Nsg37
S'Colombia'
p3446
sg39
Nsba(i__main__
Player
p3447
(dp3448
g25
(dp3449
g27
Nsg28
I82
sg29
Nsg30
Nsg31
Nsg32
Nsg33
Nssg5
S'C. Bacca'
p3450
sg35
I30
sg18
Nsg36
Nsg37
S'Colombia'
p3451
sg39
Nsba(i__main__
Player
p3452
(dp3453
g25
(dp3454
g27
Nsg28
I82
sg29
Nsg30
Nsg31
Nsg32
Nsg33
Nssg5
S'J. Cuadrado'
p3455
sg35
I29
sg18
Nsg36
Nsg37
S'Colombia'
p3456
sg39
Nsba(i__main__
Player
p3457
(dp3458
g25
(dp3459
g27
Nsg28
I81
sg29
Nsg30
Nsg31
Nsg32
Nsg33
Nssg5
S'D. S\xc3\xa1nchez'
p3460
sg35
I21
sg18
Nsg36
Nsg37
S'Colombia'
p3461
sg39
Nsba(i__main__
Player
p3462
(dp3463
g25
(dp3464
g27
Nsg28
I80
sg29
Nsg30
Nsg31
Nsg32
Nsg33
Nssg5
S'L. Muriel'
p3465
sg35
I26
sg18
Nsg36
Nsg37
S'Colombia'
p3466
sg39
Nsba(i__main__
Player
p3467
(dp3468
g25
(dp3469
g27
Nsg28
I79
sg29
Nsg30
Nsg31
Nsg32
Nsg33
Nssg5
S'J. Murillo'
p3470
sg35
I25
sg18
Nsg36
Nsg37
S'Colombia'
p3471
sg39
Nsba(i__main__
Player
p3472
(dp3473
g25
(dp3474
g27
Nsg28
I79
sg29
Nsg30
Nsg31
Nsg32
Nsg33
Nssg5
S'D. Ospina'
p3475
sg35
I28
sg18
Nsg36
Nsg37
S'Colombia'
p3476
sg39
Nsba(i__main__
Player
p3477
(dp3478
g25
(dp3479
g27
Nsg28
I78
sg29
Nsg30
Nsg31
Nsg32
Nsg33
Nssg5
S'J. Izquierdo'
p3480
sg35
I24
sg18
Nsg36
Nsg37
S'Colombia'
p3481
sg39
Nsba(i__main__
Player
p3482
(dp3483
g25
(dp3484
g27
Nsg28
I78
sg29
Nsg30
Nsg31
Nsg32
Nsg33
Nssg5
S'D. Zapata'
p3485
sg35
I26
sg18
Nsg36
Nsg37
S'Colombia'
p3486
sg39
Nsba(i__main__
Player
p3487
(dp3488
g25
(dp3489
g27
Nsg28
I77
sg29
Nsg30
Nsg31
Nsg32
Nsg33
Nssg5
S'J. Quintero'
p3490
sg35
I24
sg18
Nsg36
Nsg37
S'Colombia'
p3491
sg39
Nsba(i__main__
Player
p3492
(dp3493
g25
(dp3494
g27
Nsg28
I77
sg29
Nsg30
Nsg31
Nsg32
Nsg33
Nssg5
S'C. S\xc3\xa1nchez'
p3495
sg35
I31
sg18
Nsg36
Nsg37
S'Colombia'
p3496
sg39
Nsba(i__main__
Player
p3497
(dp3498
g25
(dp3499
g27
Nsg28
I77
sg29
Nsg30
Nsg31
Nsg32
Nsg33
Nssg5
S'S. Arias'
p3500
sg35
I25
sg18
Nsg36
Nsg37
S'Colombia'
p3501
sg39
Nsba(i__main__
Player
p3502
(dp3503
g25
(dp3504
g27
Nsg28
I76
sg29
Nsg30
Nsg31
Nsg32
Nsg33
Nssg5
S'O. Murillo'
p3505
sg35
I29
sg18
Nsg36
Nsg37
S'Colombia'
p3506
sg39
Nsba(i__main__
Player
p3507
(dp3508
g25
(dp3509
g27
Nsg28
I75
sg29
Nsg30
Nsg31
Nsg32
Nsg33
Nssg5
S'A. Aguilar'
p3510
sg35
I32
sg18
Nsg36
Nsg37
S'Colombia'
p3511
sg39
Nsba(i__main__
Player
p3512
(dp3513
g25
(dp3514
g27
Nsg28
I75
sg29
Nsg30
Nsg31
Nsg32
Nsg33
Nssg5
S'C. Vargas'
p3515
sg35
I28
sg18
Nsg36
Nsg37
S'Colombia'
p3516
sg39
Nsba(i__main__
Player
p3517
(dp3518
g25
(dp3519
g27
Nsg28
I75
sg29
Nsg30
Nsg31
Nsg32
Nsg33
Nssg5
S'J. Lerma'
p3520
sg35
I22
sg18
Nsg36
Nsg37
S'Colombia'
p3521
sg39
Nsba(i__main__
Player
p3522
(dp3523
g25
(dp3524
g27
Nsg28
I74
sg29
Nsg30
Nsg31
Nsg32
Nsg33
Nssg5
S'J. Cuadrado'
p3525
sg35
I32
sg18
Nsg36
Nsg37
S'Colombia'
p3526
sg39
Nsba(i__main__
Player
p3527
(dp3528
g25
(dp3529
g27
Nsg28
I74
sg29
Nsg30
Nsg31
Nsg32
Nsg33
Nssg5
S'W. Barrios'
p3530
sg35
I23
sg18
Nsg36
Nsg37
S'Colombia'
p3531
sg39
Nsba(i__main__
Player
p3532
(dp3533
g25
(dp3534
g27
Nsg28
I74
sg29
Nsg30
Nsg31
Nsg32
Nsg33
Nssg5
S'F. Uribe'
p3535
sg35
I29
sg18
Nsg36
Nsg37
S'Colombia'
p3536
sg39
Nsba(i__main__
Player
p3537
(dp3538
g25
(dp3539
g27
Nsg28
I73
sg29
Nsg30
Nsg31
Nsg32
Nsg33
Nssg5
S'M. Uribe'
p3540
sg35
I26
sg18
Nsg36
Nsg37
S'Colombia'
p3541
sg39
Nsba(i__main__
Player
p3542
(dp3543
g25
(dp3544
g27
Nsg28
I73
sg29
Nsg30
Nsg31
Nsg32
Nsg33
Nssg5
S'F. D\xc3\xadaz'
p3545
sg35
I33
sg18
Nsg36
Nsg37
S'Colombia'
p3546
sg39
Nsba(i__main__
Player
p3547
(dp3548
g25
(dp3549
g27
Nsg28
I73
sg29
Nsg30
Nsg31
Nsg32
Nsg33
Nssg5
S'A. Rodr\xc3\xadguez'
p3550
sg35
I28
sg18
Nsg36
Nsg37
S'Colombia'
p3551
sg39
Nsba(i__main__
Player
p3552
(dp3553
g25
(dp3554
g27
Nsg28
I73
sg29
Nsg30
Nsg31
Nsg32
Nsg33
Nssg5
S'M. Barrios'
p3555
sg35
I26
sg18
Nsg36
Nsg37
S'Colombia'
p3556
sg39
Nsbasg147
I2
sg148
Nsba(i__main__
Team
p3557
(dp3558
g11
Nsg5
S'Japan'
p3559
sg13
I0
sg14
I1
sg15
I55
sg16
Nsg17
I3
sg18
(lp3560
sg20
I0
sg21
(lp3561
(i__main__
Player
p3562
(dp3563
g25
(dp3564
g27
Nsg28
I83
sg29
Nsg30
Nsg31
Nsg32
Nsg33
Nssg5
S'S. Kagawa'
p3565
sg35
I28
sg18
Nsg36
Nsg37
S'Japan'
p3566
sg39
Nsba(i__main__
Player
p3567
(dp3568
g25
(dp3569
g27
Nsg28
I78
sg29
Nsg30
Nsg31
Nsg32
Nsg33
Nssg5
S'T. Inui'
p3570
sg35
I29
sg18
Nsg36
Nsg37
S'Japan'
p3571
sg39
Nsba(i__main__
Player
p3572
(dp3573
g25
(dp3574
g27
Nsg28
I78
sg29
Nsg30
Nsg31
Nsg32
Nsg33
Nssg5
S'K. Honda'
p3575
sg35
I31
sg18
Nsg36
Nsg37
S'Japan'
p3576
sg39
Nsba(i__main__
Player
p3577
(dp3578
g25
(dp3579
g27
Nsg28
I77
sg29
Nsg30
Nsg31
Nsg32
Nsg33
Nssg5
S'S. Okazaki'
p3580
sg35
I31
sg18
Nsg36
Nsg37
S'Japan'
p3581
sg39
Nsba(i__main__
Player
p3582
(dp3583
g25
(dp3584
g27
Nsg28
I75
sg29
Nsg30
Nsg31
Nsg32
Nsg33
Nssg5
S'G. Haraguchi'
p3585
sg35
I26
sg18
Nsg36
Nsg37
S'Japan'
p3586
sg39
Nsba(i__main__
Player
p3587
(dp3588
g25
(dp3589
g27
Nsg28
I75
sg29
Nsg30
Nsg31
Nsg32
Nsg33
Nssg5
S'H. Sakai'
p3590
sg35
I27
sg18
Nsg36
Nsg37
S'Japan'
p3591
sg39
Nsba(i__main__
Player
p3592
(dp3593
g25
(dp3594
g27
Nsg28
I75
sg29
Nsg30
Nsg31
Nsg32
Nsg33
Nssg5
S'M. Yoshida'
p3595
sg35
I28
sg18
Nsg36
Nsg37
S'Japan'
p3596
sg39
Nsba(i__main__
Player
p3597
(dp3598
g25
(dp3599
g27
Nsg28
I75
sg29
Nsg30
Nsg31
Nsg32
Nsg33
Nssg5
S'G. Shibasaki'
p3600
sg35
I25
sg18
Nsg36
Nsg37
S'Japan'
p3601
sg39
Nsba(i__main__
Player
p3602
(dp3603
g25
(dp3604
g27
Nsg28
I74
sg29
Nsg30
Nsg31
Nsg32
Nsg33
Nssg5
S'G. Sakai'
p3605
sg35
I26
sg18
Nsg36
Nsg37
S'Japan'
p3606
sg39
Nsba(i__main__
Player
p3607
(dp3608
g25
(dp3609
g27
Nsg28
I74
sg29
Nsg30
Nsg31
Nsg32
Nsg33
Nssg5
S'T. Usami'
p3610
sg35
I25
sg18
Nsg36
Nsg37
S'Japan'
p3611
sg39
Nsba(i__main__
Player
p3612
(dp3613
g25
(dp3614
g27
Nsg28
I73
sg29
Nsg30
Nsg31
Nsg32
Nsg33
Nssg5
S'K. Nakamura'
p3615
sg35
I36
sg18
Nsg36
Nsg37
S'Japan'
p3616
sg39
Nsba(i__main__
Player
p3617
(dp3618
g25
(dp3619
g27
Nsg28
I73
sg29
Nsg30
Nsg31
Nsg32
Nsg33
Nssg5
S'Y. Nagatomo'
p3620
sg35
I30
sg18
Nsg36
Nsg37
S'Japan'
p3621
sg39
Nsba(i__main__
Player
p3622
(dp3623
g25
(dp3624
g27
Nsg28
I73
sg29
Nsg30
Nsg31
Nsg32
Nsg33
Nssg5
S'G. Shoji'
p3625
sg35
I24
sg18
Nsg36
Nsg37
S'Japan'
p3626
sg39
Nsba(i__main__
Player
p3627
(dp3628
g25
(dp3629
g27
Nsg28
I72
sg29
Nsg30
Nsg31
Nsg32
Nsg33
Nssg5
S'E. Kawashima'
p3630
sg35
I34
sg18
Nsg36
Nsg37
S'Japan'
p3631
sg39
Nsba(i__main__
Player
p3632
(dp3633
g25
(dp3634
g27
Nsg28
I72
sg29
Nsg30
Nsg31
Nsg32
Nsg33
Nssg5
S'Y. Endo'
p3635
sg35
I37
sg18
Nsg36
Nsg37
S'Japan'
p3636
sg39
Nsba(i__main__
Player
p3637
(dp3638
g25
(dp3639
g27
Nsg28
I72
sg29
Nsg30
Nsg31
Nsg32
Nsg33
Nssg5
S'M. Higashiguchi'
p3640
sg35
I31
sg18
Nsg36
Nsg37
S'Japan'
p3641
sg39
Nsba(i__main__
Player
p3642
(dp3643
g25
(dp3644
g27
Nsg28
I71
sg29
Nsg30
Nsg31
Nsg32
Nsg33
Nssg5
S'S. Nakamura'
p3645
sg35
I39
sg18
Nsg36
Nsg37
S'Japan'
p3646
sg39
Nsba(i__main__
Player
p3647
(dp3648
g25
(dp3649
g27
Nsg28
I70
sg29
Nsg30
Nsg31
Nsg32
Nsg33
Nssg5
S'H. Yamaguchi'
p3650
sg35
I26
sg18
Nsg36
Nsg37
S'Japan'
p3651
sg39
Nsba(i__main__
Player
p3652
(dp3653
g25
(dp3654
g27
Nsg28
I70
sg29
Nsg30
Nsg31
Nsg32
Nsg33
Nssg5
S'N. Ueda'
p3655
sg35
I22
sg18
Nsg36
Nsg37
S'Japan'
p3656
sg39
Nsba(i__main__
Player
p3657
(dp3658
g25
(dp3659
g27
Nsg28
I70
sg29
Nsg30
Nsg31
Nsg32
Nsg33
Nssg5
S'K. Shibasaki'
p3660
sg35
I32
sg18
Nsg36
Nsg37
S'Japan'
p3661
sg39
Nsba(i__main__
Player
p3662
(dp3663
g25
(dp3664
g27
Nsg28
I69
sg29
Nsg30
Nsg31
Nsg32
Nsg33
Nssg5
S'W. Endo'
p3665
sg35
I24
sg18
Nsg36
Nsg37
S'Japan'
p3666
sg39
Nsba(i__main__
Player
p3667
(dp3668
g25
(dp3669
g27
Nsg28
I69
sg29
Nsg30
Nsg31
Nsg32
Nsg33
Nssg5
S'T. Makino'
p3670
sg35
I30
sg18
Nsg36
Nsg37
S'Japan'
p3671
sg39
Nsba(i__main__
Player
p3672
(dp3673
g25
(dp3674
g27
Nsg28
I69
sg29
Nsg30
Nsg31
Nsg32
Nsg33
Nssg5
S'K. Nakamura'
p3675
sg35
I22
sg18
Nsg36
Nsg37
S'Japan'
p3676
sg39
Nsbasg147
I2
sg148
Nsbasba.