(lp0
(i__main__
Group
p1
(dp2
S'scores'
p3
(lp4
I0
aI0
aI0
aI0
asS'name'
p5
S'Group A'
p6
sS'teams'
p7
(lp8
(i__main__
Team
p9
(dp10
S'trainer'
p11
Nsg5
S'Russia'
p12
sS'power'
p13
F148.025
sS'regularPower'
p14
I72
sS'matchDraw'
p15
I1
sS'rank'
p16
I65
sS'economicalSituation'
p17
NsS'matchWon'
p18
I3
sS'regular'
p19
(lp20
(i__main__
Player
p21
(dp22
S'stats'
p23
(dp24
S'dribbling'
p25
NsS'overall'
p26
I67
sS'pace'
p27
NsS'defending'
p28
NsS'phisichal'
p29
NsS'passing'
p30
NsS'shooting'
p31
Nssg5
S'G. Gabulov'
p32
sS'age'
p33
I28
sg19
NsS'nAccidents'
p34
NsS'team'
p35
S'Russia'
p36
sS'position'
p37
Nsba(i__main__
Player
p38
(dp39
g23
(dp40
g25
Nsg26
I68
sg27
Nsg28
Nsg29
Nsg30
Nsg31
Nssg5
S'A. Miranchuk'
p41
sg33
I21
sg19
Nsg34
Nsg35
S'Russia'
p42
sg37
Nsba(i__main__
Player
p43
(dp44
g23
(dp45
g25
Nsg26
I72
sg27
Nsg28
Nsg29
Nsg30
Nsg31
Nssg5
S'V. Granat'
p46
sg33
I30
sg19
Nsg34
Nsg35
S'Russia'
p47
sg37
Nsba(i__main__
Player
p48
(dp49
g23
(dp50
g25
Nsg26
I73
sg27
Nsg28
Nsg29
Nsg30
Nsg31
Nssg5
S'F. Kudryashov'
p51
sg33
I30
sg19
Nsg34
Nsg35
S'Russia'
p52
sg37
Nsba(i__main__
Player
p53
(dp54
g23
(dp55
g25
Nsg26
I73
sg27
Nsg28
Nsg29
Nsg30
Nsg31
Nssg5
S'I. Kutepov'
p56
sg33
I23
sg19
Nsg34
Nsg35
S'Russia'
p57
sg37
Nsba(i__main__
Player
p58
(dp59
g23
(dp60
g25
Nsg26
I74
sg27
Nsg28
Nsg29
Nsg30
Nsg31
Nssg5
S'A. Miranchuk'
p61
sg33
I21
sg19
Nsg34
Nsg35
S'Russia'
p62
sg37
Nsba(i__main__
Player
p63
(dp64
g23
(dp65
g25
Nsg26
I74
sg27
Nsg28
Nsg29
Nsg30
Nsg31
Nssg5
S'D. Kuzyaev'
p66
sg33
I24
sg19
Nsg34
Nsg35
S'Russia'
p67
sg37
Nsba(i__main__
Player
p68
(dp69
g23
(dp70
g25
Nsg26
I74
sg27
Nsg28
Nsg29
Nsg30
Nsg31
Nssg5
S'V. Gabulov'
p71
sg33
I33
sg19
Nsg34
Nsg35
S'Russia'
p72
sg37
Nsba(i__main__
Player
p73
(dp74
g23
(dp75
g25
Nsg26
I75
sg27
Nsg28
Nsg29
Nsg30
Nsg31
Nssg5
S'Y. Gazinskiy'
p76
sg33
I27
sg19
Nsg34
Nsg35
S'Russia'
p77
sg37
Nsba(i__main__
Player
p78
(dp79
g23
(dp80
g25
Nsg26
I75
sg27
Nsg28
Nsg29
Nsg30
Nsg31
Nssg5
S'Almost a dummy boy'
p81
sg33
I27
sg19
Nsg34
Nsg35
g12
sg37
Nsba(i__main__
Player
p82
(dp83
g23
(dp84
g25
Nsg26
I75
sg27
Nsg28
Nsg29
Nsg30
Nsg31
Nssg5
g81
sg33
I27
sg19
Nsg34
Nsg35
g12
sg37
NsbasS'reservePower'
p85
I76
sS'reserve'
p86
(lp87
g38
ag43
ag48
ag53
ag58
ag63
ag68
ag73
ag78
ag82
a(i__main__
Player
p88
(dp89
g23
(dp90
g25
Nsg26
I76
sg27
Nsg28
Nsg29
Nsg30
Nsg31
Nssg5
S'A. Golovin'
p91
sg33
I21
sg19
Nsg34
Nsg35
S'Russia'
p92
sg37
Nsbag88
a(i__main__
Player
p93
(dp94
g23
(dp95
g25
Nsg26
I76
sg27
Nsg28
Nsg29
Nsg30
Nsg31
Nssg5
S'Y. Zhirkov'
p96
sg33
I33
sg19
Nsg34
Nsg35
S'Russia'
p97
sg37
Nsba(i__main__
Player
p98
(dp99
g23
(dp100
g25
Nsg26
I77
sg27
Nsg28
Nsg29
Nsg30
Nsg31
Nssg5
S'R. Zobnin'
p101
sg33
I23
sg19
Nsg34
Nsg35
S'Russia'
p102
sg37
Nsba(i__main__
Player
p103
(dp104
g23
(dp105
g25
Nsg26
I78
sg27
Nsg28
Nsg29
Nsg30
Nsg31
Nssg5
S'D. Cheryshev'
p106
sg33
I26
sg19
Nsg34
Nsg35
S'Russia'
p107
sg37
Nsba(i__main__
Player
p108
(dp109
g23
(dp110
g25
Nsg26
I78
sg27
Nsg28
Nsg29
Nsg30
Nsg31
Nssg5
S'S. Ignashevich'
p111
sg33
I37
sg19
Nsg34
Nsg35
S'Russia'
p112
sg37
Nsba(i__main__
Player
p113
(dp114
g23
(dp115
g25
Nsg26
I78
sg27
Nsg28
Nsg29
Nsg30
Nsg31
Nssg5
S'D. Cheryshev'
p116
sg33
I26
sg19
Nsg34
Nsg35
S'Russia'
p117
sg37
Nsba(i__main__
Player
p118
(dp119
g23
(dp120
g25
Nsg26
I78
sg27
Nsg28
Nsg29
Nsg30
Nsg31
Nssg5
S'A. Dzyuba'
p121
sg33
I28
sg19
Nsg34
Nsg35
S'Russia'
p122
sg37
Nsba(i__main__
Player
p123
(dp124
g23
(dp125
g25
Nsg26
I79
sg27
Nsg28
Nsg29
Nsg30
Nsg31
Nssg5
S'I. Smolnikov'
p126
sg33
I28
sg19
Nsg34
Nsg35
S'Russia'
p127
sg37
Nsba(i__main__
Player
p128
(dp129
g23
(dp130
g25
Nsg26
I79
sg27
Nsg28
Nsg29
Nsg30
Nsg31
Nssg5
S'A. Samedov'
p131
sg33
I32
sg19
Nsg34
Nsg35
S'Russia'
p132
sg37
Nsba(i__main__
Player
p133
(dp134
g23
(dp135
g25
Nsg26
I80
sg27
Nsg28
Nsg29
Nsg30
Nsg31
Nssg5
S'F. Smolov'
p136
sg33
I27
sg19
Nsg34
Nsg35
S'Russia'
p137
sg37
Nsba(i__main__
Player
p138
(dp139
g23
(dp140
g25
Nsg26
I80
sg27
Nsg28
Nsg29
Nsg30
Nsg31
Nssg5
S'A. Dzagoev'
p141
sg33
I27
sg19
Nsg34
Nsg35
S'Russia'
p142
sg37
Nsba(i__main__
Player
p143
(dp144
g23
(dp145
g25
Nsg26
I81
sg27
Nsg28
Nsg29
Nsg30
Nsg31
Nssg5
S'M\xc3\xa1rio Fernandes'
p146
sg33
I26
sg19
Nsg34
Nsg35
S'Russia'
p147
sg37
NsbasS'matchLose'
p148
I2
sS'quotation'
p149
F40.0
sba(i__main__
Team
p150
(dp151
g11
Nsg5
S'Saudi Arabia'
p152
sg13
F118.001
sg14
I57
sg15
I1
sg16
I63
sg17
Nsg18
I3
sg19
(lp153
(i__main__
Player
p154
(dp155
g23
(dp156
g25
Nsg26
I52
sg27
Nsg28
Nsg29
Nsg30
Nsg31
Nssg5
S'H. Hawsawi'
p157
sg33
I20
sg19
Nsg34
Nsg35
S'Saudi Arabia'
p158
sg37
Nsba(i__main__
Player
p159
(dp160
g23
(dp161
g25
Nsg26
I55
sg27
Nsg28
Nsg29
Nsg30
Nsg31
Nssg5
S'S. Hawsawi'
p162
sg33
I25
sg19
Nsg34
Nsg35
S'Saudi Arabia'
p163
sg37
Nsba(i__main__
Player
p164
(dp165
g23
(dp166
g25
Nsg26
I55
sg27
Nsg28
Nsg29
Nsg30
Nsg31
Nssg5
S'M. Asiri'
p167
sg33
I25
sg19
Nsg34
Nsg35
S'Saudi Arabia'
p168
sg37
Nsba(i__main__
Player
p169
(dp170
g23
(dp171
g25
Nsg26
I55
sg27
Nsg28
Nsg29
Nsg30
Nsg31
Nssg5
S'A. Al Assiri'
p172
sg33
I28
sg19
Nsg34
Nsg35
S'Saudi Arabia'
p173
sg37
Nsba(i__main__
Player
p174
(dp175
g23
(dp176
g25
Nsg26
I56
sg27
Nsg28
Nsg29
Nsg30
Nsg31
Nssg5
S'M. Asiri'
p177
sg33
I24
sg19
Nsg34
Nsg35
S'Saudi Arabia'
p178
sg37
Nsba(i__main__
Player
p179
(dp180
g23
(dp181
g25
Nsg26
I58
sg27
Nsg28
Nsg29
Nsg30
Nsg31
Nssg5
S'O. Hawsawi'
p182
sg33
I24
sg19
Nsg34
Nsg35
S'Saudi Arabia'
p183
sg37
Nsba(i__main__
Player
p184
(dp185
g23
(dp186
g25
Nsg26
I58
sg27
Nsg28
Nsg29
Nsg30
Nsg31
Nssg5
S'S. Otayf'
p187
sg33
I26
sg19
Nsg34
Nsg35
S'Saudi Arabia'
p188
sg37
Nsba(i__main__
Player
p189
(dp190
g23
(dp191
g25
Nsg26
I61
sg27
Nsg28
Nsg29
Nsg30
Nsg31
Nssg5
g81
sg33
I25
sg19
Nsg34
Nsg35
g152
sg37
Nsba(i__main__
Player
p192
(dp193
g23
(dp194
g25
Nsg26
I61
sg27
Nsg28
Nsg29
Nsg30
Nsg31
Nssg5
g81
sg33
I25
sg19
Nsg34
Nsg35
g152
sg37
Nsba(i__main__
Player
p195
(dp196
g23
(dp197
g25
Nsg26
I61
sg27
Nsg28
Nsg29
Nsg30
Nsg31
Nssg5
g81
sg33
I25
sg19
Nsg34
Nsg35
g152
sg37
Nsba(i__main__
Player
p198
(dp199
g23
(dp200
g25
Nsg26
I61
sg27
Nsg28
Nsg29
Nsg30
Nsg31
Nssg5
g81
sg33
I25
sg19
Nsg34
Nsg35
g152
sg37
Nsbasg85
I61
sg86
(lp201
g159
ag164
ag169
ag174
ag179
ag184
ag189
ag192
ag195
ag198
a(i__main__
Player
p202
(dp203
g23
(dp204
g25
Nsg26
I61
sg27
Nsg28
Nsg29
Nsg30
Nsg31
Nssg5
g81
sg33
I25
sg19
Nsg34
Nsg35
g152
sg37
Nsbag202
a(i__main__
Player
p205
(dp206
g23
(dp207
g25
Nsg26
I61
sg27
Nsg28
Nsg29
Nsg30
Nsg31
Nssg5
g81
sg33
I25
sg19
Nsg34
Nsg35
g152
sg37
Nsba(i__main__
Player
p208
(dp209
g23
(dp210
g25
Nsg26
I61
sg27
Nsg28
Nsg29
Nsg30
Nsg31
Nssg5
g81
sg33
I25
sg19
Nsg34
Nsg35
g152
sg37
Nsba(i__main__
Player
p211
(dp212
g23
(dp213
g25
Nsg26
I61
sg27
Nsg28
Nsg29
Nsg30
Nsg31
Nssg5
g81
sg33
I25
sg19
Nsg34
Nsg35
g152
sg37
Nsba(i__main__
Player
p214
(dp215
g23
(dp216
g25
Nsg26
I61
sg27
Nsg28
Nsg29
Nsg30
Nsg31
Nssg5
g81
sg33
I25
sg19
Nsg34
Nsg35
g152
sg37
Nsba(i__main__
Player
p217
(dp218
g23
(dp219
g25
Nsg26
I61
sg27
Nsg28
Nsg29
Nsg30
Nsg31
Nssg5
g81
sg33
I25
sg19
Nsg34
Nsg35
g152
sg37
Nsba(i__main__
Player
p220
(dp221
g23
(dp222
g25
Nsg26
I61
sg27
Nsg28
Nsg29
Nsg30
Nsg31
Nssg5
g81
sg33
I25
sg19
Nsg34
Nsg35
g152
sg37
Nsba(i__main__
Player
p223
(dp224
g23
(dp225
g25
Nsg26
I66
sg27
Nsg28
Nsg29
Nsg30
Nsg31
Nssg5
S'H. Bahebri'
p226
sg33
I24
sg19
Nsg34
Nsg35
S'Saudi Arabia'
p227
sg37
Nsba(i__main__
Player
p228
(dp229
g23
(dp230
g25
Nsg26
I67
sg27
Nsg28
Nsg29
Nsg30
Nsg31
Nssg5
S'M. Kanno'
p231
sg33
I22
sg19
Nsg34
Nsg35
S'Saudi Arabia'
p232
sg37
Nsba(i__main__
Player
p233
(dp234
g23
(dp235
g25
Nsg26
I71
sg27
Nsg28
Nsg29
Nsg30
Nsg31
Nssg5
S'A. Asiri'
p236
sg33
I25
sg19
Nsg34
Nsg35
S'Saudi Arabia'
p237
sg37
Nsba(i__main__
Player
p238
(dp239
g23
(dp240
g25
Nsg26
I74
sg27
Nsg28
Nsg29
Nsg30
Nsg31
Nssg5
S'M. Hawsawi'
p241
sg33
I25
sg19
Nsg34
Nsg35
S'Saudi Arabia'
p242
sg37
Nsba(i__main__
Player
p243
(dp244
g23
(dp245
g25
Nsg26
I75
sg27
Nsg28
Nsg29
Nsg30
Nsg31
Nssg5
S'O. Hawsawi'
p246
sg33
I33
sg19
Nsg34
Nsg35
S'Saudi Arabia'
p247
sg37
Nsbasg148
I2
sg149
F1000.0
sba(i__main__
Team
p248
(dp249
g11
Nsg5
S'Egypt'
p250
sg13
F139.01
sg14
I68
sg15
I1
sg16
I31
sg17
Nsg18
I3
sg19
(lp251
(i__main__
Player
p252
(dp253
g23
(dp254
g25
Nsg26
I65
sg27
Nsg28
Nsg29
Nsg30
Nsg31
Nssg5
S'M. Mohsen'
p255
sg33
I28
sg19
Nsg34
Nsg35
S'Egypt'
p256
sg37
Nsba(i__main__
Player
p257
(dp258
g23
(dp259
g25
Nsg26
I66
sg27
Nsg28
Nsg29
Nsg30
Nsg31
Nssg5
S'T. Hamed'
p260
sg33
I28
sg19
Nsg34
Nsg35
S'Egypt'
p261
sg37
Nsba(i__main__
Player
p262
(dp263
g23
(dp264
g25
Nsg26
I66
sg27
Nsg28
Nsg29
Nsg30
Nsg31
Nssg5
S'I. Salah'
p265
sg33
I30
sg19
Nsg34
Nsg35
S'Egypt'
p266
sg37
Nsba(i__main__
Player
p267
(dp268
g23
(dp269
g25
Nsg26
I67
sg27
Nsg28
Nsg29
Nsg30
Nsg31
Nssg5
S'A. Gabr'
p270
sg33
I30
sg19
Nsg34
Nsg35
S'Egypt'
p271
sg37
Nsba(i__main__
Player
p272
(dp273
g23
(dp274
g25
Nsg26
I68
sg27
Nsg28
Nsg29
Nsg30
Nsg31
Nssg5
S'S. Morsy'
p275
sg33
I25
sg19
Nsg34
Nsg35
S'Egypt'
p276
sg37
Nsba(i__main__
Player
p277
(dp278
g23
(dp279
g25
Nsg26
I69
sg27
Nsg28
Nsg29
Nsg30
Nsg31
Nssg5
S'O. Gaber'
p280
sg33
I25
sg19
Nsg34
Nsg35
S'Egypt'
p281
sg37
Nsba(i__main__
Player
p282
(dp283
g23
(dp284
g25
Nsg26
I69
sg27
Nsg28
Nsg29
Nsg30
Nsg31
Nssg5
S'S. Ekramy'
p285
sg33
I33
sg19
Nsg34
Nsg35
S'Egypt'
p286
sg37
Nsba(i__main__
Player
p287
(dp288
g23
(dp289
g25
Nsg26
I70
sg27
Nsg28
Nsg29
Nsg30
Nsg31
Nssg5
S'Shikabala'
p290
sg33
I31
sg19
Nsg34
Nsg35
S'Egypt'
p291
sg37
Nsba(i__main__
Player
p292
(dp293
g23
(dp294
g25
Nsg26
I71
sg27
Nsg28
Nsg29
Nsg30
Nsg31
Nssg5
S'A. Warda'
p295
sg33
I23
sg19
Nsg34
Nsg35
S'Egypt'
p296
sg37
Nsba(i__main__
Player
p297
(dp298
g23
(dp299
g25
Nsg26
I71
sg27
Nsg28
Nsg29
Nsg30
Nsg31
Nssg5
g81
sg33
I26
sg19
Nsg34
Nsg35
g250
sg37
Nsba(i__main__
Player
p300
(dp301
g23
(dp302
g25
Nsg26
I71
sg27
Nsg28
Nsg29
Nsg30
Nsg31
Nssg5
g81
sg33
I26
sg19
Nsg34
Nsg35
g250
sg37
Nsbasg85
I71
sg86
(lp303
g257
ag262
ag267
ag272
ag277
ag282
ag287
ag292
ag297
ag300
a(i__main__
Player
p304
(dp305
g23
(dp306
g25
Nsg26
I71
sg27
Nsg28
Nsg29
Nsg30
Nsg31
Nssg5
g81
sg33
I26
sg19
Nsg34
Nsg35
g250
sg37
Nsbag304
a(i__main__
Player
p307
(dp308
g23
(dp309
g25
Nsg26
I71
sg27
Nsg28
Nsg29
Nsg30
Nsg31
Nssg5
g81
sg33
I26
sg19
Nsg34
Nsg35
g250
sg37
Nsba(i__main__
Player
p310
(dp311
g23
(dp312
g25
Nsg26
I71
sg27
Nsg28
Nsg29
Nsg30
Nsg31
Nssg5
g81
sg33
I26
sg19
Nsg34
Nsg35
g250
sg37
Nsba(i__main__
Player
p313
(dp314
g23
(dp315
g25
Nsg26
I71
sg27
Nsg28
Nsg29
Nsg30
Nsg31
Nssg5
g81
sg33
I26
sg19
Nsg34
Nsg35
g250
sg37
Nsba(i__main__
Player
p316
(dp317
g23
(dp318
g25
Nsg26
I71
sg27
Nsg28
Nsg29
Nsg30
Nsg31
Nssg5
g81
sg33
I26
sg19
Nsg34
Nsg35
g250
sg37
Nsba(i__main__
Player
p319
(dp320
g23
(dp321
g25
Nsg26
I71
sg27
Nsg28
Nsg29
Nsg30
Nsg31
Nssg5
g81
sg33
I26
sg19
Nsg34
Nsg35
g250
sg37
Nsba(i__main__
Player
p322
(dp323
g23
(dp324
g25
Nsg26
I72
sg27
Nsg28
Nsg29
Nsg30
Nsg31
Nssg5
S'A. Elmohamady'
p325
sg33
I29
sg19
Nsg34
Nsg35
S'Egypt'
p326
sg37
Nsba(i__main__
Player
p327
(dp328
g23
(dp329
g25
Nsg26
I73
sg27
Nsg28
Nsg29
Nsg30
Nsg31
Nssg5
S'A. El-Shenawy'
p330
sg33
I26
sg19
Nsg34
Nsg35
S'Egypt'
p331
sg37
Nsba(i__main__
Player
p332
(dp333
g23
(dp334
g25
Nsg26
I74
sg27
Nsg28
Nsg29
Nsg30
Nsg31
Nssg5
S'R. Sobhi'
p335
sg33
I20
sg19
Nsg34
Nsg35
S'Egypt'
p336
sg37
Nsba(i__main__
Player
p337
(dp338
g23
(dp339
g25
Nsg26
I75
sg27
Nsg28
Nsg29
Nsg30
Nsg31
Nssg5
S'Kahraba'
p340
sg33
I23
sg19
Nsg34
Nsg35
S'Egypt'
p341
sg37
Nsba(i__main__
Player
p342
(dp343
g23
(dp344
g25
Nsg26
I77
sg27
Nsg28
Nsg29
Nsg30
Nsg31
Nssg5
S'M. Elneny'
p345
sg33
I24
sg19
Nsg34
Nsg35
S'Egypt'
p346
sg37
Nsba(i__main__
Player
p347
(dp348
g23
(dp349
g25
Nsg26
I83
sg27
Nsg28
Nsg29
Nsg30
Nsg31
Nssg5
S'M. Salah'
p350
sg33
I25
sg19
Nsg34
Nsg35
S'Egypt'
p351
sg37
Nsbasg148
I2
sg149
F100.0
sba(i__main__
Team
p352
(dp353
g11
Nsg5
S'Uruguay'
p354
sg13
F149.03333333333333
sg14
I72
sg15
I1
sg16
I21
sg17
Nsg18
I3
sg19
(lp355
(i__main__
Player
p356
(dp357
g23
(dp358
g25
Nsg26
I70
sg27
Nsg28
Nsg29
Nsg30
Nsg31
Nssg5
S'N. N\xc3\xa1ndez'
p359
sg33
I21
sg19
Nsg34
Nsg35
S'Uruguay'
p360
sg37
Nsba(i__main__
Player
p361
(dp362
g23
(dp363
g25
Nsg26
I71
sg27
Nsg28
Nsg29
Nsg30
Nsg31
Nssg5
S'M. Silva'
p364
sg33
I28
sg19
Nsg34
Nsg35
S'Uruguay'
p365
sg37
Nsba(i__main__
Player
p366
(dp367
g23
(dp368
g25
Nsg26
I72
sg27
Nsg28
Nsg29
Nsg30
Nsg31
Nssg5
S'G. Silva'
p369
sg33
I23
sg19
Nsg34
Nsg35
S'Uruguay'
p370
sg37
Nsba(i__main__
Player
p371
(dp372
g23
(dp373
g25
Nsg26
I72
sg27
Nsg28
Nsg29
Nsg30
Nsg31
Nssg5
S'J. Rodr\xc3\xadguez'
p374
sg33
I23
sg19
Nsg34
Nsg35
S'Uruguay'
p375
sg37
Nsba(i__main__
Player
p376
(dp377
g23
(dp378
g25
Nsg26
I73
sg27
Nsg28
Nsg29
Nsg30
Nsg31
Nssg5
S'M. G\xc3\xb3mez'
p379
sg33
I20
sg19
Nsg34
Nsg35
S'Uruguay'
p380
sg37
Nsba(i__main__
Player
p381
(dp382
g23
(dp383
g25
Nsg26
I73
sg27
Nsg28
Nsg29
Nsg30
Nsg31
Nssg5
S'D. Rodr\xc3\xadguez'
p384
sg33
I27
sg19
Nsg34
Nsg35
S'Uruguay'
p385
sg37
Nsba(i__main__
Player
p386
(dp387
g23
(dp388
g25
Nsg26
I73
sg27
Nsg28
Nsg29
Nsg30
Nsg31
Nssg5
S'A. Silva'
p389
sg33
I27
sg19
Nsg34
Nsg35
S'Uruguay'
p390
sg37
Nsba(i__main__
Player
p391
(dp392
g23
(dp393
g25
Nsg26
I74
sg27
Nsg28
Nsg29
Nsg30
Nsg31
Nssg5
S'D. Su\xc3\xa1rez'
p394
sg33
I29
sg19
Nsg34
Nsg35
S'Uruguay'
p395
sg37
Nsba(i__main__
Player
p396
(dp397
g23
(dp398
g25
Nsg26
I74
sg27
Nsg28
Nsg29
Nsg30
Nsg31
Nssg5
S'J. Urretaviscaya'
p399
sg33
I27
sg19
Nsg34
Nsg35
S'Uruguay'
p400
sg37
Nsba(i__main__
Player
p401
(dp402
g23
(dp403
g25
Nsg26
I75
sg27
Nsg28
Nsg29
Nsg30
Nsg31
Nssg5
S'C. Rodr\xc3\xadguez'
p404
sg33
I31
sg19
Nsg34
Nsg35
S'Uruguay'
p405
sg37
Nsba(i__main__
Player
p406
(dp407
g23
(dp408
g25
Nsg26
I75
sg27
Nsg28
Nsg29
Nsg30
Nsg31
Nssg5
S'L. Torreira'
p409
sg33
I21
sg19
Nsg34
Nsg35
S'Uruguay'
p410
sg37
Nsbasg85
I77
sg86
(lp411
g361
ag366
ag371
ag376
ag381
ag386
ag391
ag396
ag401
ag406
a(i__main__
Player
p412
(dp413
g23
(dp414
g25
Nsg26
I77
sg27
Nsg28
Nsg29
Nsg30
Nsg31
Nssg5
S'M. C\xc3\xa1ceres'
p415
sg33
I30
sg19
Nsg34
Nsg35
S'Uruguay'
p416
sg37
Nsbag412
a(i__main__
Player
p417
(dp418
g23
(dp419
g25
Nsg26
I77
sg27
Nsg28
Nsg29
Nsg30
Nsg31
Nssg5
S'C. Stuani'
p420
sg33
I30
sg19
Nsg34
Nsg35
S'Uruguay'
p421
sg37
Nsba(i__main__
Player
p422
(dp423
g23
(dp424
g25
Nsg26
I77
sg27
Nsg28
Nsg29
Nsg30
Nsg31
Nssg5
S'C. S\xc3\xa1nchez'
p425
sg33
I32
sg19
Nsg34
Nsg35
S'Uruguay'
p426
sg37
Nsba(i__main__
Player
p427
(dp428
g23
(dp429
g25
Nsg26
I78
sg27
Nsg28
Nsg29
Nsg30
Nsg31
Nssg5
S'D. Laxalt'
p430
sg33
I24
sg19
Nsg34
Nsg35
S'Uruguay'
p431
sg37
Nsba(i__main__
Player
p432
(dp433
g23
(dp434
g25
Nsg26
I78
sg27
Nsg28
Nsg29
Nsg30
Nsg31
Nssg5
S'D. Laxalt'
p435
sg33
I24
sg19
Nsg34
Nsg35
S'Uruguay'
p436
sg37
Nsba(i__main__
Player
p437
(dp438
g23
(dp439
g25
Nsg26
I78
sg27
Nsg28
Nsg29
Nsg30
Nsg31
Nssg5
S'M. Vecino'
p440
sg33
I25
sg19
Nsg34
Nsg35
S'Uruguay'
p441
sg37
Nsba(i__main__
Player
p442
(dp443
g23
(dp444
g25
Nsg26
I79
sg27
Nsg28
Nsg29
Nsg30
Nsg31
Nssg5
S'M. Campa\xc3\xb1a'
p445
sg33
I28
sg19
Nsg34
Nsg35
S'Uruguay'
p446
sg37
Nsba(i__main__
Player
p447
(dp448
g23
(dp449
g25
Nsg26
I81
sg27
Nsg28
Nsg29
Nsg30
Nsg31
Nssg5
S'S. Coates'
p450
sg33
I26
sg19
Nsg34
Nsg35
S'Uruguay'
p451
sg37
Nsba(i__main__
Player
p452
(dp453
g23
(dp454
g25
Nsg26
I82
sg27
Nsg28
Nsg29
Nsg30
Nsg31
Nssg5
S'F. Muslera'
p455
sg33
I31
sg19
Nsg34
Nsg35
S'Uruguay'
p456
sg37
Nsba(i__main__
Player
p457
(dp458
g23
(dp459
g25
Nsg26
I83
sg27
Nsg28
Nsg29
Nsg30
Nsg31
Nssg5
S'J. Gim\xc3\xa9nez'
p460
sg33
I22
sg19
Nsg34
Nsg35
S'Uruguay'
p461
sg37
Nsba(i__main__
Player
p462
(dp463
g23
(dp464
g25
Nsg26
I87
sg27
Nsg28
Nsg29
Nsg30
Nsg31
Nssg5
S'E. Cavani'
p465
sg33
I30
sg19
Nsg34
Nsg35
S'Uruguay'
p466
sg37
Nsba(i__main__
Player
p467
(dp468
g23
(dp469
g25
Nsg26
I92
sg27
Nsg28
Nsg29
Nsg30
Nsg31
Nssg5
S'L. Su\xc3\xa1rez'
p470
sg33
I30
sg19
Nsg34
Nsg35
S'Uruguay'
p471
sg37
Nsbasg148
I2
sg149
F30.0
sbasba(i__main__
Group
p472
(dp473
g3
(lp474
I0
aI0
aI0
aI0
asg5
S'Group B'
p475
sg7
(lp476
(i__main__
Team
p477
(dp478
g11
Nsg5
S'Portugal'
p479
sg13
F158.05555555555554
sg14
I78
sg15
I1
sg16
I3
sg17
Nsg18
I3
sg19
(lp480
(i__main__
Player
p481
(dp482
g23
(dp483
g25
Nsg26
I77
sg27
Nsg28
Nsg29
Nsg30
Nsg31
Nssg5
S'M\xc3\xa1rio Rui'
p484
sg33
I26
sg19
Nsg34
Nsg35
S'Portugal'
p485
sg37
Nsba(i__main__
Player
p486
(dp487
g23
(dp488
g25
Nsg26
I77
sg27
Nsg28
Nsg29
Nsg30
Nsg31
Nssg5
S'Rony Lopes'
p489
sg33
I21
sg19
Nsg34
Nsg35
S'Portugal'
p490
sg37
Nsba(i__main__
Player
p491
(dp492
g23
(dp493
g25
Nsg26
I78
sg27
Nsg28
Nsg29
Nsg30
Nsg31
Nssg5
S'Andr\xc3\xa9 Silva'
p494
sg33
I21
sg19
Nsg34
Nsg35
S'Portugal'
p495
sg37
Nsba(i__main__
Player
p496
(dp497
g23
(dp498
g25
Nsg26
I78
sg27
Nsg28
Nsg29
Nsg30
Nsg31
Nssg5
S'Bruno Fernandes'
p499
sg33
I22
sg19
Nsg34
Nsg35
S'Portugal'
p500
sg37
Nsba(i__main__
Player
p501
(dp502
g23
(dp503
g25
Nsg26
I78
sg27
Nsg28
Nsg29
Nsg30
Nsg31
Nssg5
S'Bruno Alves'
p504
sg33
I35
sg19
Nsg34
Nsg35
S'Portugal'
p505
sg37
Nsba(i__main__
Player
p506
(dp507
g23
(dp508
g25
Nsg26
I78
sg27
Nsg28
Nsg29
Nsg30
Nsg31
Nssg5
S'Miguel Lopes'
p509
sg33
I30
sg19
Nsg34
Nsg35
S'Portugal'
p510
sg37
Nsba(i__main__
Player
p511
(dp512
g23
(dp513
g25
Nsg26
I78
sg27
Nsg28
Nsg29
Nsg30
Nsg31
Nssg5
S'Bruno Fernandes'
p514
sg33
I22
sg19
Nsg34
Nsg35
S'Portugal'
p515
sg37
Nsba(i__main__
Player
p516
(dp517
g23
(dp518
g25
Nsg26
I79
sg27
Nsg28
Nsg29
Nsg30
Nsg31
Nssg5
S'C\xc3\xa9dric'
p519
sg33
I25
sg19
Nsg34
Nsg35
S'Portugal'
p520
sg37
Nsba(i__main__
Player
p521
(dp522
g23
(dp523
g25
Nsg26
I79
sg27
Nsg28
Nsg29
Nsg30
Nsg31
Nssg5
S'Jos\xc3\xa9 Fonte'
p524
sg33
I33
sg19
Nsg34
Nsg35
S'Portugal'
p525
sg37
Nsba(i__main__
Player
p526
(dp527
g23
(dp528
g25
Nsg26
I80
sg27
Nsg28
Nsg29
Nsg30
Nsg31
Nssg5
S'Ricardo Pereira'
p529
sg33
I23
sg19
Nsg34
Nsg35
S'Portugal'
p530
sg37
Nsba(i__main__
Player
p531
(dp532
g23
(dp533
g25
Nsg26
I80
sg27
Nsg28
Nsg29
Nsg30
Nsg31
Nssg5
S'Manuel Fernandes'
p534
sg33
I31
sg19
Nsg34
Nsg35
S'Portugal'
p535
sg37
Nsbasg85
I80
sg86
(lp536
g486
ag491
ag496
ag501
ag506
ag511
ag516
ag521
ag526
ag531
a(i__main__
Player
p537
(dp538
g23
(dp539
g25
Nsg26
I81
sg27
Nsg28
Nsg29
Nsg30
Nsg31
Nssg5
S'R. Guerreiro'
p540
sg33
I23
sg19
Nsg34
Nsg35
S'Portugal'
p541
sg37
Nsbag537
a(i__main__
Player
p542
(dp543
g23
(dp544
g25
Nsg26
I81
sg27
Nsg28
Nsg29
Nsg30
Nsg31
Nssg5
S'Gelson Martins'
p545
sg33
I22
sg19
Nsg34
Nsg35
S'Portugal'
p546
sg37
Nsba(i__main__
Player
p547
(dp548
g23
(dp549
g25
Nsg26
I82
sg27
Nsg28
Nsg29
Nsg30
Nsg31
Nssg5
S'Jo\xc3\xa3o Moutinho'
p550
sg33
I30
sg19
Nsg34
Nsg35
S'Portugal'
p551
sg37
Nsba(i__main__
Player
p552
(dp553
g23
(dp554
g25
Nsg26
I83
sg27
Nsg28
Nsg29
Nsg30
Nsg31
Nssg5
S'Rui Patr\xc3\xadcio'
p555
sg33
I29
sg19
Nsg34
Nsg35
S'Portugal'
p556
sg37
Nsba(i__main__
Player
p557
(dp558
g23
(dp559
g25
Nsg26
I83
sg27
Nsg28
Nsg29
Nsg30
Nsg31
Nssg5
S'Quaresma'
p560
sg33
I33
sg19
Nsg34
Nsg35
S'Portugal'
p561
sg37
Nsba(i__main__
Player
p562
(dp563
g23
(dp564
g25
Nsg26
I83
sg27
Nsg28
Nsg29
Nsg30
Nsg31
Nssg5
S'Jo\xc3\xa3o M\xc3\xa1rio'
p565
sg33
I24
sg19
Nsg34
Nsg35
S'Portugal'
p566
sg37
Nsba(i__main__
Player
p567
(dp568
g23
(dp569
g25
Nsg26
I83
sg27
Nsg28
Nsg29
Nsg30
Nsg31
Nssg5
S'William Carvalho'
p570
sg33
I25
sg19
Nsg34
Nsg35
S'Portugal'
p571
sg37
Nsba(i__main__
Player
p572
(dp573
g23
(dp574
g25
Nsg26
I83
sg27
Nsg28
Nsg29
Nsg30
Nsg31
Nssg5
S'Danilo Pereira'
p575
sg33
I25
sg19
Nsg34
Nsg35
S'Portugal'
p576
sg37
Nsba(i__main__
Player
p577
(dp578
g23
(dp579
g25
Nsg26
I83
sg27
Nsg28
Nsg29
Nsg30
Nsg31
Nssg5
S'A. Lopes'
p580
sg33
I26
sg19
Nsg34
Nsg35
S'Portugal'
p581
sg37
Nsba(i__main__
Player
p582
(dp583
g23
(dp584
g25
Nsg26
I83
sg27
Nsg28
Nsg29
Nsg30
Nsg31
Nssg5
S'Adrien Silva'
p585
sg33
I28
sg19
Nsg34
Nsg35
S'Portugal'
p586
sg37
Nsba(i__main__
Player
p587
(dp588
g23
(dp589
g25
Nsg26
I84
sg27
Nsg28
Nsg29
Nsg30
Nsg31
Nssg5
S'Bernardo Silva'
p590
sg33
I22
sg19
Nsg34
Nsg35
S'Portugal'
p591
sg37
Nsba(i__main__
Player
p592
(dp593
g23
(dp594
g25
Nsg26
I86
sg27
Nsg28
Nsg29
Nsg30
Nsg31
Nssg5
S'Pepe'
p595
sg33
I34
sg19
Nsg34
Nsg35
S'Portugal'
p596
sg37
Nsbasg148
I2
sg149
F18.0
sba(i__main__
Team
p597
(dp598
g11
Nsg5
S'Spain'
p599
sg13
F163.1818181818182
sg14
I80
sg15
I1
sg16
I6
sg17
Nsg18
I3
sg19
(lp600
(i__main__
Player
p601
(dp602
g23
(dp603
g25
Nsg26
I76
sg27
Nsg28
Nsg29
Nsg30
Nsg31
Nssg5
S'V\xc3\xadctor V\xc3\xa1zquez'
p604
sg33
I30
sg19
Nsg34
Nsg35
S'Spain'
p605
sg37
Nsba(i__main__
Player
p606
(dp607
g23
(dp608
g25
Nsg26
I78
sg27
Nsg28
Nsg29
Nsg30
Nsg31
Nssg5
S'Rodrigo'
p609
sg33
I26
sg19
Nsg34
Nsg35
S'Spain'
p610
sg37
Nsba(i__main__
Player
p611
(dp612
g23
(dp613
g25
Nsg26
I78
sg27
Nsg28
Nsg29
Nsg30
Nsg31
Nssg5
S'Rodrigo'
p614
sg33
I26
sg19
Nsg34
Nsg35
S'Spain'
p615
sg37
Nsba(i__main__
Player
p616
(dp617
g23
(dp618
g25
Nsg26
I79
sg27
Nsg28
Nsg29
Nsg30
Nsg31
Nssg5
S'Jaume Costa'
p619
sg33
I29
sg19
Nsg34
Nsg35
S'Spain'
p620
sg37
Nsba(i__main__
Player
p621
(dp622
g23
(dp623
g25
Nsg26
I80
sg27
Nsg28
Nsg29
Nsg30
Nsg31
Nssg5
S'Arrizabalaga'
p624
sg33
I22
sg19
Nsg34
Nsg35
S'Spain'
p625
sg37
Nsba(i__main__
Player
p626
(dp627
g23
(dp628
g25
Nsg26
I80
sg27
Nsg28
Nsg29
Nsg30
Nsg31
Nssg5
S'Nacho Monreal'
p629
sg33
I31
sg19
Nsg34
Nsg35
S'Spain'
p630
sg37
Nsba(i__main__
Player
p631
(dp632
g23
(dp633
g25
Nsg26
I82
sg27
Nsg28
Nsg29
Nsg30
Nsg31
Nssg5
S'Lucas V\xc3\xa1zquez'
p634
sg33
I26
sg19
Nsg34
Nsg35
S'Spain'
p635
sg37
Nsba(i__main__
Player
p636
(dp637
g23
(dp638
g25
Nsg26
I82
sg27
Nsg28
Nsg29
Nsg30
Nsg31
Nssg5
S'Sa\xc3\xbal'
p639
sg33
I22
sg19
Nsg34
Nsg35
S'Spain'
p640
sg37
Nsba(i__main__
Player
p641
(dp642
g23
(dp643
g25
Nsg26
I83
sg27
Nsg28
Nsg29
Nsg30
Nsg31
Nssg5
S'Iago Aspas'
p644
sg33
I29
sg19
Nsg34
Nsg35
S'Spain'
p645
sg37
Nsba(i__main__
Player
p646
(dp647
g23
(dp648
g25
Nsg26
I83
sg27
Nsg28
Nsg29
Nsg30
Nsg31
Nssg5
S'Jos\xc3\xa9 Reina'
p649
sg33
I34
sg19
Nsg34
Nsg35
S'Spain'
p650
sg37
Nsba(i__main__
Player
p651
(dp652
g23
(dp653
g25
Nsg26
I84
sg27
Nsg28
Nsg29
Nsg30
Nsg31
Nssg5
S'Marco Asensio'
p654
sg33
I21
sg19
Nsg34
Nsg35
S'Spain'
p655
sg37
Nsbasg85
I83
sg86
(lp656
g606
ag611
ag616
ag621
ag626
ag631
ag636
ag641
ag646
ag651
a(i__main__
Player
p657
(dp658
g23
(dp659
g25
Nsg26
I84
sg27
Nsg28
Nsg29
Nsg30
Nsg31
Nssg5
S'Carvajal'
p660
sg33
I25
sg19
Nsg34
Nsg35
S'Spain'
p661
sg37
Nsbag657
a(i__main__
Player
p662
(dp663
g23
(dp664
g25
Nsg26
I84
sg27
Nsg28
Nsg29
Nsg30
Nsg31
Nssg5
S'Koke'
p665
sg33
I25
sg19
Nsg34
Nsg35
S'Spain'
p666
sg37
Nsba(i__main__
Player
p667
(dp668
g23
(dp669
g25
Nsg26
I85
sg27
Nsg28
Nsg29
Nsg30
Nsg31
Nssg5
S'Jordi Alba'
p670
sg33
I28
sg19
Nsg34
Nsg35
S'Spain'
p671
sg37
Nsba(i__main__
Player
p672
(dp673
g23
(dp674
g25
Nsg26
I85
sg27
Nsg28
Nsg29
Nsg30
Nsg31
Nssg5
S'Azpilicueta'
p675
sg33
I27
sg19
Nsg34
Nsg35
S'Spain'
p676
sg37
Nsba(i__main__
Player
p677
(dp678
g23
(dp679
g25
Nsg26
I86
sg27
Nsg28
Nsg29
Nsg30
Nsg31
Nssg5
S'Sergio Busquets'
p680
sg33
I28
sg19
Nsg34
Nsg35
S'Spain'
p681
sg37
Nsba(i__main__
Player
p682
(dp683
g23
(dp684
g25
Nsg26
I86
sg27
Nsg28
Nsg29
Nsg30
Nsg31
Nssg5
S'Diego Costa'
p685
sg33
I28
sg19
Nsg34
Nsg35
S'Spain'
p686
sg37
Nsba(i__main__
Player
p687
(dp688
g23
(dp689
g25
Nsg26
I86
sg27
Nsg28
Nsg29
Nsg30
Nsg31
Nssg5
S'Isco'
p690
sg33
I25
sg19
Nsg34
Nsg35
S'Spain'
p691
sg37
Nsba(i__main__
Player
p692
(dp693
g23
(dp694
g25
Nsg26
I87
sg27
Nsg28
Nsg29
Nsg30
Nsg31
Nssg5
S'Iniesta'
p695
sg33
I33
sg19
Nsg34
Nsg35
S'Spain'
p696
sg37
Nsba(i__main__
Player
p697
(dp698
g23
(dp699
g25
Nsg26
I87
sg27
Nsg28
Nsg29
Nsg30
Nsg31
Nssg5
S'Piqu\xc3\xa9'
p700
sg33
I30
sg19
Nsg34
Nsg35
S'Spain'
p701
sg37
Nsba(i__main__
Player
p702
(dp703
g23
(dp704
g25
Nsg26
I87
sg27
Nsg28
Nsg29
Nsg30
Nsg31
Nssg5
S'David Silva'
p705
sg33
I31
sg19
Nsg34
Nsg35
S'Spain'
p706
sg37
Nsba(i__main__
Player
p707
(dp708
g23
(dp709
g25
Nsg26
I88
sg27
Nsg28
Nsg29
Nsg30
Nsg31
Nssg5
S'Thiago'
p710
sg33
I26
sg19
Nsg34
Nsg35
S'Spain'
p711
sg37
Nsba(i__main__
Player
p712
(dp713
g23
(dp714
g25
Nsg26
I90
sg27
Nsg28
Nsg29
Nsg30
Nsg31
Nssg5
S'De Gea'
p715
sg33
I26
sg19
Nsg34
Nsg35
S'Spain'
p716
sg37
Nsbasg148
I2
sg149
F5.5
sba(i__main__
Team
p717
(dp718
g11
Nsg5
S'Morocco'
p719
sg13
F144.005
sg14
I70
sg15
I1
sg16
I40
sg17
Nsg18
I3
sg19
(lp720
(i__main__
Player
p721
(dp722
g23
(dp723
g25
Nsg26
I63
sg27
Nsg28
Nsg29
Nsg30
Nsg31
Nssg5
S'H. Mendyl'
p724
sg33
I19
sg19
Nsg34
Nsg35
S'Morocco'
p725
sg37
Nsba(i__main__
Player
p726
(dp727
g23
(dp728
g25
Nsg26
I69
sg27
Nsg28
Nsg29
Nsg30
Nsg31
Nssg5
S'Y. En-Nesyri'
p729
sg33
I20
sg19
Nsg34
Nsg35
S'Morocco'
p730
sg37
Nsba(i__main__
Player
p731
(dp732
g23
(dp733
g25
Nsg26
I71
sg27
Nsg28
Nsg29
Nsg30
Nsg31
Nssg5
S'K. Bouta\xc3\xafb'
p734
sg33
I30
sg19
Nsg34
Nsg35
S'Morocco'
p735
sg37
Nsba(i__main__
Player
p736
(dp737
g23
(dp738
g25
Nsg26
I71
sg27
Nsg28
Nsg29
Nsg30
Nsg31
Nssg5
S'Y. Bounou'
p739
sg33
I26
sg19
Nsg34
Nsg35
S'Morocco'
p740
sg37
Nsba(i__main__
Player
p741
(dp742
g23
(dp743
g25
Nsg26
I71
sg27
Nsg28
Nsg29
Nsg30
Nsg31
Nssg5
S'A. Harit'
p744
sg33
I20
sg19
Nsg34
Nsg35
S'Morocco'
p745
sg37
Nsba(i__main__
Player
p746
(dp747
g23
(dp748
g25
Nsg26
I71
sg27
Nsg28
Nsg29
Nsg30
Nsg31
Nssg5
S'A. Hakimi'
p749
sg33
I18
sg19
Nsg34
Nsg35
S'Morocco'
p750
sg37
Nsba(i__main__
Player
p751
(dp752
g23
(dp753
g25
Nsg26
I72
sg27
Nsg28
Nsg29
Nsg30
Nsg31
Nssg5
S'Manuel da Costa'
p754
sg33
I31
sg19
Nsg34
Nsg35
S'Morocco'
p755
sg37
Nsba(i__main__
Player
p756
(dp757
g23
(dp758
g25
Nsg26
I72
sg27
Nsg28
Nsg29
Nsg30
Nsg31
Nssg5
S'Y. Ait Bennasser'
p759
sg33
I20
sg19
Nsg34
Nsg35
S'Morocco'
p760
sg37
Nsba(i__main__
Player
p761
(dp762
g23
(dp763
g25
Nsg26
I73
sg27
Nsg28
Nsg29
Nsg30
Nsg31
Nssg5
S'A. Bouhaddouz'
p764
sg33
I30
sg19
Nsg34
Nsg35
S'Morocco'
p765
sg37
Nsba(i__main__
Player
p766
(dp767
g23
(dp768
g25
Nsg26
I73
sg27
Nsg28
Nsg29
Nsg30
Nsg31
Nssg5
g81
sg33
I25
sg19
Nsg34
Nsg35
g719
sg37
Nsba(i__main__
Player
p769
(dp770
g23
(dp771
g25
Nsg26
I73
sg27
Nsg28
Nsg29
Nsg30
Nsg31
Nssg5
g81
sg33
I25
sg19
Nsg34
Nsg35
g719
sg37
Nsbasg85
I74
sg86
(lp772
g726
ag731
ag736
ag741
ag746
ag751
ag756
ag761
ag766
ag769
a(i__main__
Player
p773
(dp774
g23
(dp775
g25
Nsg26
I73
sg27
Nsg28
Nsg29
Nsg30
Nsg31
Nssg5
g81
sg33
I25
sg19
Nsg34
Nsg35
g719
sg37
Nsbag773
a(i__main__
Player
p776
(dp777
g23
(dp778
g25
Nsg26
I73
sg27
Nsg28
Nsg29
Nsg30
Nsg31
Nssg5
g81
sg33
I25
sg19
Nsg34
Nsg35
g719
sg37
Nsba(i__main__
Player
p779
(dp780
g23
(dp781
g25
Nsg26
I73
sg27
Nsg28
Nsg29
Nsg30
Nsg31
Nssg5
g81
sg33
I25
sg19
Nsg34
Nsg35
g719
sg37
Nsba(i__main__
Player
p782
(dp783
g23
(dp784
g25
Nsg26
I73
sg27
Nsg28
Nsg29
Nsg30
Nsg31
Nssg5
g81
sg33
I25
sg19
Nsg34
Nsg35
g719
sg37
Nsba(i__main__
Player
p785
(dp786
g23
(dp787
g25
Nsg26
I74
sg27
Nsg28
Nsg29
Nsg30
Nsg31
Nssg5
S'S. Amrabat'
p788
sg33
I20
sg19
Nsg34
Nsg35
S'Morocco'
p789
sg37
Nsba(i__main__
Player
p790
(dp791
g23
(dp792
g25
Nsg26
I75
sg27
Nsg28
Nsg29
Nsg30
Nsg31
Nssg5
S'F. Fajr'
p793
sg33
I28
sg19
Nsg34
Nsg35
S'Morocco'
p794
sg37
Nsba(i__main__
Player
p795
(dp796
g23
(dp797
g25
Nsg26
I76
sg27
Nsg28
Nsg29
Nsg30
Nsg31
Nssg5
S'N. Dirar'
p798
sg33
I31
sg19
Nsg34
Nsg35
S'Morocco'
p799
sg37
Nsba(i__main__
Player
p800
(dp801
g23
(dp802
g25
Nsg26
I76
sg27
Nsg28
Nsg29
Nsg30
Nsg31
Nssg5
S'R. Sa\xc3\xafss'
p803
sg33
I27
sg19
Nsg34
Nsg35
S'Morocco'
p804
sg37
Nsba(i__main__
Player
p805
(dp806
g23
(dp807
g25
Nsg26
I79
sg27
Nsg28
Nsg29
Nsg30
Nsg31
Nssg5
S'N. Amrabat'
p808
sg33
I30
sg19
Nsg34
Nsg35
S'Morocco'
p809
sg37
Nsba(i__main__
Player
p810
(dp811
g23
(dp812
g25
Nsg26
I80
sg27
Nsg28
Nsg29
Nsg30
Nsg31
Nssg5
S'K. El Ahmadi'
p813
sg33
I32
sg19
Nsg34
Nsg35
S'Morocco'
p814
sg37
Nsba(i__main__
Player
p815
(dp816
g23
(dp817
g25
Nsg26
I81
sg27
Nsg28
Nsg29
Nsg30
Nsg31
Nssg5
S'H. Ziyech'
p818
sg33
I24
sg19
Nsg34
Nsg35
S'Morocco'
p819
sg37
Nsba(i__main__
Player
p820
(dp821
g23
(dp822
g25
Nsg26
I81
sg27
Nsg28
Nsg29
Nsg30
Nsg31
Nssg5
S'Y. Belhanda'
p823
sg33
I27
sg19
Nsg34
Nsg35
S'Morocco'
p824
sg37
Nsbasg148
I2
sg149
F200.0
sba(i__main__
Team
p825
(dp826
g11
Nsg5
S'Iran'
p827
sg13
F140.00133333333332
sg14
I69
sg15
I1
sg16
I32
sg17
Nsg18
I3
sg19
(lp828
(i__main__
Player
p829
(dp830
g23
(dp831
g25
Nsg26
I62
sg27
Nsg28
Nsg29
Nsg30
Nsg31
Nssg5
S'A. Abedzadeh'
p832
sg33
I24
sg19
Nsg34
Nsg35
S'Iran'
p833
sg37
Nsba(i__main__
Player
p834
(dp835
g23
(dp836
g25
Nsg26
I66
sg27
Nsg28
Nsg29
Nsg30
Nsg31
Nssg5
S'S. Ezatolahi'
p837
sg33
I20
sg19
Nsg34
Nsg35
S'Iran'
p838
sg37
Nsba(i__main__
Player
p839
(dp840
g23
(dp841
g25
Nsg26
I70
sg27
Nsg28
Nsg29
Nsg30
Nsg31
Nssg5
S'R. Rezaeian'
p842
sg33
I27
sg19
Nsg34
Nsg35
S'Iran'
p843
sg37
Nsba(i__main__
Player
p844
(dp845
g23
(dp846
g25
Nsg26
I71
sg27
Nsg28
Nsg29
Nsg30
Nsg31
Nssg5
S'S. Ghoddos'
p847
sg33
I23
sg19
Nsg34
Nsg35
S'Iran'
p848
sg37
Nsba(i__main__
Player
p849
(dp850
g23
(dp851
g25
Nsg26
I71
sg27
Nsg28
Nsg29
Nsg30
Nsg31
Nssg5
g81
sg33
I24
sg19
Nsg34
Nsg35
g827
sg37
Nsba(i__main__
Player
p852
(dp853
g23
(dp854
g25
Nsg26
I71
sg27
Nsg28
Nsg29
Nsg30
Nsg31
Nssg5
g81
sg33
I24
sg19
Nsg34
Nsg35
g827
sg37
Nsba(i__main__
Player
p855
(dp856
g23
(dp857
g25
Nsg26
I71
sg27
Nsg28
Nsg29
Nsg30
Nsg31
Nssg5
g81
sg33
I24
sg19
Nsg34
Nsg35
g827
sg37
Nsba(i__main__
Player
p858
(dp859
g23
(dp860
g25
Nsg26
I71
sg27
Nsg28
Nsg29
Nsg30
Nsg31
Nssg5
g81
sg33
I24
sg19
Nsg34
Nsg35
g827
sg37
Nsba(i__main__
Player
p861
(dp862
g23
(dp863
g25
Nsg26
I71
sg27
Nsg28
Nsg29
Nsg30
Nsg31
Nssg5
g81
sg33
I24
sg19
Nsg34
Nsg35
g827
sg37
Nsba(i__main__
Player
p864
(dp865
g23
(dp866
g25
Nsg26
I71
sg27
Nsg28
Nsg29
Nsg30
Nsg31
Nssg5
g81
sg33
I24
sg19
Nsg34
Nsg35
g827
sg37
Nsba(i__main__
Player
p867
(dp868
g23
(dp869
g25
Nsg26
I71
sg27
Nsg28
Nsg29
Nsg30
Nsg31
Nssg5
g81
sg33
I24
sg19
Nsg34
Nsg35
g827
sg37
Nsbasg85
I71
sg86
(lp870
g834
ag839
ag844
ag849
ag852
ag855
ag858
ag861
ag864
ag867
a(i__main__
Player
p871
(dp872
g23
(dp873
g25
Nsg26
I71
sg27
Nsg28
Nsg29
Nsg30
Nsg31
Nssg5
g81
sg33
I24
sg19
Nsg34
Nsg35
g827
sg37
Nsbag871
a(i__main__
Player
p874
(dp875
g23
(dp876
g25
Nsg26
I71
sg27
Nsg28
Nsg29
Nsg30
Nsg31
Nssg5
g81
sg33
I24
sg19
Nsg34
Nsg35
g827
sg37
Nsba(i__main__
Player
p877
(dp878
g23
(dp879
g25
Nsg26
I71
sg27
Nsg28
Nsg29
Nsg30
Nsg31
Nssg5
g81
sg33
I24
sg19
Nsg34
Nsg35
g827
sg37
Nsba(i__main__
Player
p880
(dp881
g23
(dp882
g25
Nsg26
I71
sg27
Nsg28
Nsg29
Nsg30
Nsg31
Nssg5
g81
sg33
I24
sg19
Nsg34
Nsg35
g827
sg37
Nsba(i__main__
Player
p883
(dp884
g23
(dp885
g25
Nsg26
I71
sg27
Nsg28
Nsg29
Nsg30
Nsg31
Nssg5
g81
sg33
I24
sg19
Nsg34
Nsg35
g827
sg37
Nsba(i__main__
Player
p886
(dp887
g23
(dp888
g25
Nsg26
I71
sg27
Nsg28
Nsg29
Nsg30
Nsg31
Nssg5
g81
sg33
I24
sg19
Nsg34
Nsg35
g827
sg37
Nsba(i__main__
Player
p889
(dp890
g23
(dp891
g25
Nsg26
I71
sg27
Nsg28
Nsg29
Nsg30
Nsg31
Nssg5
g81
sg33
I24
sg19
Nsg34
Nsg35
g827
sg37
Nsba(i__main__
Player
p892
(dp893
g23
(dp894
g25
Nsg26
I72
sg27
Nsg28
Nsg29
Nsg30
Nsg31
Nssg5
S'R. Ghoochannejhad'
p895
sg33
I29
sg19
Nsg34
Nsg35
S'Iran'
p896
sg37
Nsba(i__main__
Player
p897
(dp898
g23
(dp899
g25
Nsg26
I73
sg27
Nsg28
Nsg29
Nsg30
Nsg31
Nssg5
S'K. Ansarifard'
p900
sg33
I27
sg19
Nsg34
Nsg35
S'Iran'
p901
sg37
Nsba(i__main__
Player
p902
(dp903
g23
(dp904
g25
Nsg26
I73
sg27
Nsg28
Nsg29
Nsg30
Nsg31
Nssg5
S'M. Mohammadi'
p905
sg33
I23
sg19
Nsg34
Nsg35
S'Iran'
p906
sg37
Nsba(i__main__
Player
p907
(dp908
g23
(dp909
g25
Nsg26
I75
sg27
Nsg28
Nsg29
Nsg30
Nsg31
Nssg5
S'A. Jahanbakhsh'
p910
sg33
I23
sg19
Nsg34
Nsg35
S'Iran'
p911
sg37
Nsba(i__main__
Player
p912
(dp913
g23
(dp914
g25
Nsg26
I77
sg27
Nsg28
Nsg29
Nsg30
Nsg31
Nssg5
S'S. Azmoun'
p915
sg33
I22
sg19
Nsg34
Nsg35
S'Iran'
p916
sg37
Nsbasg148
I2
sg149
F750.0
sbasba(i__main__
Group
p917
(dp918
g3
(lp919
I0
aI0
aI0
aI0
asg5
S'Group C'
p920
sg7
(lp921
(i__main__
Team
p922
(dp923
g11
Nsg5
S'France'
p924
sg13
F159.125
sg14
I78
sg15
I1
sg16
I9
sg17
Nsg18
I3
sg19
(lp925
(i__main__
Player
p926
(dp927
g23
(dp928
g25
Nsg26
I75
sg27
Nsg28
Nsg29
Nsg30
Nsg31
Nssg5
S'M. Demb\xc3\xa9l\xc3\xa9'
p929
sg33
I20
sg19
Nsg34
Nsg35
S'France'
p930
sg37
Nsba(i__main__
Player
p931
(dp932
g23
(dp933
g25
Nsg26
I75
sg27
Nsg28
Nsg29
Nsg30
Nsg31
Nssg5
S'T. Hern\xc3\xa1ndez'
p934
sg33
I19
sg19
Nsg34
Nsg35
S'France'
p935
sg37
Nsba(i__main__
Player
p936
(dp937
g23
(dp938
g25
Nsg26
I76
sg27
Nsg28
Nsg29
Nsg30
Nsg31
Nssg5
S'N. Mendy'
p939
sg33
I25
sg19
Nsg34
Nsg35
S'France'
p940
sg37
Nsba(i__main__
Player
p941
(dp942
g23
(dp943
g25
Nsg26
I77
sg27
Nsg28
Nsg29
Nsg30
Nsg31
Nssg5
S'P. Kimpembe'
p944
sg33
I21
sg19
Nsg34
Nsg35
S'France'
p945
sg37
Nsba(i__main__
Player
p946
(dp947
g23
(dp948
g25
Nsg26
I77
sg27
Nsg28
Nsg29
Nsg30
Nsg31
Nssg5
S'L. Hern\xc3\xa1ndez'
p949
sg33
I21
sg19
Nsg34
Nsg35
S'France'
p950
sg37
Nsba(i__main__
Player
p951
(dp952
g23
(dp953
g25
Nsg26
I78
sg27
Nsg28
Nsg29
Nsg30
Nsg31
Nssg5
S'B. Mendy'
p954
sg33
I22
sg19
Nsg34
Nsg35
S'France'
p955
sg37
Nsba(i__main__
Player
p956
(dp957
g23
(dp958
g25
Nsg26
I79
sg27
Nsg28
Nsg29
Nsg30
Nsg31
Nssg5
S'D. Sidib\xc3\xa9'
p959
sg33
I24
sg19
Nsg34
Nsg35
S'France'
p960
sg37
Nsba(i__main__
Player
p961
(dp962
g23
(dp963
g25
Nsg26
I79
sg27
Nsg28
Nsg29
Nsg30
Nsg31
Nssg5
S'A. Areola'
p964
sg33
I24
sg19
Nsg34
Nsg35
S'France'
p965
sg37
Nsba(i__main__
Player
p966
(dp967
g23
(dp968
g25
Nsg26
I81
sg27
Nsg28
Nsg29
Nsg30
Nsg31
Nssg5
S'A. Rami'
p969
sg33
I31
sg19
Nsg34
Nsg35
S'France'
p970
sg37
Nsba(i__main__
Player
p971
(dp972
g23
(dp973
g25
Nsg26
I82
sg27
Nsg28
Nsg29
Nsg30
Nsg31
Nssg5
S'C. Tolisso'
p974
sg33
I22
sg19
Nsg34
Nsg35
S'France'
p975
sg37
Nsba(i__main__
Player
p976
(dp977
g23
(dp978
g25
Nsg26
I82
sg27
Nsg28
Nsg29
Nsg30
Nsg31
Nssg5
S'N. Fekir'
p979
sg33
I23
sg19
Nsg34
Nsg35
S'France'
p980
sg37
Nsbasg85
I81
sg86
(lp981
g931
ag936
ag941
ag946
ag951
ag956
ag961
ag966
ag971
ag976
a(i__main__
Player
p982
(dp983
g23
(dp984
g25
Nsg26
I82
sg27
Nsg28
Nsg29
Nsg30
Nsg31
Nssg5
S'F. Thauvin'
p985
sg33
I24
sg19
Nsg34
Nsg35
S'France'
p986
sg37
Nsbag982
a(i__main__
Player
p987
(dp988
g23
(dp989
g25
Nsg26
I82
sg27
Nsg28
Nsg29
Nsg30
Nsg31
Nssg5
S'O. Giroud'
p990
sg33
I30
sg19
Nsg34
Nsg35
S'France'
p991
sg37
Nsba(i__main__
Player
p992
(dp993
g23
(dp994
g25
Nsg26
I82
sg27
Nsg28
Nsg29
Nsg30
Nsg31
Nssg5
S'S. Mandanda'
p995
sg33
I32
sg19
Nsg34
Nsg35
S'France'
p996
sg37
Nsba(i__main__
Player
p997
(dp998
g23
(dp999
g25
Nsg26
I83
sg27
Nsg28
Nsg29
Nsg30
Nsg31
Nssg5
S'S. Umtiti'
p1000
sg33
I23
sg19
Nsg34
Nsg35
S'France'
p1001
sg37
Nsba(i__main__
Player
p1002
(dp1003
g23
(dp1004
g25
Nsg26
I83
sg27
Nsg28
Nsg29
Nsg30
Nsg31
Nssg5
S'O. Demb\xc3\xa9l\xc3\xa9'
p1005
sg33
I20
sg19
Nsg34
Nsg35
S'France'
p1006
sg37
Nsba(i__main__
Player
p1007
(dp1008
g23
(dp1009
g25
Nsg26
I83
sg27
Nsg28
Nsg29
Nsg30
Nsg31
Nssg5
S'T. Lemar'
p1010
sg33
I21
sg19
Nsg34
Nsg35
S'France'
p1011
sg37
Nsba(i__main__
Player
p1012
(dp1013
g23
(dp1014
g25
Nsg26
I83
sg27
Nsg28
Nsg29
Nsg30
Nsg31
Nssg5
S'K. Mbapp\xc3\xa9'
p1015
sg33
I18
sg19
Nsg34
Nsg35
S'France'
p1016
sg37
Nsba(i__main__
Player
p1017
(dp1018
g23
(dp1019
g25
Nsg26
I85
sg27
Nsg28
Nsg29
Nsg30
Nsg31
Nssg5
S'R. Varane'
p1020
sg33
I24
sg19
Nsg34
Nsg35
S'France'
p1021
sg37
Nsba(i__main__
Player
p1022
(dp1023
g23
(dp1024
g25
Nsg26
I85
sg27
Nsg28
Nsg29
Nsg30
Nsg31
Nssg5
S'B. Matuidi'
p1025
sg33
I30
sg19
Nsg34
Nsg35
S'France'
p1026
sg37
Nsba(i__main__
Player
p1027
(dp1028
g23
(dp1029
g25
Nsg26
I87
sg27
Nsg28
Nsg29
Nsg30
Nsg31
Nssg5
S'P. Pogba'
p1030
sg33
I24
sg19
Nsg34
Nsg35
S'France'
p1031
sg37
Nsba(i__main__
Player
p1032
(dp1033
g23
(dp1034
g25
Nsg26
I87
sg27
Nsg28
Nsg29
Nsg30
Nsg31
Nssg5
S'N. Kant\xc3\xa9'
p1035
sg33
I26
sg19
Nsg34
Nsg35
S'France'
p1036
sg37
Nsba(i__main__
Player
p1037
(dp1038
g23
(dp1039
g25
Nsg26
I88
sg27
Nsg28
Nsg29
Nsg30
Nsg31
Nssg5
S'A. Griezmann'
p1040
sg33
I26
sg19
Nsg34
Nsg35
S'France'
p1041
sg37
Nsbasg148
I2
sg149
F8.0
sba(i__main__
Team
p1042
(dp1043
g11
Nsg5
S'Australia'
p1044
sg13
F135.001
sg14
I65
sg15
I1
sg16
I39
sg17
Nsg18
I3
sg19
(lp1045
(i__main__
Player
p1046
(dp1047
g23
(dp1048
g25
Nsg26
I57
sg27
Nsg28
Nsg29
Nsg30
Nsg31
Nssg5
S'K. Petratos'
p1049
sg33
I19
sg19
Nsg34
Nsg35
S'Australia'
p1050
sg37
Nsba(i__main__
Player
p1051
(dp1052
g23
(dp1053
g25
Nsg26
I58
sg27
Nsg28
Nsg29
Nsg30
Nsg31
Nssg5
S'D. Arzani'
p1054
sg33
I18
sg19
Nsg34
Nsg35
S'Australia'
p1055
sg37
Nsba(i__main__
Player
p1056
(dp1057
g23
(dp1058
g25
Nsg26
I59
sg27
Nsg28
Nsg29
Nsg30
Nsg31
Nssg5
S'D. Ryan'
p1059
sg33
I17
sg19
Nsg34
Nsg35
S'Australia'
p1060
sg37
Nsba(i__main__
Player
p1061
(dp1062
g23
(dp1063
g25
Nsg26
I65
sg27
Nsg28
Nsg29
Nsg30
Nsg31
Nssg5
S'A. Nabbout'
p1064
sg33
I24
sg19
Nsg34
Nsg35
S'Australia'
p1065
sg37
Nsba(i__main__
Player
p1066
(dp1067
g23
(dp1068
g25
Nsg26
I66
sg27
Nsg28
Nsg29
Nsg30
Nsg31
Nssg5
S'D. Petratos'
p1069
sg33
I24
sg19
Nsg34
Nsg35
S'Australia'
p1070
sg37
Nsba(i__main__
Player
p1071
(dp1072
g23
(dp1073
g25
Nsg26
I68
sg27
Nsg28
Nsg29
Nsg30
Nsg31
Nssg5
S'J. Meredith'
p1074
sg33
I29
sg19
Nsg34
Nsg35
S'Australia'
p1075
sg37
Nsba(i__main__
Player
p1076
(dp1077
g23
(dp1078
g25
Nsg26
I69
sg27
Nsg28
Nsg29
Nsg30
Nsg31
Nssg5
S'M. Jurman'
p1079
sg33
I27
sg19
Nsg34
Nsg35
S'Australia'
p1080
sg37
Nsba(i__main__
Player
p1081
(dp1082
g23
(dp1083
g25
Nsg26
I69
sg27
Nsg28
Nsg29
Nsg30
Nsg31
Nssg5
g81
sg33
I25
sg19
Nsg34
Nsg35
g1044
sg37
Nsba(i__main__
Player
p1084
(dp1085
g23
(dp1086
g25
Nsg26
I70
sg27
Nsg28
Nsg29
Nsg30
Nsg31
Nssg5
S'J. Risdon'
p1087
sg33
I24
sg19
Nsg34
Nsg35
S'Australia'
p1088
sg37
Nsba(i__main__
Player
p1089
(dp1090
g23
(dp1091
g25
Nsg26
I70
sg27
Nsg28
Nsg29
Nsg30
Nsg31
Nssg5
S'M. Degenek'
p1092
sg33
I23
sg19
Nsg34
Nsg35
S'Australia'
p1093
sg37
Nsba(i__main__
Player
p1094
(dp1095
g23
(dp1096
g25
Nsg26
I70
sg27
Nsg28
Nsg29
Nsg30
Nsg31
Nssg5
S'T. Cahill'
p1097
sg33
I37
sg19
Nsg34
Nsg35
S'Australia'
p1098
sg37
Nsbasg85
I70
sg86
(lp1099
g1051
ag1056
ag1061
ag1066
ag1071
ag1076
ag1081
ag1084
ag1089
ag1094
a(i__main__
Player
p1100
(dp1101
g23
(dp1102
g25
Nsg26
I70
sg27
Nsg28
Nsg29
Nsg30
Nsg31
Nssg5
S'D. Vukovic'
p1103
sg33
I32
sg19
Nsg34
Nsg35
S'Australia'
p1104
sg37
Nsbag1100
a(i__main__
Player
p1105
(dp1106
g23
(dp1107
g25
Nsg26
I71
sg27
Nsg28
Nsg29
Nsg30
Nsg31
Nssg5
S'M. Luongo'
p1108
sg33
I24
sg19
Nsg34
Nsg35
S'Australia'
p1109
sg37
Nsba(i__main__
Player
p1110
(dp1111
g23
(dp1112
g25
Nsg26
I71
sg27
Nsg28
Nsg29
Nsg30
Nsg31
Nssg5
S'J. Irvine'
p1113
sg33
I24
sg19
Nsg34
Nsg35
S'Australia'
p1114
sg37
Nsba(i__main__
Player
p1115
(dp1116
g23
(dp1117
g25
Nsg26
I72
sg27
Nsg28
Nsg29
Nsg30
Nsg31
Nssg5
S'M. Leckie'
p1118
sg33
I26
sg19
Nsg34
Nsg35
S'Australia'
p1119
sg37
Nsba(i__main__
Player
p1120
(dp1121
g23
(dp1122
g25
Nsg26
I72
sg27
Nsg28
Nsg29
Nsg30
Nsg31
Nssg5
S'R. Kruse'
p1123
sg33
I28
sg19
Nsg34
Nsg35
S'Australia'
p1124
sg37
Nsba(i__main__
Player
p1125
(dp1126
g23
(dp1127
g25
Nsg26
I73
sg27
Nsg28
Nsg29
Nsg30
Nsg31
Nssg5
S'J. Maclaren'
p1128
sg33
I23
sg19
Nsg34
Nsg35
S'Australia'
p1129
sg37
Nsba(i__main__
Player
p1130
(dp1131
g23
(dp1132
g25
Nsg26
I73
sg27
Nsg28
Nsg29
Nsg30
Nsg31
Nssg5
S'A. Behich'
p1133
sg33
I26
sg19
Nsg34
Nsg35
S'Australia'
p1134
sg37
Nsba(i__main__
Player
p1135
(dp1136
g23
(dp1137
g25
Nsg26
I74
sg27
Nsg28
Nsg29
Nsg30
Nsg31
Nssg5
S'T. Sainsbury'
p1138
sg33
I25
sg19
Nsg34
Nsg35
S'Australia'
p1139
sg37
Nsba(i__main__
Player
p1140
(dp1141
g23
(dp1142
g25
Nsg26
I74
sg27
Nsg28
Nsg29
Nsg30
Nsg31
Nssg5
S'M. Milligan'
p1143
sg33
I31
sg19
Nsg34
Nsg35
S'Australia'
p1144
sg37
Nsba(i__main__
Player
p1145
(dp1146
g23
(dp1147
g25
Nsg26
I77
sg27
Nsg28
Nsg29
Nsg30
Nsg31
Nssg5
S'B. Jones'
p1148
sg33
I35
sg19
Nsg34
Nsg35
S'Australia'
p1149
sg37
Nsba(i__main__
Player
p1150
(dp1151
g23
(dp1152
g25
Nsg26
I77
sg27
Nsg28
Nsg29
Nsg30
Nsg31
Nssg5
S'M. Ryan'
p1153
sg33
I25
sg19
Nsg34
Nsg35
S'Australia'
p1154
sg37
Nsba(i__main__
Player
p1155
(dp1156
g23
(dp1157
g25
Nsg26
I77
sg27
Nsg28
Nsg29
Nsg30
Nsg31
Nssg5
S'A. Mooy'
p1158
sg33
I26
sg19
Nsg34
Nsg35
S'Australia'
p1159
sg37
Nsbasg148
I2
sg149
F1000.0
sba(i__main__
Team
p1160
(dp1161
g11
Nsg5
S'Peru'
p1162
sg13
F136.001
sg14
I66
sg15
I1
sg16
I11
sg17
Nsg18
I3
sg19
(lp1163
(i__main__
Player
p1164
(dp1165
g23
(dp1166
g25
Nsg26
I63
sg27
Nsg28
Nsg29
Nsg30
Nsg31
Nssg5
S'E. Flores'
p1167
sg33
I23
sg19
Nsg34
Nsg35
S'Peru'
p1168
sg37
Nsba(i__main__
Player
p1169
(dp1170
g23
(dp1171
g25
Nsg26
I63
sg27
Nsg28
Nsg29
Nsg30
Nsg31
Nssg5
S'N. Loyola'
p1172
sg33
I22
sg19
Nsg34
Nsg35
S'Peru'
p1173
sg37
Nsba(i__main__
Player
p1174
(dp1175
g23
(dp1176
g25
Nsg26
I64
sg27
Nsg28
Nsg29
Nsg30
Nsg31
Nssg5
S'W. Cartagena'
p1177
sg33
I22
sg19
Nsg34
Nsg35
S'Peru'
p1178
sg37
Nsba(i__main__
Player
p1179
(dp1180
g23
(dp1181
g25
Nsg26
I65
sg27
Nsg28
Nsg29
Nsg30
Nsg31
Nssg5
S'A. Corzo'
p1182
sg33
I28
sg19
Nsg34
Nsg35
S'Peru'
p1183
sg37
Nsba(i__main__
Player
p1184
(dp1185
g23
(dp1186
g25
Nsg26
I65
sg27
Nsg28
Nsg29
Nsg30
Nsg31
Nssg5
S'P. Aquino'
p1187
sg33
I22
sg19
Nsg34
Nsg35
S'Peru'
p1188
sg37
Nsba(i__main__
Player
p1189
(dp1190
g23
(dp1191
g25
Nsg26
I67
sg27
Nsg28
Nsg29
Nsg30
Nsg31
Nssg5
S'C. Ramos'
p1192
sg33
I28
sg19
Nsg34
Nsg35
S'Peru'
p1193
sg37
Nsba(i__main__
Player
p1194
(dp1195
g23
(dp1196
g25
Nsg26
I67
sg27
Nsg28
Nsg29
Nsg30
Nsg31
Nssg5
S'M. Araujo'
p1197
sg33
I22
sg19
Nsg34
Nsg35
S'Peru'
p1198
sg37
Nsba(i__main__
Player
p1199
(dp1200
g23
(dp1201
g25
Nsg26
I68
sg27
Nsg28
Nsg29
Nsg30
Nsg31
Nssg5
S'J. Carvallo'
p1202
sg33
I31
sg19
Nsg34
Nsg35
S'Peru'
p1203
sg37
Nsba(i__main__
Player
p1204
(dp1205
g23
(dp1206
g25
Nsg26
I69
sg27
Nsg28
Nsg29
Nsg30
Nsg31
Nssg5
S'A. Polo'
p1207
sg33
I22
sg19
Nsg34
Nsg35
S'Peru'
p1208
sg37
Nsba(i__main__
Player
p1209
(dp1210
g23
(dp1211
g25
Nsg26
I70
sg27
Nsg28
Nsg29
Nsg30
Nsg31
Nssg5
g81
sg33
I25
sg19
Nsg34
Nsg35
g1162
sg37
Nsba(i__main__
Player
p1212
(dp1213
g23
(dp1214
g25
Nsg26
I70
sg27
Nsg28
Nsg29
Nsg30
Nsg31
Nssg5
g81
sg33
I25
sg19
Nsg34
Nsg35
g1162
sg37
Nsbasg85
I70
sg86
(lp1215
g1169
ag1174
ag1179
ag1184
ag1189
ag1194
ag1199
ag1204
ag1209
ag1212
a(i__main__
Player
p1216
(dp1217
g23
(dp1218
g25
Nsg26
I70
sg27
Nsg28
Nsg29
Nsg30
Nsg31
Nssg5
g81
sg33
I25
sg19
Nsg34
Nsg35
g1162
sg37
Nsbag1216
a(i__main__
Player
p1219
(dp1220
g23
(dp1221
g25
Nsg26
I70
sg27
Nsg28
Nsg29
Nsg30
Nsg31
Nssg5
g81
sg33
I25
sg19
Nsg34
Nsg35
g1162
sg37
Nsba(i__main__
Player
p1222
(dp1223
g23
(dp1224
g25
Nsg26
I70
sg27
Nsg28
Nsg29
Nsg30
Nsg31
Nssg5
g81
sg33
I25
sg19
Nsg34
Nsg35
g1162
sg37
Nsba(i__main__
Player
p1225
(dp1226
g23
(dp1227
g25
Nsg26
I71
sg27
Nsg28
Nsg29
Nsg30
Nsg31
Nssg5
S'Y. Yot\xc3\xban'
p1228
sg33
I27
sg19
Nsg34
Nsg35
S'Peru'
p1229
sg37
Nsba(i__main__
Player
p1230
(dp1231
g23
(dp1232
g25
Nsg26
I72
sg27
Nsg28
Nsg29
Nsg30
Nsg31
Nssg5
S'L. Adv\xc3\xadncula'
p1233
sg33
I27
sg19
Nsg34
Nsg35
S'Peru'
p1234
sg37
Nsba(i__main__
Player
p1235
(dp1236
g23
(dp1237
g25
Nsg26
I72
sg27
Nsg28
Nsg29
Nsg30
Nsg31
Nssg5
S'R. Tapia'
p1238
sg33
I21
sg19
Nsg34
Nsg35
S'Peru'
p1239
sg37
Nsba(i__main__
Player
p1240
(dp1241
g23
(dp1242
g25
Nsg26
I73
sg27
Nsg28
Nsg29
Nsg30
Nsg31
Nssg5
S'A. Rodr\xc3\xadguez'
p1243
sg33
I33
sg19
Nsg34
Nsg35
S'Peru'
p1244
sg37
Nsba(i__main__
Player
p1245
(dp1246
g23
(dp1247
g25
Nsg26
I74
sg27
Nsg28
Nsg29
Nsg30
Nsg31
Nssg5
S'P. Gallese'
p1248
sg33
I27
sg19
Nsg34
Nsg35
S'Peru'
p1249
sg37
Nsba(i__main__
Player
p1250
(dp1251
g23
(dp1252
g25
Nsg26
I76
sg27
Nsg28
Nsg29
Nsg30
Nsg31
Nssg5
S'P. Hurtado'
p1253
sg33
I26
sg19
Nsg34
Nsg35
S'Peru'
p1254
sg37
Nsba(i__main__
Player
p1255
(dp1256
g23
(dp1257
g25
Nsg26
I76
sg27
Nsg28
Nsg29
Nsg30
Nsg31
Nssg5
S'R. Ruid\xc3\xadaz'
p1258
sg33
I26
sg19
Nsg34
Nsg35
S'Peru'
p1259
sg37
Nsba(i__main__
Player
p1260
(dp1261
g23
(dp1262
g25
Nsg26
I77
sg27
Nsg28
Nsg29
Nsg30
Nsg31
Nssg5
S'A. Carrillo'
p1263
sg33
I26
sg19
Nsg34
Nsg35
S'Peru'
p1264
sg37
Nsba(i__main__
Player
p1265
(dp1266
g23
(dp1267
g25
Nsg26
I78
sg27
Nsg28
Nsg29
Nsg30
Nsg31
Nssg5
S'J. Farf\xc3\xa1n'
p1268
sg33
I32
sg19
Nsg34
Nsg35
S'Peru'
p1269
sg37
Nsbasg148
I2
sg149
F1000.0
sba(i__main__
Team
p1270
(dp1271
g11
Nsg5
S'Denmark'
p1272
sg13
F146.01333333333332
sg14
I71
sg15
I1
sg16
I12
sg17
Nsg18
I3
sg19
(lp1273
(i__main__
Player
p1274
(dp1275
g23
(dp1276
g25
Nsg26
I68
sg27
Nsg28
Nsg29
Nsg30
Nsg31
Nssg5
S'L. Christensen'
p1277
sg33
I22
sg19
Nsg34
Nsg35
S'Denmark'
p1278
sg37
Nsba(i__main__
Player
p1279
(dp1280
g23
(dp1281
g25
Nsg26
I69
sg27
Nsg28
Nsg29
Nsg30
Nsg31
Nssg5
S'J. Knudsen'
p1282
sg33
I24
sg19
Nsg34
Nsg35
S'Denmark'
p1283
sg37
Nsba(i__main__
Player
p1284
(dp1285
g23
(dp1286
g25
Nsg26
I69
sg27
Nsg28
Nsg29
Nsg30
Nsg31
Nssg5
S'J. Stryger Larsen'
p1287
sg33
I26
sg19
Nsg34
Nsg35
S'Denmark'
p1288
sg37
Nsba(i__main__
Player
p1289
(dp1290
g23
(dp1291
g25
Nsg26
I70
sg27
Nsg28
Nsg29
Nsg30
Nsg31
Nssg5
S'W. Kvist'
p1292
sg33
I32
sg19
Nsg34
Nsg35
S'Denmark'
p1293
sg37
Nsba(i__main__
Player
p1294
(dp1295
g23
(dp1296
g25
Nsg26
I70
sg27
Nsg28
Nsg29
Nsg30
Nsg31
Nssg5
S'K. Larsen'
p1297
sg33
I24
sg19
Nsg34
Nsg35
S'Denmark'
p1298
sg37
Nsba(i__main__
Player
p1299
(dp1300
g23
(dp1301
g25
Nsg26
I71
sg27
Nsg28
Nsg29
Nsg30
Nsg31
Nssg5
S'J. Poulsen'
p1302
sg33
I33
sg19
Nsg34
Nsg35
S'Denmark'
p1303
sg37
Nsba(i__main__
Player
p1304
(dp1305
g23
(dp1306
g25
Nsg26
I71
sg27
Nsg28
Nsg29
Nsg30
Nsg31
Nssg5
S'H. Dalsgaard'
p1307
sg33
I27
sg19
Nsg34
Nsg35
S'Denmark'
p1308
sg37
Nsba(i__main__
Player
p1309
(dp1310
g23
(dp1311
g25
Nsg26
I73
sg27
Nsg28
Nsg29
Nsg30
Nsg31
Nssg5
S'F. R\xc3\xb8nnow'
p1312
sg33
I24
sg19
Nsg34
Nsg35
S'Denmark'
p1313
sg37
Nsba(i__main__
Player
p1314
(dp1315
g23
(dp1316
g25
Nsg26
I73
sg27
Nsg28
Nsg29
Nsg30
Nsg31
Nssg5
S'A. Cornelius'
p1317
sg33
I24
sg19
Nsg34
Nsg35
S'Denmark'
p1318
sg37
Nsba(i__main__
Player
p1319
(dp1320
g23
(dp1321
g25
Nsg26
I74
sg27
Nsg28
Nsg29
Nsg30
Nsg31
Nssg5
S'P. Sisto'
p1322
sg33
I22
sg19
Nsg34
Nsg35
S'Denmark'
p1323
sg37
Nsba(i__main__
Player
p1324
(dp1325
g23
(dp1326
g25
Nsg26
I75
sg27
Nsg28
Nsg29
Nsg30
Nsg31
Nssg5
S'J. L\xc3\xb6ssl'
p1327
sg33
I28
sg19
Nsg34
Nsg35
S'Denmark'
p1328
sg37
Nsbasg85
I75
sg86
(lp1329
g1279
ag1284
ag1289
ag1294
ag1299
ag1304
ag1309
ag1314
ag1319
ag1324
a(i__main__
Player
p1330
(dp1331
g23
(dp1332
g25
Nsg26
I75
sg27
Nsg28
Nsg29
Nsg30
Nsg31
Nssg5
S'V. Fischer'
p1333
sg33
I23
sg19
Nsg34
Nsg35
S'Denmark'
p1334
sg37
Nsbag1330
a(i__main__
Player
p1335
(dp1336
g23
(dp1337
g25
Nsg26
I75
sg27
Nsg28
Nsg29
Nsg30
Nsg31
Nssg5
S'M. J\xc3\xb8rgensen'
p1338
sg33
I27
sg19
Nsg34
Nsg35
S'Denmark'
p1339
sg37
Nsba(i__main__
Player
p1340
(dp1341
g23
(dp1342
g25
Nsg26
I75
sg27
Nsg28
Nsg29
Nsg30
Nsg31
Nssg5
S'L. Lerager'
p1343
sg33
I23
sg19
Nsg34
Nsg35
S'Denmark'
p1344
sg37
Nsba(i__main__
Player
p1345
(dp1346
g23
(dp1347
g25
Nsg26
I76
sg27
Nsg28
Nsg29
Nsg30
Nsg31
Nssg5
S'Y. Poulsen'
p1348
sg33
I23
sg19
Nsg34
Nsg35
S'Denmark'
p1349
sg37
Nsba(i__main__
Player
p1350
(dp1351
g23
(dp1352
g25
Nsg26
I77
sg27
Nsg28
Nsg29
Nsg30
Nsg31
Nssg5
S'M. Braithwaite'
p1353
sg33
I26
sg19
Nsg34
Nsg35
S'Denmark'
p1354
sg37
Nsba(i__main__
Player
p1355
(dp1356
g23
(dp1357
g25
Nsg26
I78
sg27
Nsg28
Nsg29
Nsg30
Nsg31
Nssg5
S'K. Dolberg'
p1358
sg33
I19
sg19
Nsg34
Nsg35
S'Denmark'
p1359
sg37
Nsba(i__main__
Player
p1360
(dp1361
g23
(dp1362
g25
Nsg26
I79
sg27
Nsg28
Nsg29
Nsg30
Nsg31
Nssg5
S'M. Krohn-Dehli'
p1363
sg33
I34
sg19
Nsg34
Nsg35
S'Denmark'
p1364
sg37
Nsba(i__main__
Player
p1365
(dp1366
g23
(dp1367
g25
Nsg26
I79
sg27
Nsg28
Nsg29
Nsg30
Nsg31
Nssg5
S'J. Vestergaard'
p1368
sg33
I24
sg19
Nsg34
Nsg35
S'Denmark'
p1369
sg37
Nsba(i__main__
Player
p1370
(dp1371
g23
(dp1372
g25
Nsg26
I79
sg27
Nsg28
Nsg29
Nsg30
Nsg31
Nssg5
S'N. J\xc3\xb8rgensen'
p1373
sg33
I26
sg19
Nsg34
Nsg35
S'Denmark'
p1374
sg37
Nsba(i__main__
Player
p1375
(dp1376
g23
(dp1377
g25
Nsg26
I81
sg27
Nsg28
Nsg29
Nsg30
Nsg31
Nssg5
S'A. Christensen'
p1378
sg33
I21
sg19
Nsg34
Nsg35
S'Denmark'
p1379
sg37
Nsba(i__main__
Player
p1380
(dp1381
g23
(dp1382
g25
Nsg26
I83
sg27
Nsg28
Nsg29
Nsg30
Nsg31
Nssg5
S'K. Schmeichel'
p1383
sg33
I30
sg19
Nsg34
Nsg35
S'Denmark'
p1384
sg37
Nsba(i__main__
Player
p1385
(dp1386
g23
(dp1387
g25
Nsg26
I87
sg27
Nsg28
Nsg29
Nsg30
Nsg31
Nssg5
S'C. Eriksen'
p1388
sg33
I25
sg19
Nsg34
Nsg35
S'Denmark'
p1389
sg37
Nsbasg148
I2
sg149
F75.0
sbasba(i__main__
Group
p1390
(dp1391
g3
(lp1392
I0
aI0
aI0
aI0
asg5
S'Group D'
p1393
sg7
(lp1394
(i__main__
Team
p1395
(dp1396
g11
Nsg5
S'Argentina'
p1397
sg13
F156.03333333333333
sg14
I76
sg15
I1
sg16
I4
sg17
Nsg18
I3
sg19
(lp1398
(i__main__
Player
p1399
(dp1400
g23
(dp1401
g25
Nsg26
I73
sg27
Nsg28
Nsg29
Nsg30
Nsg31
Nssg5
S'D. P\xc3\xa9rez'
p1402
sg33
I28
sg19
Nsg34
Nsg35
S'Argentina'
p1403
sg37
Nsba(i__main__
Player
p1404
(dp1405
g23
(dp1406
g25
Nsg26
I74
sg27
Nsg28
Nsg29
Nsg30
Nsg31
Nssg5
S'G. Lo Celso'
p1407
sg33
I21
sg19
Nsg34
Nsg35
S'Argentina'
p1408
sg37
Nsba(i__main__
Player
p1409
(dp1410
g23
(dp1411
g25
Nsg26
I75
sg27
Nsg28
Nsg29
Nsg30
Nsg31
Nssg5
S'C. Pav\xc3\xb3n'
p1412
sg33
I21
sg19
Nsg34
Nsg35
S'Argentina'
p1413
sg37
Nsba(i__main__
Player
p1414
(dp1415
g23
(dp1416
g25
Nsg26
I76
sg27
Nsg28
Nsg29
Nsg30
Nsg31
Nssg5
S'G. Mercado'
p1417
sg33
I30
sg19
Nsg34
Nsg35
S'Argentina'
p1418
sg37
Nsba(i__main__
Player
p1419
(dp1420
g23
(dp1421
g25
Nsg26
I77
sg27
Nsg28
Nsg29
Nsg30
Nsg31
Nssg5
S'P. P\xc3\xa9rez'
p1422
sg33
I31
sg19
Nsg34
Nsg35
S'Argentina'
p1423
sg37
Nsba(i__main__
Player
p1424
(dp1425
g23
(dp1426
g25
Nsg26
I77
sg27
Nsg28
Nsg29
Nsg30
Nsg31
Nssg5
S'F. Armani'
p1427
sg33
I30
sg19
Nsg34
Nsg35
S'Argentina'
p1428
sg37
Nsba(i__main__
Player
p1429
(dp1430
g23
(dp1431
g25
Nsg26
I77
sg27
Nsg28
Nsg29
Nsg30
Nsg31
Nssg5
S'F. Higua\xc3\xadn'
p1432
sg33
I32
sg19
Nsg34
Nsg35
S'Argentina'
p1433
sg37
Nsba(i__main__
Player
p1434
(dp1435
g23
(dp1436
g25
Nsg26
I78
sg27
Nsg28
Nsg29
Nsg30
Nsg31
Nssg5
S'E. P\xc3\xa9rez'
p1437
sg33
I31
sg19
Nsg34
Nsg35
S'Argentina'
p1438
sg37
Nsba(i__main__
Player
p1439
(dp1440
g23
(dp1441
g25
Nsg26
I79
sg27
Nsg28
Nsg29
Nsg30
Nsg31
Nssg5
S'M. Acu\xc3\xb1a'
p1442
sg33
I25
sg19
Nsg34
Nsg35
S'Argentina'
p1443
sg37
Nsba(i__main__
Player
p1444
(dp1445
g23
(dp1446
g25
Nsg26
I79
sg27
Nsg28
Nsg29
Nsg30
Nsg31
Nssg5
S'N. Tagliafico'
p1447
sg33
I24
sg19
Nsg34
Nsg35
S'Argentina'
p1448
sg37
Nsba(i__main__
Player
p1449
(dp1450
g23
(dp1451
g25
Nsg26
I79
sg27
Nsg28
Nsg29
Nsg30
Nsg31
Nssg5
S'C. Ansaldi'
p1452
sg33
I30
sg19
Nsg34
Nsg35
S'Argentina'
p1453
sg37
Nsbasg85
I80
sg86
(lp1454
g1404
ag1409
ag1414
ag1419
ag1424
ag1429
ag1434
ag1439
ag1444
ag1449
a(i__main__
Player
p1455
(dp1456
g23
(dp1457
g25
Nsg26
I79
sg27
Nsg28
Nsg29
Nsg30
Nsg31
Nssg5
S'W. Caballero'
p1458
sg33
I35
sg19
Nsg34
Nsg35
S'Argentina'
p1459
sg37
Nsbag1455
a(i__main__
Player
p1460
(dp1461
g23
(dp1462
g25
Nsg26
I80
sg27
Nsg28
Nsg29
Nsg30
Nsg31
Nssg5
S'E. Salvio'
p1463
sg33
I26
sg19
Nsg34
Nsg35
S'Argentina'
p1464
sg37
Nsba(i__main__
Player
p1465
(dp1466
g23
(dp1467
g25
Nsg26
I82
sg27
Nsg28
Nsg29
Nsg30
Nsg31
Nssg5
S'F. Fazio'
p1468
sg33
I30
sg19
Nsg34
Nsg35
S'Argentina'
p1469
sg37
Nsba(i__main__
Player
p1470
(dp1471
g23
(dp1472
g25
Nsg26
I82
sg27
Nsg28
Nsg29
Nsg30
Nsg31
Nssg5
S'M. Rojo'
p1473
sg33
I27
sg19
Nsg34
Nsg35
S'Argentina'
p1474
sg37
Nsba(i__main__
Player
p1475
(dp1476
g23
(dp1477
g25
Nsg26
I83
sg27
Nsg28
Nsg29
Nsg30
Nsg31
Nssg5
S'J. Mascherano'
p1478
sg33
I33
sg19
Nsg34
Nsg35
S'Argentina'
p1479
sg37
Nsba(i__main__
Player
p1480
(dp1481
g23
(dp1482
g25
Nsg26
I83
sg27
Nsg28
Nsg29
Nsg30
Nsg31
Nssg5
S'N. Otamendi'
p1483
sg33
I29
sg19
Nsg34
Nsg35
S'Argentina'
p1484
sg37
Nsba(i__main__
Player
p1485
(dp1486
g23
(dp1487
g25
Nsg26
I83
sg27
Nsg28
Nsg29
Nsg30
Nsg31
Nssg5
S'E. Banega'
p1488
sg33
I29
sg19
Nsg34
Nsg35
S'Argentina'
p1489
sg37
Nsba(i__main__
Player
p1490
(dp1491
g23
(dp1492
g25
Nsg26
I83
sg27
Nsg28
Nsg29
Nsg30
Nsg31
Nssg5
S'L. Biglia'
p1493
sg33
I31
sg19
Nsg34
Nsg35
S'Argentina'
p1494
sg37
Nsba(i__main__
Player
p1495
(dp1496
g23
(dp1497
g25
Nsg26
I85
sg27
Nsg28
Nsg29
Nsg30
Nsg31
Nssg5
S'A. Di Mar\xc3\xada'
p1498
sg33
I29
sg19
Nsg34
Nsg35
S'Argentina'
p1499
sg37
Nsba(i__main__
Player
p1500
(dp1501
g23
(dp1502
g25
Nsg26
I88
sg27
Nsg28
Nsg29
Nsg30
Nsg31
Nssg5
S'P. Dybala'
p1503
sg33
I23
sg19
Nsg34
Nsg35
S'Argentina'
p1504
sg37
Nsba(i__main__
Player
p1505
(dp1506
g23
(dp1507
g25
Nsg26
I89
sg27
Nsg28
Nsg29
Nsg30
Nsg31
Nssg5
S'S. Ag\xc3\xbcero'
p1508
sg33
I29
sg19
Nsg34
Nsg35
S'Argentina'
p1509
sg37
Nsba(i__main__
Player
p1510
(dp1511
g23
(dp1512
g25
Nsg26
I90
sg27
Nsg28
Nsg29
Nsg30
Nsg31
Nssg5
S'G. Higua\xc3\xadn'
p1513
sg33
I29
sg19
Nsg34
Nsg35
S'Argentina'
p1514
sg37
Nsbasg148
I2
sg149
F30.0
sba(i__main__
Team
p1515
(dp1516
g11
Nsg5
S'Iceland'
p1517
sg13
F133.005
sg14
I64
sg15
I1
sg16
I22
sg17
Nsg18
I3
sg19
(lp1518
(i__main__
Player
p1519
(dp1520
g23
(dp1521
g25
Nsg26
I53
sg27
Nsg28
Nsg29
Nsg30
Nsg31
Nssg5
S'A. Sigur\xc3\xb0sson'
p1522
sg33
I18
sg19
Nsg34
Nsg35
S'Iceland'
p1523
sg37
Nsba(i__main__
Player
p1524
(dp1525
g23
(dp1526
g25
Nsg26
I62
sg27
Nsg28
Nsg29
Nsg30
Nsg31
Nssg5
S'K. Sigur\xc3\xb0sson'
p1527
sg33
I25
sg19
Nsg34
Nsg35
S'Iceland'
p1528
sg37
Nsba(i__main__
Player
p1529
(dp1530
g23
(dp1531
g25
Nsg26
I64
sg27
Nsg28
Nsg29
Nsg30
Nsg31
Nssg5
S'R. R\xc3\xbanarsson'
p1532
sg33
I22
sg19
Nsg34
Nsg35
S'Iceland'
p1533
sg37
Nsba(i__main__
Player
p1534
(dp1535
g23
(dp1536
g25
Nsg26
I65
sg27
Nsg28
Nsg29
Nsg30
Nsg31
Nssg5
S'K. Finnbogason'
p1537
sg33
I30
sg19
Nsg34
Nsg35
S'Iceland'
p1538
sg37
Nsba(i__main__
Player
p1539
(dp1540
g23
(dp1541
g25
Nsg26
I66
sg27
Nsg28
Nsg29
Nsg30
Nsg31
Nssg5
S'B. S\xc3\xa6varsson'
p1542
sg33
I32
sg19
Nsg34
Nsg35
S'Iceland'
p1543
sg37
Nsba(i__main__
Player
p1544
(dp1545
g23
(dp1546
g25
Nsg26
I66
sg27
Nsg28
Nsg29
Nsg30
Nsg31
Nssg5
S'A. Gu\xc3\xb0mundsson'
p1547
sg33
I20
sg19
Nsg34
Nsg35
S'Iceland'
p1548
sg37
Nsba(i__main__
Player
p1549
(dp1550
g23
(dp1551
g25
Nsg26
I66
sg27
Nsg28
Nsg29
Nsg30
Nsg31
Nssg5
S'A. Sigur\xc3\xb0arson'
p1552
sg33
I23
sg19
Nsg34
Nsg35
S'Iceland'
p1553
sg37
Nsba(i__main__
Player
p1554
(dp1555
g23
(dp1556
g25
Nsg26
I67
sg27
Nsg28
Nsg29
Nsg30
Nsg31
Nssg5
S'H. Halld\xc3\xb3rsson'
p1557
sg33
I33
sg19
Nsg34
Nsg35
S'Iceland'
p1558
sg37
Nsba(i__main__
Player
p1559
(dp1560
g23
(dp1561
g25
Nsg26
I68
sg27
Nsg28
Nsg29
Nsg30
Nsg31
Nssg5
S'R. G\xc3\xadslason'
p1562
sg33
I29
sg19
Nsg34
Nsg35
S'Iceland'
p1563
sg37
Nsba(i__main__
Player
p1564
(dp1565
g23
(dp1566
g25
Nsg26
I68
sg27
Nsg28
Nsg29
Nsg30
Nsg31
Nssg5
S'H. Magn\xc3\xbasson'
p1567
sg33
I24
sg19
Nsg34
Nsg35
S'Iceland'
p1568
sg37
Nsba(i__main__
Player
p1569
(dp1570
g23
(dp1571
g25
Nsg26
I68
sg27
Nsg28
Nsg29
Nsg30
Nsg31
Nssg5
S'A. Sk\xc3\xbalason'
p1572
sg33
I30
sg19
Nsg34
Nsg35
S'Iceland'
p1573
sg37
Nsbasg85
I69
sg86
(lp1574
g1524
ag1529
ag1534
ag1539
ag1544
ag1549
ag1554
ag1559
ag1564
ag1569
a(i__main__
Player
p1575
(dp1576
g23
(dp1577
g25
Nsg26
I69
sg27
Nsg28
Nsg29
Nsg30
Nsg31
Nssg5
S'J. B\xc3\xb6\xc3\xb0varsson'
p1578
sg33
I25
sg19
Nsg34
Nsg35
S'Iceland'
p1579
sg37
Nsbag1575
a(i__main__
Player
p1580
(dp1581
g23
(dp1582
g25
Nsg26
I70
sg27
Nsg28
Nsg29
Nsg30
Nsg31
Nssg5
S'O. Sk\xc3\xbalason'
p1583
sg33
I34
sg19
Nsg34
Nsg35
S'Iceland'
p1584
sg37
Nsba(i__main__
Player
p1585
(dp1586
g23
(dp1587
g25
Nsg26
I70
sg27
Nsg28
Nsg29
Nsg30
Nsg31
Nssg5
S'K. \xc3\x81rnason'
p1588
sg33
I34
sg19
Nsg34
Nsg35
S'Iceland'
p1589
sg37
Nsba(i__main__
Player
p1590
(dp1591
g23
(dp1592
g25
Nsg26
I70
sg27
Nsg28
Nsg29
Nsg30
Nsg31
Nssg5
S'A. Traustason'
p1593
sg33
I24
sg19
Nsg34
Nsg35
S'Iceland'
p1594
sg37
Nsba(i__main__
Player
p1595
(dp1596
g23
(dp1597
g25
Nsg26
I72
sg27
Nsg28
Nsg29
Nsg30
Nsg31
Nssg5
S'S. Ingason'
p1598
sg33
I23
sg19
Nsg34
Nsg35
S'Iceland'
p1599
sg37
Nsba(i__main__
Player
p1600
(dp1601
g23
(dp1602
g25
Nsg26
I72
sg27
Nsg28
Nsg29
Nsg30
Nsg31
Nssg5
S'R. Sigur\xc3\xb0sson'
p1603
sg33
I31
sg19
Nsg34
Nsg35
S'Iceland'
p1604
sg37
Nsba(i__main__
Player
p1605
(dp1606
g23
(dp1607
g25
Nsg26
I73
sg27
Nsg28
Nsg29
Nsg30
Nsg31
Nssg5
S'B. Sigur\xc3\xb0arson'
p1608
sg33
I25
sg19
Nsg34
Nsg35
S'Iceland'
p1609
sg37
Nsba(i__main__
Player
p1610
(dp1611
g23
(dp1612
g25
Nsg26
I73
sg27
Nsg28
Nsg29
Nsg30
Nsg31
Nssg5
S'B. Bjarnason'
p1613
sg33
I29
sg19
Nsg34
Nsg35
S'Iceland'
p1614
sg37
Nsba(i__main__
Player
p1615
(dp1616
g23
(dp1617
g25
Nsg26
I73
sg27
Nsg28
Nsg29
Nsg30
Nsg31
Nssg5
S'J. Gu\xc3\xb0mundsson'
p1618
sg33
I26
sg19
Nsg34
Nsg35
S'Iceland'
p1619
sg37
Nsba(i__main__
Player
p1620
(dp1621
g23
(dp1622
g25
Nsg26
I75
sg27
Nsg28
Nsg29
Nsg30
Nsg31
Nssg5
S'E. Hallfre\xc3\xb0sson'
p1623
sg33
I33
sg19
Nsg34
Nsg35
S'Iceland'
p1624
sg37
Nsba(i__main__
Player
p1625
(dp1626
g23
(dp1627
g25
Nsg26
I76
sg27
Nsg28
Nsg29
Nsg30
Nsg31
Nssg5
S'A. Finnbogason'
p1628
sg33
I28
sg19
Nsg34
Nsg35
S'Iceland'
p1629
sg37
Nsba(i__main__
Player
p1630
(dp1631
g23
(dp1632
g25
Nsg26
I82
sg27
Nsg28
Nsg29
Nsg30
Nsg31
Nssg5
S'G. Sigur\xc3\xb0sson'
p1633
sg33
I27
sg19
Nsg34
Nsg35
S'Iceland'
p1634
sg37
Nsbasg148
I2
sg149
F200.0
sba(i__main__
Team
p1635
(dp1636
g11
Nsg5
S'Croatia'
p1637
sg13
F150.06666666666666
sg14
I72
sg15
I1
sg16
I17
sg17
Nsg18
I3
sg19
(lp1638
(i__main__
Player
p1639
(dp1640
g23
(dp1641
g25
Nsg26
I58
sg27
Nsg28
Nsg29
Nsg30
Nsg31
Nssg5
S'D. Lovren'
p1642
sg33
I18
sg19
Nsg34
Nsg35
S'Croatia'
p1643
sg37
Nsba(i__main__
Player
p1644
(dp1645
g23
(dp1646
g25
Nsg26
I58
sg27
Nsg28
Nsg29
Nsg30
Nsg31
Nssg5
S'D. Kova\xc4\x8di\xc4\x87'
p1647
sg33
I23
sg19
Nsg34
Nsg35
S'Croatia'
p1648
sg37
Nsba(i__main__
Player
p1649
(dp1650
g23
(dp1651
g25
Nsg26
I71
sg27
Nsg28
Nsg29
Nsg30
Nsg31
Nssg5
S'D. \xc4\x86aleta-Car'
p1652
sg33
I20
sg19
Nsg34
Nsg35
S'Croatia'
p1653
sg37
Nsba(i__main__
Player
p1654
(dp1655
g23
(dp1656
g25
Nsg26
I72
sg27
Nsg28
Nsg29
Nsg30
Nsg31
Nssg5
S'A. Rebi\xc4\x87'
p1657
sg33
I23
sg19
Nsg34
Nsg35
S'Croatia'
p1658
sg37
Nsba(i__main__
Player
p1659
(dp1660
g23
(dp1661
g25
Nsg26
I75
sg27
Nsg28
Nsg29
Nsg30
Nsg31
Nssg5
S'I. Strini\xc4\x87'
p1662
sg33
I29
sg19
Nsg34
Nsg35
S'Croatia'
p1663
sg37
Nsba(i__main__
Player
p1664
(dp1665
g23
(dp1666
g25
Nsg26
I76
sg27
Nsg28
Nsg29
Nsg30
Nsg31
Nssg5
S'T. Jedvaj'
p1667
sg33
I21
sg19
Nsg34
Nsg35
S'Croatia'
p1668
sg37
Nsba(i__main__
Player
p1669
(dp1670
g23
(dp1671
g25
Nsg26
I76
sg27
Nsg28
Nsg29
Nsg30
Nsg31
Nssg5
S'M. Pjaca'
p1672
sg33
I22
sg19
Nsg34
Nsg35
S'Croatia'
p1673
sg37
Nsba(i__main__
Player
p1674
(dp1675
g23
(dp1676
g25
Nsg26
I77
sg27
Nsg28
Nsg29
Nsg30
Nsg31
Nssg5
S'L. Kalini\xc4\x87'
p1677
sg33
I27
sg19
Nsg34
Nsg35
S'Croatia'
p1678
sg37
Nsba(i__main__
Player
p1679
(dp1680
g23
(dp1681
g25
Nsg26
I77
sg27
Nsg28
Nsg29
Nsg30
Nsg31
Nssg5
g81
sg33
I25
sg19
Nsg34
Nsg35
g1637
sg37
Nsba(i__main__
Player
p1682
(dp1683
g23
(dp1684
g25
Nsg26
I77
sg27
Nsg28
Nsg29
Nsg30
Nsg31
Nssg5
g81
sg33
I25
sg19
Nsg34
Nsg35
g1637
sg37
Nsba(i__main__
Player
p1685
(dp1686
g23
(dp1687
g25
Nsg26
I78
sg27
Nsg28
Nsg29
Nsg30
Nsg31
Nssg5
S'M. Badelj'
p1688
sg33
I28
sg19
Nsg34
Nsg35
S'Croatia'
p1689
sg37
Nsbasg85
I78
sg86
(lp1690
g1644
ag1649
ag1654
ag1659
ag1664
ag1669
ag1674
ag1679
ag1682
ag1685
a(i__main__
Player
p1691
(dp1692
g23
(dp1693
g25
Nsg26
I78
sg27
Nsg28
Nsg29
Nsg30
Nsg31
Nssg5
S'M. Badelj'
p1694
sg33
I28
sg19
Nsg34
Nsg35
S'Croatia'
p1695
sg37
Nsbag1691
a(i__main__
Player
p1696
(dp1697
g23
(dp1698
g25
Nsg26
I79
sg27
Nsg28
Nsg29
Nsg30
Nsg31
Nssg5
S'S. Vrsaljko'
p1699
sg33
I25
sg19
Nsg34
Nsg35
S'Croatia'
p1700
sg37
Nsba(i__main__
Player
p1701
(dp1702
g23
(dp1703
g25
Nsg26
I81
sg27
Nsg28
Nsg29
Nsg30
Nsg31
Nssg5
S'M. Brozovi\xc4\x87'
p1704
sg33
I24
sg19
Nsg34
Nsg35
S'Croatia'
p1705
sg37
Nsba(i__main__
Player
p1706
(dp1707
g23
(dp1708
g25
Nsg26
I81
sg27
Nsg28
Nsg29
Nsg30
Nsg31
Nssg5
S'A. Kramari\xc4\x87'
p1709
sg33
I26
sg19
Nsg34
Nsg35
S'Croatia'
p1710
sg37
Nsba(i__main__
Player
p1711
(dp1712
g23
(dp1713
g25
Nsg26
I81
sg27
Nsg28
Nsg29
Nsg30
Nsg31
Nssg5
S'D. Lovren'
p1714
sg33
I27
sg19
Nsg34
Nsg35
S'Croatia'
p1715
sg37
Nsba(i__main__
Player
p1716
(dp1717
g23
(dp1718
g25
Nsg26
I81
sg27
Nsg28
Nsg29
Nsg30
Nsg31
Nssg5
S'N. Kalini\xc4\x87'
p1719
sg33
I29
sg19
Nsg34
Nsg35
S'Croatia'
p1720
sg37
Nsba(i__main__
Player
p1721
(dp1722
g23
(dp1723
g25
Nsg26
I82
sg27
Nsg28
Nsg29
Nsg30
Nsg31
Nssg5
S'V. \xc4\x86orluka'
p1724
sg33
I31
sg19
Nsg34
Nsg35
S'Croatia'
p1725
sg37
Nsba(i__main__
Player
p1726
(dp1727
g23
(dp1728
g25
Nsg26
I82
sg27
Nsg28
Nsg29
Nsg30
Nsg31
Nssg5
S'M. Kova\xc4\x8di\xc4\x87'
p1729
sg33
I23
sg19
Nsg34
Nsg35
S'Croatia'
p1730
sg37
Nsba(i__main__
Player
p1731
(dp1732
g23
(dp1733
g25
Nsg26
I83
sg27
Nsg28
Nsg29
Nsg30
Nsg31
Nssg5
S'M. Mand\xc5\xbeuki\xc4\x87'
p1734
sg33
I31
sg19
Nsg34
Nsg35
S'Croatia'
p1735
sg37
Nsba(i__main__
Player
p1736
(dp1737
g23
(dp1738
g25
Nsg26
I84
sg27
Nsg28
Nsg29
Nsg30
Nsg31
Nssg5
S'I. Peri\xc5\xa1i\xc4\x87'
p1739
sg33
I28
sg19
Nsg34
Nsg35
S'Croatia'
p1740
sg37
Nsba(i__main__
Player
p1741
(dp1742
g23
(dp1743
g25
Nsg26
I85
sg27
Nsg28
Nsg29
Nsg30
Nsg31
Nssg5
S'D. Suba\xc5\xa1i\xc4\x87'
p1744
sg33
I32
sg19
Nsg34
Nsg35
S'Croatia'
p1745
sg37
Nsba(i__main__
Player
p1746
(dp1747
g23
(dp1748
g25
Nsg26
I87
sg27
Nsg28
Nsg29
Nsg30
Nsg31
Nssg5
S'I. Rakiti\xc4\x87'
p1749
sg33
I29
sg19
Nsg34
Nsg35
S'Croatia'
p1750
sg37
Nsbasg148
I2
sg149
F15.0
sba(i__main__
Team
p1751
(dp1752
g11
Nsg5
S'Nigeria'
p1753
sg13
F142.00133333333332
sg14
I70
sg15
I1
sg16
I50
sg17
Nsg18
I3
sg19
(lp1754
(i__main__
Player
p1755
(dp1756
g23
(dp1757
g25
Nsg26
I64
sg27
Nsg28
Nsg29
Nsg30
Nsg31
Nssg5
S'I. Abdullahi'
p1758
sg33
I20
sg19
Nsg34
Nsg35
S'Nigeria'
p1759
sg37
Nsba(i__main__
Player
p1760
(dp1761
g23
(dp1762
g25
Nsg26
I66
sg27
Nsg28
Nsg29
Nsg30
Nsg31
Nssg5
S'T. Ebuehi'
p1763
sg33
I21
sg19
Nsg34
Nsg35
S'Nigeria'
p1764
sg37
Nsba(i__main__
Player
p1765
(dp1766
g23
(dp1767
g25
Nsg26
I69
sg27
Nsg28
Nsg29
Nsg30
Nsg31
Nssg5
S'S. Abdullahi'
p1768
sg33
I20
sg19
Nsg34
Nsg35
S'Nigeria'
p1769
sg37
Nsba(i__main__
Player
p1770
(dp1771
g23
(dp1772
g25
Nsg26
I71
sg27
Nsg28
Nsg29
Nsg30
Nsg31
Nssg5
S'E. Echi\xc3\xa9jil\xc3\xa9'
p1773
sg33
I29
sg19
Nsg34
Nsg35
S'Nigeria'
p1774
sg37
Nsba(i__main__
Player
p1775
(dp1776
g23
(dp1777
g25
Nsg26
I71
sg27
Nsg28
Nsg29
Nsg30
Nsg31
Nssg5
S'W. Troost-Ekong'
p1778
sg33
I23
sg19
Nsg34
Nsg35
S'Nigeria'
p1779
sg37
Nsba(i__main__
Player
p1780
(dp1781
g23
(dp1782
g25
Nsg26
I71
sg27
Nsg28
Nsg29
Nsg30
Nsg31
Nssg5
S'C. Awaziem'
p1783
sg33
I20
sg19
Nsg34
Nsg35
S'Nigeria'
p1784
sg37
Nsba(i__main__
Player
p1785
(dp1786
g23
(dp1787
g25
Nsg26
I72
sg27
Nsg28
Nsg29
Nsg30
Nsg31
Nssg5
S'K. Omeruo'
p1788
sg33
I23
sg19
Nsg34
Nsg35
S'Nigeria'
p1789
sg37
Nsba(i__main__
Player
p1790
(dp1791
g23
(dp1792
g25
Nsg26
I72
sg27
Nsg28
Nsg29
Nsg30
Nsg31
Nssg5
g81
sg33
I22
sg19
Nsg34
Nsg35
g1753
sg37
Nsba(i__main__
Player
p1793
(dp1794
g23
(dp1795
g25
Nsg26
I72
sg27
Nsg28
Nsg29
Nsg30
Nsg31
Nssg5
g81
sg33
I22
sg19
Nsg34
Nsg35
g1753
sg37
Nsba(i__main__
Player
p1796
(dp1797
g23
(dp1798
g25
Nsg26
I72
sg27
Nsg28
Nsg29
Nsg30
Nsg31
Nssg5
g81
sg33
I22
sg19
Nsg34
Nsg35
g1753
sg37
Nsba(i__main__
Player
p1799
(dp1800
g23
(dp1801
g25
Nsg26
I72
sg27
Nsg28
Nsg29
Nsg30
Nsg31
Nssg5
g81
sg33
I22
sg19
Nsg34
Nsg35
g1753
sg37
Nsbasg85
I72
sg86
(lp1802
g1760
ag1765
ag1770
ag1775
ag1780
ag1785
ag1790
ag1793
ag1796
ag1799
a(i__main__
Player
p1803
(dp1804
g23
(dp1805
g25
Nsg26
I72
sg27
Nsg28
Nsg29
Nsg30
Nsg31
Nssg5
g81
sg33
I22
sg19
Nsg34
Nsg35
g1753
sg37
Nsbag1803
a(i__main__
Player
p1806
(dp1807
g23
(dp1808
g25
Nsg26
I72
sg27
Nsg28
Nsg29
Nsg30
Nsg31
Nssg5
g81
sg33
I22
sg19
Nsg34
Nsg35
g1753
sg37
Nsba(i__main__
Player
p1809
(dp1810
g23
(dp1811
g25
Nsg26
I72
sg27
Nsg28
Nsg29
Nsg30
Nsg31
Nssg5
g81
sg33
I22
sg19
Nsg34
Nsg35
g1753
sg37
Nsba(i__main__
Player
p1812
(dp1813
g23
(dp1814
g25
Nsg26
I73
sg27
Nsg28
Nsg29
Nsg30
Nsg31
Nssg5
S'J. Obi'
p1815
sg33
I26
sg19
Nsg34
Nsg35
S'Nigeria'
p1816
sg37
Nsba(i__main__
Player
p1817
(dp1818
g23
(dp1819
g25
Nsg26
I73
sg27
Nsg28
Nsg29
Nsg30
Nsg31
Nssg5
S'P. Etebo'
p1820
sg33
I21
sg19
Nsg34
Nsg35
S'Nigeria'
p1821
sg37
Nsba(i__main__
Player
p1822
(dp1823
g23
(dp1824
g25
Nsg26
I74
sg27
Nsg28
Nsg29
Nsg30
Nsg31
Nssg5
S'O. Onazi'
p1825
sg33
I24
sg19
Nsg34
Nsg35
S'Nigeria'
p1826
sg37
Nsba(i__main__
Player
p1827
(dp1828
g23
(dp1829
g25
Nsg26
I74
sg27
Nsg28
Nsg29
Nsg30
Nsg31
Nssg5
S'A. Iwobi'
p1830
sg33
I21
sg19
Nsg34
Nsg35
S'Nigeria'
p1831
sg37
Nsba(i__main__
Player
p1832
(dp1833
g23
(dp1834
g25
Nsg26
I75
sg27
Nsg28
Nsg29
Nsg30
Nsg31
Nssg5
S'L. Balogun'
p1835
sg33
I29
sg19
Nsg34
Nsg35
S'Nigeria'
p1836
sg37
Nsba(i__main__
Player
p1837
(dp1838
g23
(dp1839
g25
Nsg26
I75
sg27
Nsg28
Nsg29
Nsg30
Nsg31
Nssg5
S'K. Iheanacho'
p1840
sg33
I20
sg19
Nsg34
Nsg35
S'Nigeria'
p1841
sg37
Nsba(i__main__
Player
p1842
(dp1843
g23
(dp1844
g25
Nsg26
I76
sg27
Nsg28
Nsg29
Nsg30
Nsg31
Nssg5
S'A. Musa'
p1845
sg33
I24
sg19
Nsg34
Nsg35
S'Nigeria'
p1846
sg37
Nsba(i__main__
Player
p1847
(dp1848
g23
(dp1849
g25
Nsg26
I77
sg27
Nsg28
Nsg29
Nsg30
Nsg31
Nssg5
S'O. Ndidi'
p1850
sg33
I20
sg19
Nsg34
Nsg35
S'Nigeria'
p1851
sg37
Nsba(i__main__
Player
p1852
(dp1853
g23
(dp1854
g25
Nsg26
I79
sg27
Nsg28
Nsg29
Nsg30
Nsg31
Nssg5
S'V. Moses'
p1855
sg33
I26
sg19
Nsg34
Nsg35
S'Nigeria'
p1856
sg37
Nsbasg148
I2
sg149
F750.0
sbasba(i__main__
Group
p1857
(dp1858
g3
(lp1859
I0
aI0
aI0
aI0
asg5
S'Group E'
p1860
sg7
(lp1861
(i__main__
Team
p1862
(dp1863
g11
Nsg5
S'Brazil'
p1864
sg13
F161.1904761904762
sg14
I79
sg15
I1
sg16
I2
sg17
Nsg18
I3
sg19
(lp1865
(i__main__
Player
p1866
(dp1867
g23
(dp1868
g25
Nsg26
I75
sg27
Nsg28
Nsg29
Nsg30
Nsg31
Nssg5
S'C\xc3\xa1ssio'
p1869
sg33
I36
sg19
Nsg34
Nsg35
S'Brazil'
p1870
sg37
Nsba(i__main__
Player
p1871
(dp1872
g23
(dp1873
g25
Nsg26
I77
sg27
Nsg28
Nsg29
Nsg30
Nsg31
Nssg5
S'Juan Jesus'
p1874
sg33
I26
sg19
Nsg34
Nsg35
S'Brazil'
p1875
sg37
Nsba(i__main__
Player
p1876
(dp1877
g23
(dp1878
g25
Nsg26
I78
sg27
Nsg28
Nsg29
Nsg30
Nsg31
Nssg5
S'Danilo'
p1879
sg33
I25
sg19
Nsg34
Nsg35
S'Brazil'
p1880
sg37
Nsba(i__main__
Player
p1881
(dp1882
g23
(dp1883
g25
Nsg26
I78
sg27
Nsg28
Nsg29
Nsg30
Nsg31
Nssg5
S'Danilo'
p1884
sg33
I25
sg19
Nsg34
Nsg35
S'Brazil'
p1885
sg37
Nsba(i__main__
Player
p1886
(dp1887
g23
(dp1888
g25
Nsg26
I79
sg27
Nsg28
Nsg29
Nsg30
Nsg31
Nssg5
S'Danilo'
p1889
sg33
I33
sg19
Nsg34
Nsg35
S'Brazil'
p1890
sg37
Nsba(i__main__
Player
p1891
(dp1892
g23
(dp1893
g25
Nsg26
I80
sg27
Nsg28
Nsg29
Nsg30
Nsg31
Nssg5
S'Alisson'
p1894
sg33
I24
sg19
Nsg34
Nsg35
S'Brazil'
p1895
sg37
Nsba(i__main__
Player
p1896
(dp1897
g23
(dp1898
g25
Nsg26
I80
sg27
Nsg28
Nsg29
Nsg30
Nsg31
Nssg5
S'Fred'
p1899
sg33
I24
sg19
Nsg34
Nsg35
S'Brazil'
p1900
sg37
Nsba(i__main__
Player
p1901
(dp1902
g23
(dp1903
g25
Nsg26
I80
sg27
Nsg28
Nsg29
Nsg30
Nsg31
Nssg5
S'Renato Augusto'
p1904
sg33
I29
sg19
Nsg34
Nsg35
S'Brazil'
p1905
sg37
Nsba(i__main__
Player
p1906
(dp1907
g23
(dp1908
g25
Nsg26
I81
sg27
Nsg28
Nsg29
Nsg30
Nsg31
Nssg5
S'Gabriel Jesus'
p1909
sg33
I20
sg19
Nsg34
Nsg35
S'Brazil'
p1910
sg37
Nsba(i__main__
Player
p1911
(dp1912
g23
(dp1913
g25
Nsg26
I81
sg27
Nsg28
Nsg29
Nsg30
Nsg31
Nssg5
S'Paulinho'
p1914
sg33
I28
sg19
Nsg34
Nsg35
S'Brazil'
p1915
sg37
Nsba(i__main__
Player
p1916
(dp1917
g23
(dp1918
g25
Nsg26
I82
sg27
Nsg28
Nsg29
Nsg30
Nsg31
Nssg5
S'Douglas Costa'
p1919
sg33
I26
sg19
Nsg34
Nsg35
S'Brazil'
p1920
sg37
Nsbasg85
I82
sg86
(lp1921
g1871
ag1876
ag1881
ag1886
ag1891
ag1896
ag1901
ag1906
ag1911
ag1916
a(i__main__
Player
p1922
(dp1923
g23
(dp1924
g25
Nsg26
I82
sg27
Nsg28
Nsg29
Nsg30
Nsg31
Nssg5
S'Taison'
p1925
sg33
I29
sg19
Nsg34
Nsg35
S'Brazil'
p1926
sg37
Nsbag1922
a(i__main__
Player
p1927
(dp1928
g23
(dp1929
g25
Nsg26
I82
sg27
Nsg28
Nsg29
Nsg30
Nsg31
Nssg5
S'Fernandinho'
p1930
sg33
I32
sg19
Nsg34
Nsg35
S'Brazil'
p1931
sg37
Nsba(i__main__
Player
p1932
(dp1933
g23
(dp1934
g25
Nsg26
I83
sg27
Nsg28
Nsg29
Nsg30
Nsg31
Nssg5
S'Marquinhos'
p1935
sg33
I23
sg19
Nsg34
Nsg35
S'Brazil'
p1936
sg37
Nsba(i__main__
Player
p1937
(dp1938
g23
(dp1939
g25
Nsg26
I83
sg27
Nsg28
Nsg29
Nsg30
Nsg31
Nssg5
S'Roberto Firmino'
p1940
sg33
I25
sg19
Nsg34
Nsg35
S'Brazil'
p1941
sg37
Nsba(i__main__
Player
p1942
(dp1943
g23
(dp1944
g25
Nsg26
I83
sg27
Nsg28
Nsg29
Nsg30
Nsg31
Nssg5
S'Ederson'
p1945
sg33
I23
sg19
Nsg34
Nsg35
S'Brazil'
p1946
sg37
Nsba(i__main__
Player
p1947
(dp1948
g23
(dp1949
g25
Nsg26
I84
sg27
Nsg28
Nsg29
Nsg30
Nsg31
Nssg5
S'Willian'
p1950
sg33
I28
sg19
Nsg34
Nsg35
S'Brazil'
p1951
sg37
Nsba(i__main__
Player
p1952
(dp1953
g23
(dp1954
g25
Nsg26
I85
sg27
Nsg28
Nsg29
Nsg30
Nsg31
Nssg5
S'Filipe Lu\xc3\xads'
p1955
sg33
I31
sg19
Nsg34
Nsg35
S'Brazil'
p1956
sg37
Nsba(i__main__
Player
p1957
(dp1958
g23
(dp1959
g25
Nsg26
I85
sg27
Nsg28
Nsg29
Nsg30
Nsg31
Nssg5
S'Casemiro'
p1960
sg33
I25
sg19
Nsg34
Nsg35
S'Brazil'
p1961
sg37
Nsba(i__main__
Player
p1962
(dp1963
g23
(dp1964
g25
Nsg26
I86
sg27
Nsg28
Nsg29
Nsg30
Nsg31
Nssg5
S'Coutinho'
p1965
sg33
I25
sg19
Nsg34
Nsg35
S'Brazil'
p1966
sg37
Nsba(i__main__
Player
p1967
(dp1968
g23
(dp1969
g25
Nsg26
I86
sg27
Nsg28
Nsg29
Nsg30
Nsg31
Nssg5
S'Miranda'
p1970
sg33
I32
sg19
Nsg34
Nsg35
S'Brazil'
p1971
sg37
Nsba(i__main__
Player
p1972
(dp1973
g23
(dp1974
g25
Nsg26
I88
sg27
Nsg28
Nsg29
Nsg30
Nsg31
Nssg5
S'Thiago Silva'
p1975
sg33
I32
sg19
Nsg34
Nsg35
S'Brazil'
p1976
sg37
Nsba(i__main__
Player
p1977
(dp1978
g23
(dp1979
g25
Nsg26
I92
sg27
Nsg28
Nsg29
Nsg30
Nsg31
Nssg5
S'Neymar'
p1980
sg33
I25
sg19
Nsg34
Nsg35
S'Brazil'
p1981
sg37
Nsbasg148
I2
sg149
F5.25
sba(i__main__
Team
p1982
(dp1983
g11
Nsg5
S'Switzerland'
p1984
sg13
F148.01
sg14
I72
sg15
I1
sg16
I8
sg17
Nsg18
I3
sg19
(lp1985
(i__main__
Player
p1986
(dp1987
g23
(dp1988
g25
Nsg26
I68
sg27
Nsg28
Nsg29
Nsg30
Nsg31
Nssg5
S'F. Rodr\xc3\xadguez'
p1989
sg33
I21
sg19
Nsg34
Nsg35
S'Switzerland'
p1990
sg37
Nsba(i__main__
Player
p1991
(dp1992
g23
(dp1993
g25
Nsg26
I69
sg27
Nsg28
Nsg29
Nsg30
Nsg31
Nssg5
S'E. Fernandes'
p1994
sg33
I21
sg19
Nsg34
Nsg35
S'Switzerland'
p1995
sg37
Nsba(i__main__
Player
p1996
(dp1997
g23
(dp1998
g25
Nsg26
I72
sg27
Nsg28
Nsg29
Nsg30
Nsg31
Nssg5
S'M. Akanji'
p1999
sg33
I21
sg19
Nsg34
Nsg35
S'Switzerland'
p2000
sg37
Nsba(i__main__
Player
p2001
(dp2002
g23
(dp2003
g25
Nsg26
I72
sg27
Nsg28
Nsg29
Nsg30
Nsg31
Nssg5
S'D. Zakaria'
p2004
sg33
I20
sg19
Nsg34
Nsg35
S'Switzerland'
p2005
sg37
Nsba(i__main__
Player
p2006
(dp2007
g23
(dp2008
g25
Nsg26
I73
sg27
Nsg28
Nsg29
Nsg30
Nsg31
Nssg5
S'J. Djourou'
p2009
sg33
I30
sg19
Nsg34
Nsg35
S'Switzerland'
p2010
sg37
Nsba(i__main__
Player
p2011
(dp2012
g23
(dp2013
g25
Nsg26
I74
sg27
Nsg28
Nsg29
Nsg30
Nsg31
Nssg5
S'N. Elvedi'
p2014
sg33
I20
sg19
Nsg34
Nsg35
S'Switzerland'
p2015
sg37
Nsba(i__main__
Player
p2016
(dp2017
g23
(dp2018
g25
Nsg26
I74
sg27
Nsg28
Nsg29
Nsg30
Nsg31
Nssg5
S'J. Drmi\xc4\x87'
p2019
sg33
I24
sg19
Nsg34
Nsg35
S'Switzerland'
p2020
sg37
Nsba(i__main__
Player
p2021
(dp2022
g23
(dp2023
g25
Nsg26
I74
sg27
Nsg28
Nsg29
Nsg30
Nsg31
Nssg5
S'H. Seferovi\xc4\x87'
p2024
sg33
I25
sg19
Nsg34
Nsg35
S'Switzerland'
p2025
sg37
Nsba(i__main__
Player
p2026
(dp2027
g23
(dp2028
g25
Nsg26
I74
sg27
Nsg28
Nsg29
Nsg30
Nsg31
Nssg5
S'F. Moubandje'
p2029
sg33
I27
sg19
Nsg34
Nsg35
S'Switzerland'
p2030
sg37
Nsba(i__main__
Player
p2031
(dp2032
g23
(dp2033
g25
Nsg26
I75
sg27
Nsg28
Nsg29
Nsg30
Nsg31
Nssg5
S'R. Freuler'
p2034
sg33
I25
sg19
Nsg34
Nsg35
S'Switzerland'
p2035
sg37
Nsba(i__main__
Player
p2036
(dp2037
g23
(dp2038
g25
Nsg26
I75
sg27
Nsg28
Nsg29
Nsg30
Nsg31
Nssg5
S'S. Zuber'
p2039
sg33
I25
sg19
Nsg34
Nsg35
S'Switzerland'
p2040
sg37
Nsbasg85
I76
sg86
(lp2041
g1991
ag1996
ag2001
ag2006
ag2011
ag2016
ag2021
ag2026
ag2031
ag2036
a(i__main__
Player
p2042
(dp2043
g23
(dp2044
g25
Nsg26
I75
sg27
Nsg28
Nsg29
Nsg30
Nsg31
Nssg5
S'F. Sch\xc3\xa4r'
p2045
sg33
I25
sg19
Nsg34
Nsg35
S'Switzerland'
p2046
sg37
Nsbag2042
a(i__main__
Player
p2047
(dp2048
g23
(dp2049
g25
Nsg26
I75
sg27
Nsg28
Nsg29
Nsg30
Nsg31
Nssg5
S'Y. Mvogo'
p2050
sg33
I23
sg19
Nsg34
Nsg35
S'Switzerland'
p2051
sg37
Nsba(i__main__
Player
p2052
(dp2053
g23
(dp2054
g25
Nsg26
I76
sg27
Nsg28
Nsg29
Nsg30
Nsg31
Nssg5
S'Gelson Fernandes'
p2055
sg33
I30
sg19
Nsg34
Nsg35
S'Switzerland'
p2056
sg37
Nsba(i__main__
Player
p2057
(dp2058
g23
(dp2059
g25
Nsg26
I76
sg27
Nsg28
Nsg29
Nsg30
Nsg31
Nssg5
S'B. Embolo'
p2060
sg33
I20
sg19
Nsg34
Nsg35
S'Switzerland'
p2061
sg37
Nsba(i__main__
Player
p2062
(dp2063
g23
(dp2064
g25
Nsg26
I77
sg27
Nsg28
Nsg29
Nsg30
Nsg31
Nssg5
S'V. Behrami'
p2065
sg33
I32
sg19
Nsg34
Nsg35
S'Switzerland'
p2066
sg37
Nsba(i__main__
Player
p2067
(dp2068
g23
(dp2069
g25
Nsg26
I77
sg27
Nsg28
Nsg29
Nsg30
Nsg31
Nssg5
S'M. Lang'
p2070
sg33
I26
sg19
Nsg34
Nsg35
S'Switzerland'
p2071
sg37
Nsba(i__main__
Player
p2072
(dp2073
g23
(dp2074
g25
Nsg26
I78
sg27
Nsg28
Nsg29
Nsg30
Nsg31
Nssg5
S'B. D\xc5\xbeemaili'
p2075
sg33
I31
sg19
Nsg34
Nsg35
S'Switzerland'
p2076
sg37
Nsba(i__main__
Player
p2077
(dp2078
g23
(dp2079
g25
Nsg26
I81
sg27
Nsg28
Nsg29
Nsg30
Nsg31
Nssg5
S'R. Rodr\xc3\xadguez'
p2080
sg33
I24
sg19
Nsg34
Nsg35
S'Switzerland'
p2081
sg37
Nsba(i__main__
Player
p2082
(dp2083
g23
(dp2084
g25
Nsg26
I82
sg27
Nsg28
Nsg29
Nsg30
Nsg31
Nssg5
S'G. Xhaka'
p2085
sg33
I24
sg19
Nsg34
Nsg35
S'Switzerland'
p2086
sg37
Nsba(i__main__
Player
p2087
(dp2088
g23
(dp2089
g25
Nsg26
I82
sg27
Nsg28
Nsg29
Nsg30
Nsg31
Nssg5
S'X. Shaqiri'
p2090
sg33
I25
sg19
Nsg34
Nsg35
S'Switzerland'
p2091
sg37
Nsba(i__main__
Player
p2092
(dp2093
g23
(dp2094
g25
Nsg26
I83
sg27
Nsg28
Nsg29
Nsg30
Nsg31
Nssg5
S'Y. Sommer'
p2095
sg33
I28
sg19
Nsg34
Nsg35
S'Switzerland'
p2096
sg37
Nsba(i__main__
Player
p2097
(dp2098
g23
(dp2099
g25
Nsg26
I84
sg27
Nsg28
Nsg29
Nsg30
Nsg31
Nssg5
S'R. B\xc3\xbcrki'
p2100
sg33
I26
sg19
Nsg34
Nsg35
S'Switzerland'
p2101
sg37
Nsbasg148
I2
sg149
F100.0
sba(i__main__
Team
p2102
(dp2103
g11
Nsg5
S'Costa Rica'
p2104
sg13
F142.00133333333332
sg14
I70
sg15
I1
sg16
I26
sg17
Nsg18
I3
sg19
(lp2105
(i__main__
Player
p2106
(dp2107
g23
(dp2108
g25
Nsg26
I67
sg27
Nsg28
Nsg29
Nsg30
Nsg31
Nssg5
S'J. Venegas'
p2109
sg33
I28
sg19
Nsg34
Nsg35
S'Costa Rica'
p2110
sg37
Nsba(i__main__
Player
p2111
(dp2112
g23
(dp2113
g25
Nsg26
I68
sg27
Nsg28
Nsg29
Nsg30
Nsg31
Nssg5
S'R. Wallace'
p2114
sg33
I29
sg19
Nsg34
Nsg35
S'Costa Rica'
p2115
sg37
Nsba(i__main__
Player
p2116
(dp2117
g23
(dp2118
g25
Nsg26
I68
sg27
Nsg28
Nsg29
Nsg30
Nsg31
Nssg5
S'M. Ure\xc3\xb1a'
p2119
sg33
I27
sg19
Nsg34
Nsg35
S'Costa Rica'
p2120
sg37
Nsba(i__main__
Player
p2121
(dp2122
g23
(dp2123
g25
Nsg26
I68
sg27
Nsg28
Nsg29
Nsg30
Nsg31
Nssg5
S'Y. Tejeda'
p2124
sg33
I25
sg19
Nsg34
Nsg35
S'Costa Rica'
p2125
sg37
Nsba(i__main__
Player
p2126
(dp2127
g23
(dp2128
g25
Nsg26
I71
sg27
Nsg28
Nsg29
Nsg30
Nsg31
Nssg5
S'F. Calvo'
p2129
sg33
I24
sg19
Nsg34
Nsg35
S'Costa Rica'
p2130
sg37
Nsba(i__main__
Player
p2131
(dp2132
g23
(dp2133
g25
Nsg26
I71
sg27
Nsg28
Nsg29
Nsg30
Nsg31
Nssg5
S'C. Bola\xc3\xb1os'
p2134
sg33
I33
sg19
Nsg34
Nsg35
S'Costa Rica'
p2135
sg37
Nsba(i__main__
Player
p2136
(dp2137
g23
(dp2138
g25
Nsg26
I71
sg27
Nsg28
Nsg29
Nsg30
Nsg31
Nssg5
S'B. Acosta'
p2139
sg33
I30
sg19
Nsg34
Nsg35
S'Costa Rica'
p2140
sg37
Nsba(i__main__
Player
p2141
(dp2142
g23
(dp2143
g25
Nsg26
I72
sg27
Nsg28
Nsg29
Nsg30
Nsg31
Nssg5
S'C. Gamboa'
p2144
sg33
I27
sg19
Nsg34
Nsg35
S'Costa Rica'
p2145
sg37
Nsba(i__main__
Player
p2146
(dp2147
g23
(dp2148
g25
Nsg26
I72
sg27
Nsg28
Nsg29
Nsg30
Nsg31
Nssg5
S'B. Oviedo'
p2149
sg33
I27
sg19
Nsg34
Nsg35
S'Costa Rica'
p2150
sg37
Nsba(i__main__
Player
p2151
(dp2152
g23
(dp2153
g25
Nsg26
I72
sg27
Nsg28
Nsg29
Nsg30
Nsg31
Nssg5
g81
sg33
I27
sg19
Nsg34
Nsg35
g2104
sg37
Nsba(i__main__
Player
p2154
(dp2155
g23
(dp2156
g25
Nsg26
I72
sg27
Nsg28
Nsg29
Nsg30
Nsg31
Nssg5
g81
sg33
I27
sg19
Nsg34
Nsg35
g2104
sg37
Nsbasg85
I72
sg86
(lp2157
g2111
ag2116
ag2121
ag2126
ag2131
ag2136
ag2141
ag2146
ag2151
ag2154
a(i__main__
Player
p2158
(dp2159
g23
(dp2160
g25
Nsg26
I72
sg27
Nsg28
Nsg29
Nsg30
Nsg31
Nssg5
g81
sg33
I27
sg19
Nsg34
Nsg35
g2104
sg37
Nsbag2158
a(i__main__
Player
p2161
(dp2162
g23
(dp2163
g25
Nsg26
I72
sg27
Nsg28
Nsg29
Nsg30
Nsg31
Nssg5
g81
sg33
I27
sg19
Nsg34
Nsg35
g2104
sg37
Nsba(i__main__
Player
p2164
(dp2165
g23
(dp2166
g25
Nsg26
I72
sg27
Nsg28
Nsg29
Nsg30
Nsg31
Nssg5
g81
sg33
I27
sg19
Nsg34
Nsg35
g2104
sg37
Nsba(i__main__
Player
p2167
(dp2168
g23
(dp2169
g25
Nsg26
I72
sg27
Nsg28
Nsg29
Nsg30
Nsg31
Nssg5
g81
sg33
I27
sg19
Nsg34
Nsg35
g2104
sg37
Nsba(i__main__
Player
p2170
(dp2171
g23
(dp2172
g25
Nsg26
I72
sg27
Nsg28
Nsg29
Nsg30
Nsg31
Nssg5
g81
sg33
I27
sg19
Nsg34
Nsg35
g2104
sg37
Nsba(i__main__
Player
p2173
(dp2174
g23
(dp2175
g25
Nsg26
I72
sg27
Nsg28
Nsg29
Nsg30
Nsg31
Nssg5
g81
sg33
I27
sg19
Nsg34
Nsg35
g2104
sg37
Nsba(i__main__
Player
p2176
(dp2177
g23
(dp2178
g25
Nsg26
I72
sg27
Nsg28
Nsg29
Nsg30
Nsg31
Nssg5
g81
sg33
I27
sg19
Nsg34
Nsg35
g2104
sg37
Nsba(i__main__
Player
p2179
(dp2180
g23
(dp2181
g25
Nsg26
I74
sg27
Nsg28
Nsg29
Nsg30
Nsg31
Nssg5
S'K. Waston'
p2182
sg33
I29
sg19
Nsg34
Nsg35
S'Costa Rica'
p2183
sg37
Nsba(i__main__
Player
p2184
(dp2185
g23
(dp2186
g25
Nsg26
I75
sg27
Nsg28
Nsg29
Nsg30
Nsg31
Nssg5
S'G. Gonz\xc3\xa1lez'
p2187
sg33
I29
sg19
Nsg34
Nsg35
S'Costa Rica'
p2188
sg37
Nsba(i__main__
Player
p2189
(dp2190
g23
(dp2191
g25
Nsg26
I77
sg27
Nsg28
Nsg29
Nsg30
Nsg31
Nssg5
S'O. Duarte'
p2192
sg33
I28
sg19
Nsg34
Nsg35
S'Costa Rica'
p2193
sg37
Nsba(i__main__
Player
p2194
(dp2195
g23
(dp2196
g25
Nsg26
I77
sg27
Nsg28
Nsg29
Nsg30
Nsg31
Nssg5
S'J. Campbell'
p2197
sg33
I25
sg19
Nsg34
Nsg35
S'Costa Rica'
p2198
sg37
Nsba(i__main__
Player
p2199
(dp2200
g23
(dp2201
g25
Nsg26
I85
sg27
Nsg28
Nsg29
Nsg30
Nsg31
Nssg5
S'K. Navas'
p2202
sg33
I30
sg19
Nsg34
Nsg35
S'Costa Rica'
p2203
sg37
Nsbasg148
I2
sg149
F750.0
sba(i__main__
Team
p2204
(dp2205
g11
Nsg5
S'Serbia'
p2206
sg13
F146.01
sg14
I71
sg15
I1
sg16
I37
sg17
Nsg18
I3
sg19
(lp2207
(i__main__
Player
p2208
(dp2209
g23
(dp2210
g25
Nsg26
I69
sg27
Nsg28
Nsg29
Nsg30
Nsg31
Nssg5
S'V. Milinkovi\xc4\x87-Savi\xc4\x87'
p2211
sg33
I20
sg19
Nsg34
Nsg35
S'Serbia'
p2212
sg37
Nsba(i__main__
Player
p2213
(dp2214
g23
(dp2215
g25
Nsg26
I70
sg27
Nsg28
Nsg29
Nsg30
Nsg31
Nssg5
S'N. Milenkovi\xc4\x87'
p2216
sg33
I19
sg19
Nsg34
Nsg35
S'Serbia'
p2217
sg37
Nsba(i__main__
Player
p2218
(dp2219
g23
(dp2220
g25
Nsg26
I70
sg27
Nsg28
Nsg29
Nsg30
Nsg31
Nssg5
S'U. Mati\xc4\x87'
p2221
sg33
I27
sg19
Nsg34
Nsg35
S'Serbia'
p2222
sg37
Nsba(i__main__
Player
p2223
(dp2224
g23
(dp2225
g25
Nsg26
I70
sg27
Nsg28
Nsg29
Nsg30
Nsg31
Nssg5
S'L. Jovi\xc4\x87'
p2226
sg33
I19
sg19
Nsg34
Nsg35
S'Serbia'
p2227
sg37
Nsba(i__main__
Player
p2228
(dp2229
g23
(dp2230
g25
Nsg26
I71
sg27
Nsg28
Nsg29
Nsg30
Nsg31
Nssg5
S'M. Gruji\xc4\x87'
p2231
sg33
I21
sg19
Nsg34
Nsg35
S'Serbia'
p2232
sg37
Nsba(i__main__
Player
p2233
(dp2234
g23
(dp2235
g25
Nsg26
I73
sg27
Nsg28
Nsg29
Nsg30
Nsg31
Nssg5
S'U. Spaji\xc4\x87'
p2236
sg33
I24
sg19
Nsg34
Nsg35
S'Serbia'
p2237
sg37
Nsba(i__main__
Player
p2238
(dp2239
g23
(dp2240
g25
Nsg26
I73
sg27
Nsg28
Nsg29
Nsg30
Nsg31
Nssg5
S'S. Mitrovi\xc4\x87'
p2241
sg33
I27
sg19
Nsg34
Nsg35
S'Serbia'
p2242
sg37
Nsba(i__main__
Player
p2243
(dp2244
g23
(dp2245
g25
Nsg26
I73
sg27
Nsg28
Nsg29
Nsg30
Nsg31
Nssg5
S'M. Veljkovi\xc4\x87'
p2246
sg33
I21
sg19
Nsg34
Nsg35
S'Serbia'
p2247
sg37
Nsba(i__main__
Player
p2248
(dp2249
g23
(dp2250
g25
Nsg26
I74
sg27
Nsg28
Nsg29
Nsg30
Nsg31
Nssg5
S'A. Prijovi\xc4\x87'
p2251
sg33
I27
sg19
Nsg34
Nsg35
S'Serbia'
p2252
sg37
Nsba(i__main__
Player
p2253
(dp2254
g23
(dp2255
g25
Nsg26
I74
sg27
Nsg28
Nsg29
Nsg30
Nsg31
Nssg5
S'M. Dmitrovi\xc4\x87'
p2256
sg33
I25
sg19
Nsg34
Nsg35
S'Serbia'
p2257
sg37
Nsba(i__main__
Player
p2258
(dp2259
g23
(dp2260
g25
Nsg26
I74
sg27
Nsg28
Nsg29
Nsg30
Nsg31
Nssg5
S'D. To\xc5\xa1i\xc4\x87'
p2261
sg33
I32
sg19
Nsg34
Nsg35
S'Serbia'
p2262
sg37
Nsbasg85
I75
sg86
(lp2263
g2213
ag2218
ag2223
ag2228
ag2233
ag2238
ag2243
ag2248
ag2253
ag2258
a(i__main__
Player
p2264
(dp2265
g23
(dp2266
g25
Nsg26
I75
sg27
Nsg28
Nsg29
Nsg30
Nsg31
Nssg5
S'A. Mitrovi\xc4\x87'
p2267
sg33
I22
sg19
Nsg34
Nsg35
S'Serbia'
p2268
sg37
Nsbag2264
a(i__main__
Player
p2269
(dp2270
g23
(dp2271
g25
Nsg26
I75
sg27
Nsg28
Nsg29
Nsg30
Nsg31
Nssg5
S'S. Rajkovi\xc4\x87'
p2272
sg33
I28
sg19
Nsg34
Nsg35
S'Serbia'
p2273
sg37
Nsba(i__main__
Player
p2274
(dp2275
g23
(dp2276
g25
Nsg26
I77
sg27
Nsg28
Nsg29
Nsg30
Nsg31
Nssg5
S'L. Milivojevi\xc4\x87'
p2277
sg33
I26
sg19
Nsg34
Nsg35
S'Serbia'
p2278
sg37
Nsba(i__main__
Player
p2279
(dp2280
g23
(dp2281
g25
Nsg26
I77
sg27
Nsg28
Nsg29
Nsg30
Nsg31
Nssg5
S'A. \xc5\xbdivkovi\xc4\x87'
p2282
sg33
I20
sg19
Nsg34
Nsg35
S'Serbia'
p2283
sg37
Nsba(i__main__
Player
p2284
(dp2285
g23
(dp2286
g25
Nsg26
I77
sg27
Nsg28
Nsg29
Nsg30
Nsg31
Nssg5
S'A. Rukavina'
p2287
sg33
I33
sg19
Nsg34
Nsg35
S'Serbia'
p2288
sg37
Nsba(i__main__
Player
p2289
(dp2290
g23
(dp2291
g25
Nsg26
I78
sg27
Nsg28
Nsg29
Nsg30
Nsg31
Nssg5
S'F. Kosti\xc4\x87'
p2292
sg33
I24
sg19
Nsg34
Nsg35
S'Serbia'
p2293
sg37
Nsba(i__main__
Player
p2294
(dp2295
g23
(dp2296
g25
Nsg26
I78
sg27
Nsg28
Nsg29
Nsg30
Nsg31
Nssg5
S'F. Kosti\xc4\x87'
p2297
sg33
I24
sg19
Nsg34
Nsg35
S'Serbia'
p2298
sg37
Nsba(i__main__
Player
p2299
(dp2300
g23
(dp2301
g25
Nsg26
I79
sg27
Nsg28
Nsg29
Nsg30
Nsg31
Nssg5
S'A. Ljaji\xc4\x87'
p2302
sg33
I25
sg19
Nsg34
Nsg35
S'Serbia'
p2303
sg37
Nsba(i__main__
Player
p2304
(dp2305
g23
(dp2306
g25
Nsg26
I80
sg27
Nsg28
Nsg29
Nsg30
Nsg31
Nssg5
S'S. Milinkovi\xc4\x87-Savi\xc4\x87'
p2307
sg33
I22
sg19
Nsg34
Nsg35
S'Serbia'
p2308
sg37
Nsba(i__main__
Player
p2309
(dp2310
g23
(dp2311
g25
Nsg26
I80
sg27
Nsg28
Nsg29
Nsg30
Nsg31
Nssg5
S'D. Tadi\xc4\x87'
p2312
sg33
I28
sg19
Nsg34
Nsg35
S'Serbia'
p2313
sg37
Nsba(i__main__
Player
p2314
(dp2315
g23
(dp2316
g25
Nsg26
I82
sg27
Nsg28
Nsg29
Nsg30
Nsg31
Nssg5
S'B. Ivanovi\xc4\x87'
p2317
sg33
I33
sg19
Nsg34
Nsg35
S'Serbia'
p2318
sg37
Nsba(i__main__
Player
p2319
(dp2320
g23
(dp2321
g25
Nsg26
I83
sg27
Nsg28
Nsg29
Nsg30
Nsg31
Nssg5
S'N. Mati\xc4\x87'
p2322
sg33
I28
sg19
Nsg34
Nsg35
S'Serbia'
p2323
sg37
Nsbasg148
I2
sg149
F100.0
sbasba(i__main__
Group
p2324
(dp2325
g3
(lp2326
I0
aI0
aI0
aI0
asg5
S'Group F'
p2327
sg7
(lp2328
(i__main__
Team
p2329
(dp2330
g11
Nsg5
S'Germany'
p2331
sg13
F162.11111111111111
sg14
I79
sg15
I1
sg16
I1
sg17
Nsg18
I3
sg19
(lp2332
(i__main__
Player
p2333
(dp2334
g23
(dp2335
g25
Nsg26
I73
sg27
Nsg28
Nsg29
Nsg30
Nsg31
Nssg5
S'F. Kroos'
p2336
sg33
I26
sg19
Nsg34
Nsg35
S'Germany'
p2337
sg37
Nsba(i__main__
Player
p2338
(dp2339
g23
(dp2340
g25
Nsg26
I78
sg27
Nsg28
Nsg29
Nsg30
Nsg31
Nssg5
S'M. Ginter'
p2341
sg33
I23
sg19
Nsg34
Nsg35
S'Germany'
p2342
sg37
Nsba(i__main__
Player
p2343
(dp2344
g23
(dp2345
g25
Nsg26
I78
sg27
Nsg28
Nsg29
Nsg30
Nsg31
Nssg5
S'M. Ginter'
p2346
sg33
I23
sg19
Nsg34
Nsg35
S'Germany'
p2347
sg37
Nsba(i__main__
Player
p2348
(dp2349
g23
(dp2350
g25
Nsg26
I80
sg27
Nsg28
Nsg29
Nsg30
Nsg31
Nssg5
S'J. Brandt'
p2351
sg33
I21
sg19
Nsg34
Nsg35
S'Germany'
p2352
sg37
Nsba(i__main__
Player
p2353
(dp2354
g23
(dp2355
g25
Nsg26
I80
sg27
Nsg28
Nsg29
Nsg30
Nsg31
Nssg5
S'J. Hector'
p2356
sg33
I27
sg19
Nsg34
Nsg35
S'Germany'
p2357
sg37
Nsba(i__main__
Player
p2358
(dp2359
g23
(dp2360
g25
Nsg26
I81
sg27
Nsg28
Nsg29
Nsg30
Nsg31
Nssg5
S'J. Kimmich'
p2361
sg33
I22
sg19
Nsg34
Nsg35
S'Germany'
p2362
sg37
Nsba(i__main__
Player
p2363
(dp2364
g23
(dp2365
g25
Nsg26
I81
sg27
Nsg28
Nsg29
Nsg30
Nsg31
Nssg5
S'S. Rudy'
p2366
sg33
I27
sg19
Nsg34
Nsg35
S'Germany'
p2367
sg37
Nsba(i__main__
Player
p2368
(dp2369
g23
(dp2370
g25
Nsg26
I82
sg27
Nsg28
Nsg29
Nsg30
Nsg31
Nssg5
S'T. Werner'
p2371
sg33
I21
sg19
Nsg34
Nsg35
S'Germany'
p2372
sg37
Nsba(i__main__
Player
p2373
(dp2374
g23
(dp2375
g25
Nsg26
I82
sg27
Nsg28
Nsg29
Nsg30
Nsg31
Nssg5
S'L. Goretzka'
p2376
sg33
I22
sg19
Nsg34
Nsg35
S'Germany'
p2377
sg37
Nsba(i__main__
Player
p2378
(dp2379
g23
(dp2380
g25
Nsg26
I82
sg27
Nsg28
Nsg29
Nsg30
Nsg31
Nssg5
S'A. R\xc3\xbcdiger'
p2381
sg33
I24
sg19
Nsg34
Nsg35
S'Germany'
p2382
sg37
Nsba(i__main__
Player
p2383
(dp2384
g23
(dp2385
g25
Nsg26
I82
sg27
Nsg28
Nsg29
Nsg30
Nsg31
Nssg5
S'K. Trapp'
p2386
sg33
I26
sg19
Nsg34
Nsg35
S'Germany'
p2387
sg37
Nsbasg85
I83
sg86
(lp2388
g2338
ag2343
ag2348
ag2353
ag2358
ag2363
ag2368
ag2373
ag2378
ag2383
a(i__main__
Player
p2389
(dp2390
g23
(dp2391
g25
Nsg26
I82
sg27
Nsg28
Nsg29
Nsg30
Nsg31
Nssg5
S'M. G\xc3\xb3mez'
p2392
sg33
I31
sg19
Nsg34
Nsg35
S'Germany'
p2393
sg37
Nsbag2389
a(i__main__
Player
p2394
(dp2395
g23
(dp2396
g25
Nsg26
I83
sg27
Nsg28
Nsg29
Nsg30
Nsg31
Nssg5
S'N. S\xc3\xbcle'
p2397
sg33
I21
sg19
Nsg34
Nsg35
S'Germany'
p2398
sg37
Nsba(i__main__
Player
p2399
(dp2400
g23
(dp2401
g25
Nsg26
I84
sg27
Nsg28
Nsg29
Nsg30
Nsg31
Nssg5
S'S. Khedira'
p2402
sg33
I30
sg19
Nsg34
Nsg35
S'Germany'
p2403
sg37
Nsba(i__main__
Player
p2404
(dp2405
g23
(dp2406
g25
Nsg26
I84
sg27
Nsg28
Nsg29
Nsg30
Nsg31
Nssg5
S'J. Draxler'
p2407
sg33
I23
sg19
Nsg34
Nsg35
S'Germany'
p2408
sg37
Nsba(i__main__
Player
p2409
(dp2410
g23
(dp2411
g25
Nsg26
I85
sg27
Nsg28
Nsg29
Nsg30
Nsg31
Nssg5
S'I. G\xc3\xbcndo\xc4\x9fan'
p2412
sg33
I26
sg19
Nsg34
Nsg35
S'Germany'
p2413
sg37
Nsba(i__main__
Player
p2414
(dp2415
g23
(dp2416
g25
Nsg26
I85
sg27
Nsg28
Nsg29
Nsg30
Nsg31
Nssg5
S'M. ter Stegen'
p2417
sg33
I25
sg19
Nsg34
Nsg35
S'Germany'
p2418
sg37
Nsba(i__main__
Player
p2419
(dp2420
g23
(dp2421
g25
Nsg26
I86
sg27
Nsg28
Nsg29
Nsg30
Nsg31
Nssg5
S'M. Reus'
p2422
sg33
I28
sg19
Nsg34
Nsg35
S'Germany'
p2423
sg37
Nsba(i__main__
Player
p2424
(dp2425
g23
(dp2426
g25
Nsg26
I86
sg27
Nsg28
Nsg29
Nsg30
Nsg31
Nssg5
S'T. M\xc3\xbcller'
p2427
sg33
I27
sg19
Nsg34
Nsg35
S'Germany'
p2428
sg37
Nsba(i__main__
Player
p2429
(dp2430
g23
(dp2431
g25
Nsg26
I88
sg27
Nsg28
Nsg29
Nsg30
Nsg31
Nssg5
S'M. \xc3\x96zil'
p2432
sg33
I28
sg19
Nsg34
Nsg35
S'Germany'
p2433
sg37
Nsba(i__main__
Player
p2434
(dp2435
g23
(dp2436
g25
Nsg26
I88
sg27
Nsg28
Nsg29
Nsg30
Nsg31
Nssg5
S'J. Boateng'
p2437
sg33
I28
sg19
Nsg34
Nsg35
S'Germany'
p2438
sg37
Nsba(i__main__
Player
p2439
(dp2440
g23
(dp2441
g25
Nsg26
I88
sg27
Nsg28
Nsg29
Nsg30
Nsg31
Nssg5
S'M. Hummels'
p2442
sg33
I28
sg19
Nsg34
Nsg35
S'Germany'
p2443
sg37
Nsba(i__main__
Player
p2444
(dp2445
g23
(dp2446
g25
Nsg26
I90
sg27
Nsg28
Nsg29
Nsg30
Nsg31
Nssg5
S'T. Kroos'
p2447
sg33
I27
sg19
Nsg34
Nsg35
S'Germany'
p2448
sg37
Nsbasg148
I2
sg149
F9.0
sba(i__main__
Team
p2449
(dp2450
g11
Nsg5
S'Mexico'
p2451
sg13
F152.025
sg14
I75
sg15
I1
sg16
I16
sg17
Nsg18
I3
sg19
(lp2452
(i__main__
Player
p2453
(dp2454
g23
(dp2455
g25
Nsg26
I72
sg27
Nsg28
Nsg29
Nsg30
Nsg31
Nssg5
S'E. Hern\xc3\xa1ndez'
p2456
sg33
I30
sg19
Nsg34
Nsg35
S'Mexico'
p2457
sg37
Nsba(i__main__
Player
p2458
(dp2459
g23
(dp2460
g25
Nsg26
I72
sg27
Nsg28
Nsg29
Nsg30
Nsg31
Nssg5
S'I. Jim\xc3\xa9nez'
p2461
sg33
I27
sg19
Nsg34
Nsg35
S'Mexico'
p2462
sg37
Nsba(i__main__
Player
p2463
(dp2464
g23
(dp2465
g25
Nsg26
I74
sg27
Nsg28
Nsg29
Nsg30
Nsg31
Nssg5
S'C. Salcedo'
p2466
sg33
I23
sg19
Nsg34
Nsg35
S'Mexico'
p2467
sg37
Nsba(i__main__
Player
p2468
(dp2469
g23
(dp2470
g25
Nsg26
I75
sg27
Nsg28
Nsg29
Nsg30
Nsg31
Nssg5
S'J. Hern\xc3\xa1ndez'
p2471
sg33
I28
sg19
Nsg34
Nsg35
S'Mexico'
p2472
sg37
Nsba(i__main__
Player
p2473
(dp2474
g23
(dp2475
g25
Nsg26
I75
sg27
Nsg28
Nsg29
Nsg30
Nsg31
Nssg5
S'H. Ayala'
p2476
sg33
I30
sg19
Nsg34
Nsg35
S'Mexico'
p2477
sg37
Nsba(i__main__
Player
p2478
(dp2479
g23
(dp2480
g25
Nsg26
I76
sg27
Nsg28
Nsg29
Nsg30
Nsg31
Nssg5
S'O. Peralta'
p2481
sg33
I33
sg19
Nsg34
Nsg35
S'Mexico'
p2482
sg37
Nsba(i__main__
Player
p2483
(dp2484
g23
(dp2485
g25
Nsg26
I76
sg27
Nsg28
Nsg29
Nsg30
Nsg31
Nssg5
S'E. Guti\xc3\xa9rrez'
p2486
sg33
I22
sg19
Nsg34
Nsg35
S'Mexico'
p2487
sg37
Nsba(i__main__
Player
p2488
(dp2489
g23
(dp2490
g25
Nsg26
I76
sg27
Nsg28
Nsg29
Nsg30
Nsg31
Nssg5
S'J. Corona'
p2491
sg33
I36
sg19
Nsg34
Nsg35
S'Mexico'
p2492
sg37
Nsba(i__main__
Player
p2493
(dp2494
g23
(dp2495
g25
Nsg26
I77
sg27
Nsg28
Nsg29
Nsg30
Nsg31
Nssg5
S'J. Aquino'
p2496
sg33
I27
sg19
Nsg34
Nsg35
S'Mexico'
p2497
sg37
Nsba(i__main__
Player
p2498
(dp2499
g23
(dp2500
g25
Nsg26
I77
sg27
Nsg28
Nsg29
Nsg30
Nsg31
Nssg5
S'E. Hern\xc3\xa1ndez'
p2501
sg33
I29
sg19
Nsg34
Nsg35
S'Mexico'
p2502
sg37
Nsba(i__main__
Player
p2503
(dp2504
g23
(dp2505
g25
Nsg26
I78
sg27
Nsg28
Nsg29
Nsg30
Nsg31
Nssg5
S'H. Lozano'
p2506
sg33
I21
sg19
Nsg34
Nsg35
S'Mexico'
p2507
sg37
Nsbasg85
I77
sg86
(lp2508
g2458
ag2463
ag2468
ag2473
ag2478
ag2483
ag2488
ag2493
ag2498
ag2503
a(i__main__
Player
p2509
(dp2510
g23
(dp2511
g25
Nsg26
I78
sg27
Nsg28
Nsg29
Nsg30
Nsg31
Nssg5
S'R. Jim\xc3\xa9nez'
p2512
sg33
I26
sg19
Nsg34
Nsg35
S'Mexico'
p2513
sg37
Nsbag2509
a(i__main__
Player
p2514
(dp2515
g23
(dp2516
g25
Nsg26
I78
sg27
Nsg28
Nsg29
Nsg30
Nsg31
Nssg5
S'M. Lay\xc3\xban'
p2517
sg33
I29
sg19
Nsg34
Nsg35
S'Mexico'
p2518
sg37
Nsba(i__main__
Player
p2519
(dp2520
g23
(dp2521
g25
Nsg26
I79
sg27
Nsg28
Nsg29
Nsg30
Nsg31
Nssg5
S'H. Herrera'
p2522
sg33
I27
sg19
Nsg34
Nsg35
S'Mexico'
p2523
sg37
Nsba(i__main__
Player
p2524
(dp2525
g23
(dp2526
g25
Nsg26
I79
sg27
Nsg28
Nsg29
Nsg30
Nsg31
Nssg5
S'G. Ochoa'
p2527
sg33
I31
sg19
Nsg34
Nsg35
S'Mexico'
p2528
sg37
Nsba(i__main__
Player
p2529
(dp2530
g23
(dp2531
g25
Nsg26
I79
sg27
Nsg28
Nsg29
Nsg30
Nsg31
Nssg5
S'M. Fabi\xc3\xa1n'
p2532
sg33
I27
sg19
Nsg34
Nsg35
S'Mexico'
p2533
sg37
Nsba(i__main__
Player
p2534
(dp2535
g23
(dp2536
g25
Nsg26
I79
sg27
Nsg28
Nsg29
Nsg30
Nsg31
Nssg5
S'G. dos Santos'
p2537
sg33
I28
sg19
Nsg34
Nsg35
S'Mexico'
p2538
sg37
Nsba(i__main__
Player
p2539
(dp2540
g23
(dp2541
g25
Nsg26
I80
sg27
Nsg28
Nsg29
Nsg30
Nsg31
Nssg5
S'J. dos Santos'
p2542
sg33
I27
sg19
Nsg34
Nsg35
S'Mexico'
p2543
sg37
Nsba(i__main__
Player
p2544
(dp2545
g23
(dp2546
g25
Nsg26
I80
sg27
Nsg28
Nsg29
Nsg30
Nsg31
Nssg5
S'H. Moreno'
p2547
sg33
I29
sg19
Nsg34
Nsg35
S'Mexico'
p2548
sg37
Nsba(i__main__
Player
p2549
(dp2550
g23
(dp2551
g25
Nsg26
I80
sg27
Nsg28
Nsg29
Nsg30
Nsg31
Nssg5
S'A. Guardado'
p2552
sg33
I30
sg19
Nsg34
Nsg35
S'Mexico'
p2553
sg37
Nsba(i__main__
Player
p2554
(dp2555
g23
(dp2556
g25
Nsg26
I81
sg27
Nsg28
Nsg29
Nsg30
Nsg31
Nssg5
S'J. Corona'
p2557
sg33
I24
sg19
Nsg34
Nsg35
S'Mexico'
p2558
sg37
Nsba(i__main__
Player
p2559
(dp2560
g23
(dp2561
g25
Nsg26
I82
sg27
Nsg28
Nsg29
Nsg30
Nsg31
Nssg5
S'J. Hern\xc3\xa1ndez'
p2562
sg33
I29
sg19
Nsg34
Nsg35
S'Mexico'
p2563
sg37
Nsba(i__main__
Player
p2564
(dp2565
g23
(dp2566
g25
Nsg26
I82
sg27
Nsg28
Nsg29
Nsg30
Nsg31
Nssg5
S'C. Vela'
p2567
sg33
I28
sg19
Nsg34
Nsg35
S'Mexico'
p2568
sg37
Nsbasg148
I2
sg149
F40.0
sba(i__main__
Team
p2569
(dp2570
g11
Nsg5
S'Sweden'
p2571
sg13
F148.005
sg14
I73
sg15
I1
sg16
I18
sg17
Nsg18
I3
sg19
(lp2572
(i__main__
Player
p2573
(dp2574
g23
(dp2575
g25
Nsg26
I73
sg27
Nsg28
Nsg29
Nsg30
Nsg31
Nssg5
S'A. Johansson'
p2576
sg33
I35
sg19
Nsg34
Nsg35
S'Sweden'
p2577
sg37
Nsba(i__main__
Player
p2578
(dp2579
g23
(dp2580
g25
Nsg26
I73
sg27
Nsg28
Nsg29
Nsg30
Nsg31
Nssg5
S'E. Krafth'
p2581
sg33
I22
sg19
Nsg34
Nsg35
S'Sweden'
p2582
sg37
Nsba(i__main__
Player
p2583
(dp2584
g23
(dp2585
g25
Nsg26
I73
sg27
Nsg28
Nsg29
Nsg30
Nsg31
Nssg5
S'M. Lustig'
p2586
sg33
I30
sg19
Nsg34
Nsg35
S'Sweden'
p2587
sg37
Nsba(i__main__
Player
p2588
(dp2589
g23
(dp2590
g25
Nsg26
I73
sg27
Nsg28
Nsg29
Nsg30
Nsg31
Nssg5
S'K. Nordfeldt'
p2591
sg33
I28
sg19
Nsg34
Nsg35
S'Sweden'
p2592
sg37
Nsba(i__main__
Player
p2593
(dp2594
g23
(dp2595
g25
Nsg26
I73
sg27
Nsg28
Nsg29
Nsg30
Nsg31
Nssg5
S'N. Johansson'
p2596
sg33
I37
sg19
Nsg34
Nsg35
S'Sweden'
p2597
sg37
Nsba(i__main__
Player
p2598
(dp2599
g23
(dp2600
g25
Nsg26
I73
sg27
Nsg28
Nsg29
Nsg30
Nsg31
Nssg5
S'O. Hiljemark'
p2601
sg33
I25
sg19
Nsg34
Nsg35
S'Sweden'
p2602
sg37
Nsba(i__main__
Player
p2603
(dp2604
g23
(dp2605
g25
Nsg26
I74
sg27
Nsg28
Nsg29
Nsg30
Nsg31
Nssg5
S'G. Svensson'
p2606
sg33
I30
sg19
Nsg34
Nsg35
S'Sweden'
p2607
sg37
Nsba(i__main__
Player
p2608
(dp2609
g23
(dp2610
g25
Nsg26
I74
sg27
Nsg28
Nsg29
Nsg30
Nsg31
Nssg5
S'S. Larsson'
p2611
sg33
I32
sg19
Nsg34
Nsg35
S'Sweden'
p2612
sg37
Nsba(i__main__
Player
p2613
(dp2614
g23
(dp2615
g25
Nsg26
I74
sg27
Nsg28
Nsg29
Nsg30
Nsg31
Nssg5
S'J. Johansson'
p2616
sg33
I27
sg19
Nsg34
Nsg35
S'Sweden'
p2617
sg37
Nsba(i__main__
Player
p2618
(dp2619
g23
(dp2620
g25
Nsg26
I74
sg27
Nsg28
Nsg29
Nsg30
Nsg31
Nssg5
S'R. Olsen'
p2621
sg33
I27
sg19
Nsg34
Nsg35
S'Sweden'
p2622
sg37
Nsba(i__main__
Player
p2623
(dp2624
g23
(dp2625
g25
Nsg26
I75
sg27
Nsg28
Nsg29
Nsg30
Nsg31
Nssg5
S'M. Olsson'
p2626
sg33
I29
sg19
Nsg34
Nsg35
S'Sweden'
p2627
sg37
Nsbasg85
I75
sg86
(lp2628
g2578
ag2583
ag2588
ag2593
ag2598
ag2603
ag2608
ag2613
ag2618
ag2623
a(i__main__
Player
p2629
(dp2630
g23
(dp2631
g25
Nsg26
I75
sg27
Nsg28
Nsg29
Nsg30
Nsg31
Nssg5
S'O. Toivonen'
p2632
sg33
I30
sg19
Nsg34
Nsg35
S'Sweden'
p2633
sg37
Nsbag2629
a(i__main__
Player
p2634
(dp2635
g23
(dp2636
g25
Nsg26
I75
sg27
Nsg28
Nsg29
Nsg30
Nsg31
Nssg5
S'K. Johnsson'
p2637
sg33
I27
sg19
Nsg34
Nsg35
S'Sweden'
p2638
sg37
Nsba(i__main__
Player
p2639
(dp2640
g23
(dp2641
g25
Nsg26
I75
sg27
Nsg28
Nsg29
Nsg30
Nsg31
Nssg5
S'J. Durmaz'
p2642
sg33
I28
sg19
Nsg34
Nsg35
S'Sweden'
p2643
sg37
Nsba(i__main__
Player
p2644
(dp2645
g23
(dp2646
g25
Nsg26
I76
sg27
Nsg28
Nsg29
Nsg30
Nsg31
Nssg5
S'A. Ekdal'
p2647
sg33
I27
sg19
Nsg34
Nsg35
S'Sweden'
p2648
sg37
Nsba(i__main__
Player
p2649
(dp2650
g23
(dp2651
g25
Nsg26
I76
sg27
Nsg28
Nsg29
Nsg30
Nsg31
Nssg5
S'S. Larsson'
p2652
sg33
I24
sg19
Nsg34
Nsg35
S'Sweden'
p2653
sg37
Nsba(i__main__
Player
p2654
(dp2655
g23
(dp2656
g25
Nsg26
I76
sg27
Nsg28
Nsg29
Nsg30
Nsg31
Nssg5
S'J. Olsson'
p2657
sg33
I34
sg19
Nsg34
Nsg35
S'Sweden'
p2658
sg37
Nsba(i__main__
Player
p2659
(dp2660
g23
(dp2661
g25
Nsg26
I77
sg27
Nsg28
Nsg29
Nsg30
Nsg31
Nssg5
S'P. Jansson'
p2662
sg33
I26
sg19
Nsg34
Nsg35
S'Sweden'
p2663
sg37
Nsba(i__main__
Player
p2664
(dp2665
g23
(dp2666
g25
Nsg26
I78
sg27
Nsg28
Nsg29
Nsg30
Nsg31
Nssg5
S'J. Guidetti'
p2667
sg33
I25
sg19
Nsg34
Nsg35
S'Sweden'
p2668
sg37
Nsba(i__main__
Player
p2669
(dp2670
g23
(dp2671
g25
Nsg26
I78
sg27
Nsg28
Nsg29
Nsg30
Nsg31
Nssg5
S'J. Guidetti'
p2672
sg33
I25
sg19
Nsg34
Nsg35
S'Sweden'
p2673
sg37
Nsba(i__main__
Player
p2674
(dp2675
g23
(dp2676
g25
Nsg26
I79
sg27
Nsg28
Nsg29
Nsg30
Nsg31
Nssg5
S'V. Lindel\xc3\xb6f'
p2677
sg33
I22
sg19
Nsg34
Nsg35
S'Sweden'
p2678
sg37
Nsba(i__main__
Player
p2679
(dp2680
g23
(dp2681
g25
Nsg26
I80
sg27
Nsg28
Nsg29
Nsg30
Nsg31
Nssg5
S'M. Berg'
p2682
sg33
I30
sg19
Nsg34
Nsg35
S'Sweden'
p2683
sg37
Nsba(i__main__
Player
p2684
(dp2685
g23
(dp2686
g25
Nsg26
I83
sg27
Nsg28
Nsg29
Nsg30
Nsg31
Nssg5
S'E. Forsberg'
p2687
sg33
I25
sg19
Nsg34
Nsg35
S'Sweden'
p2688
sg37
Nsbasg148
I2
sg149
F200.0
sba(i__main__
Team
p2689
(dp2690
g11
Nsg5
S'South Korea'
p2691
sg13
F130.00133333333332
sg14
I65
sg15
I1
sg16
I59
sg17
Nsg18
I3
sg19
(lp2692
(i__main__
Player
p2693
(dp2694
g23
(dp2695
g25
Nsg26
I65
sg27
Nsg28
Nsg29
Nsg30
Nsg31
Nssg5
S'Dummy boy'
p2696
sg33
I25
sg19
Nsg34
Nsg35
g2691
sg37
Nsba(i__main__
Player
p2697
(dp2698
g23
(dp2699
g25
Nsg26
I65
sg27
Nsg28
Nsg29
Nsg30
Nsg31
Nssg5
g81
sg33
I25
sg19
Nsg34
Nsg35
g2691
sg37
Nsba(i__main__
Player
p2700
(dp2701
g23
(dp2702
g25
Nsg26
I65
sg27
Nsg28
Nsg29
Nsg30
Nsg31
Nssg5
g81
sg33
I25
sg19
Nsg34
Nsg35
g2691
sg37
Nsba(i__main__
Player
p2703
(dp2704
g23
(dp2705
g25
Nsg26
I65
sg27
Nsg28
Nsg29
Nsg30
Nsg31
Nssg5
g81
sg33
I25
sg19
Nsg34
Nsg35
g2691
sg37
Nsba(i__main__
Player
p2706
(dp2707
g23
(dp2708
g25
Nsg26
I65
sg27
Nsg28
Nsg29
Nsg30
Nsg31
Nssg5
g81
sg33
I25
sg19
Nsg34
Nsg35
g2691
sg37
Nsba(i__main__
Player
p2709
(dp2710
g23
(dp2711
g25
Nsg26
I65
sg27
Nsg28
Nsg29
Nsg30
Nsg31
Nssg5
g81
sg33
I25
sg19
Nsg34
Nsg35
g2691
sg37
Nsba(i__main__
Player
p2712
(dp2713
g23
(dp2714
g25
Nsg26
I65
sg27
Nsg28
Nsg29
Nsg30
Nsg31
Nssg5
g81
sg33
I25
sg19
Nsg34
Nsg35
g2691
sg37
Nsba(i__main__
Player
p2715
(dp2716
g23
(dp2717
g25
Nsg26
I65
sg27
Nsg28
Nsg29
Nsg30
Nsg31
Nssg5
g81
sg33
I25
sg19
Nsg34
Nsg35
g2691
sg37
Nsba(i__main__
Player
p2718
(dp2719
g23
(dp2720
g25
Nsg26
I65
sg27
Nsg28
Nsg29
Nsg30
Nsg31
Nssg5
g81
sg33
I25
sg19
Nsg34
Nsg35
g2691
sg37
Nsba(i__main__
Player
p2721
(dp2722
g23
(dp2723
g25
Nsg26
I65
sg27
Nsg28
Nsg29
Nsg30
Nsg31
Nssg5
g81
sg33
I25
sg19
Nsg34
Nsg35
g2691
sg37
Nsba(i__main__
Player
p2724
(dp2725
g23
(dp2726
g25
Nsg26
I65
sg27
Nsg28
Nsg29
Nsg30
Nsg31
Nssg5
g81
sg33
I25
sg19
Nsg34
Nsg35
g2691
sg37
Nsbasg85
I65
sg86
(lp2727
g2697
ag2700
ag2703
ag2706
ag2709
ag2712
ag2715
ag2718
ag2721
ag2724
a(i__main__
Player
p2728
(dp2729
g23
(dp2730
g25
Nsg26
I65
sg27
Nsg28
Nsg29
Nsg30
Nsg31
Nssg5
g81
sg33
I25
sg19
Nsg34
Nsg35
g2691
sg37
Nsbag2728
a(i__main__
Player
p2731
(dp2732
g23
(dp2733
g25
Nsg26
I65
sg27
Nsg28
Nsg29
Nsg30
Nsg31
Nssg5
g81
sg33
I25
sg19
Nsg34
Nsg35
g2691
sg37
Nsba(i__main__
Player
p2734
(dp2735
g23
(dp2736
g25
Nsg26
I65
sg27
Nsg28
Nsg29
Nsg30
Nsg31
Nssg5
g81
sg33
I25
sg19
Nsg34
Nsg35
g2691
sg37
Nsba(i__main__
Player
p2737
(dp2738
g23
(dp2739
g25
Nsg26
I65
sg27
Nsg28
Nsg29
Nsg30
Nsg31
Nssg5
g81
sg33
I25
sg19
Nsg34
Nsg35
g2691
sg37
Nsba(i__main__
Player
p2740
(dp2741
g23
(dp2742
g25
Nsg26
I65
sg27
Nsg28
Nsg29
Nsg30
Nsg31
Nssg5
g81
sg33
I25
sg19
Nsg34
Nsg35
g2691
sg37
Nsba(i__main__
Player
p2743
(dp2744
g23
(dp2745
g25
Nsg26
I65
sg27
Nsg28
Nsg29
Nsg30
Nsg31
Nssg5
g81
sg33
I25
sg19
Nsg34
Nsg35
g2691
sg37
Nsba(i__main__
Player
p2746
(dp2747
g23
(dp2748
g25
Nsg26
I65
sg27
Nsg28
Nsg29
Nsg30
Nsg31
Nssg5
g81
sg33
I25
sg19
Nsg34
Nsg35
g2691
sg37
Nsba(i__main__
Player
p2749
(dp2750
g23
(dp2751
g25
Nsg26
I65
sg27
Nsg28
Nsg29
Nsg30
Nsg31
Nssg5
g81
sg33
I25
sg19
Nsg34
Nsg35
g2691
sg37
Nsba(i__main__
Player
p2752
(dp2753
g23
(dp2754
g25
Nsg26
I65
sg27
Nsg28
Nsg29
Nsg30
Nsg31
Nssg5
g81
sg33
I25
sg19
Nsg34
Nsg35
g2691
sg37
Nsba(i__main__
Player
p2755
(dp2756
g23
(dp2757
g25
Nsg26
I65
sg27
Nsg28
Nsg29
Nsg30
Nsg31
Nssg5
g81
sg33
I25
sg19
Nsg34
Nsg35
g2691
sg37
Nsba(i__main__
Player
p2758
(dp2759
g23
(dp2760
g25
Nsg26
I65
sg27
Nsg28
Nsg29
Nsg30
Nsg31
Nssg5
g81
sg33
I25
sg19
Nsg34
Nsg35
g2691
sg37
Nsba(i__main__
Player
p2761
(dp2762
g23
(dp2763
g25
Nsg26
I65
sg27
Nsg28
Nsg29
Nsg30
Nsg31
Nssg5
g81
sg33
I25
sg19
Nsg34
Nsg35
g2691
sg37
Nsbasg148
I2
sg149
F750.0
sbasba(i__main__
Group
p2764
(dp2765
g3
(lp2766
I0
aI0
aI0
aI0
asg5
S'Group G'
p2767
sg7
(lp2768
(i__main__
Team
p2769
(dp2770
g11
Nsg5
S'Belgium'
p2771
sg13
F160.11111111111111
sg14
I78
sg15
I1
sg16
I5
sg17
Nsg18
I3
sg19
(lp2772
(i__main__
Player
p2773
(dp2774
g23
(dp2775
g25
Nsg26
I77
sg27
Nsg28
Nsg29
Nsg30
Nsg31
Nssg5
S'J. Lukaku'
p2776
sg33
I22
sg19
Nsg34
Nsg35
S'Belgium'
p2777
sg37
Nsba(i__main__
Player
p2778
(dp2779
g23
(dp2780
g25
Nsg26
I77
sg27
Nsg28
Nsg29
Nsg30
Nsg31
Nssg5
S'A. Januzaj'
p2781
sg33
I22
sg19
Nsg34
Nsg35
S'Belgium'
p2782
sg37
Nsba(i__main__
Player
p2783
(dp2784
g23
(dp2785
g25
Nsg26
I78
sg27
Nsg28
Nsg29
Nsg30
Nsg31
Nssg5
S'N. Chadli'
p2786
sg33
I27
sg19
Nsg34
Nsg35
S'Belgium'
p2787
sg37
Nsba(i__main__
Player
p2788
(dp2789
g23
(dp2790
g25
Nsg26
I78
sg27
Nsg28
Nsg29
Nsg30
Nsg31
Nssg5
S'T. Vermaelen'
p2791
sg33
I31
sg19
Nsg34
Nsg35
S'Belgium'
p2792
sg37
Nsba(i__main__
Player
p2793
(dp2794
g23
(dp2795
g25
Nsg26
I78
sg27
Nsg28
Nsg29
Nsg30
Nsg31
Nssg5
S'K. Casteels'
p2796
sg33
I25
sg19
Nsg34
Nsg35
S'Belgium'
p2797
sg37
Nsba(i__main__
Player
p2798
(dp2799
g23
(dp2800
g25
Nsg26
I79
sg27
Nsg28
Nsg29
Nsg30
Nsg31
Nssg5
S'L. Dendoncker'
p2801
sg33
I22
sg19
Nsg34
Nsg35
S'Belgium'
p2802
sg37
Nsba(i__main__
Player
p2803
(dp2804
g23
(dp2805
g25
Nsg26
I79
sg27
Nsg28
Nsg29
Nsg30
Nsg31
Nssg5
S'M. Fellaini'
p2806
sg33
I29
sg19
Nsg34
Nsg35
S'Belgium'
p2807
sg37
Nsba(i__main__
Player
p2808
(dp2809
g23
(dp2810
g25
Nsg26
I80
sg27
Nsg28
Nsg29
Nsg30
Nsg31
Nssg5
S'Y. Tielemans'
p2811
sg33
I20
sg19
Nsg34
Nsg35
S'Belgium'
p2812
sg37
Nsba(i__main__
Player
p2813
(dp2814
g23
(dp2815
g25
Nsg26
I80
sg27
Nsg28
Nsg29
Nsg30
Nsg31
Nssg5
S'M. Batshuayi'
p2816
sg33
I23
sg19
Nsg34
Nsg35
S'Belgium'
p2817
sg37
Nsba(i__main__
Player
p2818
(dp2819
g23
(dp2820
g25
Nsg26
I80
sg27
Nsg28
Nsg29
Nsg30
Nsg31
Nssg5
S'T. Hazard'
p2821
sg33
I24
sg19
Nsg34
Nsg35
S'Belgium'
p2822
sg37
Nsba(i__main__
Player
p2823
(dp2824
g23
(dp2825
g25
Nsg26
I81
sg27
Nsg28
Nsg29
Nsg30
Nsg31
Nssg5
S'T. Meunier'
p2826
sg33
I25
sg19
Nsg34
Nsg35
S'Belgium'
p2827
sg37
Nsbasg85
I82
sg86
(lp2828
g2778
ag2783
ag2788
ag2793
ag2798
ag2803
ag2808
ag2813
ag2818
ag2823
a(i__main__
Player
p2829
(dp2830
g23
(dp2831
g25
Nsg26
I81
sg27
Nsg28
Nsg29
Nsg30
Nsg31
Nssg5
S'S. Mignolet'
p2832
sg33
I29
sg19
Nsg34
Nsg35
S'Belgium'
p2833
sg37
Nsbag2829
a(i__main__
Player
p2834
(dp2835
g23
(dp2836
g25
Nsg26
I82
sg27
Nsg28
Nsg29
Nsg30
Nsg31
Nssg5
S'A. Witsel'
p2837
sg33
I28
sg19
Nsg34
Nsg35
S'Belgium'
p2838
sg37
Nsba(i__main__
Player
p2839
(dp2840
g23
(dp2841
g25
Nsg26
I83
sg27
Nsg28
Nsg29
Nsg30
Nsg31
Nssg5
S'M. Demb\xc3\xa9l\xc3\xa9'
p2842
sg33
I29
sg19
Nsg34
Nsg35
S'Belgium'
p2843
sg37
Nsba(i__main__
Player
p2844
(dp2845
g23
(dp2846
g25
Nsg26
I85
sg27
Nsg28
Nsg29
Nsg30
Nsg31
Nssg5
S'V. Kompany'
p2847
sg33
I31
sg19
Nsg34
Nsg35
S'Belgium'
p2848
sg37
Nsba(i__main__
Player
p2849
(dp2850
g23
(dp2851
g25
Nsg26
I85
sg27
Nsg28
Nsg29
Nsg30
Nsg31
Nssg5
S'J. Vertonghen'
p2852
sg33
I30
sg19
Nsg34
Nsg35
S'Belgium'
p2853
sg37
Nsba(i__main__
Player
p2854
(dp2855
g23
(dp2856
g25
Nsg26
I85
sg27
Nsg28
Nsg29
Nsg30
Nsg31
Nssg5
S'Y. Carrasco'
p2857
sg33
I23
sg19
Nsg34
Nsg35
S'Belgium'
p2858
sg37
Nsba(i__main__
Player
p2859
(dp2860
g23
(dp2861
g25
Nsg26
I86
sg27
Nsg28
Nsg29
Nsg30
Nsg31
Nssg5
S'D. Mertens'
p2862
sg33
I30
sg19
Nsg34
Nsg35
S'Belgium'
p2863
sg37
Nsba(i__main__
Player
p2864
(dp2865
g23
(dp2866
g25
Nsg26
I86
sg27
Nsg28
Nsg29
Nsg30
Nsg31
Nssg5
S'R. Lukaku'
p2867
sg33
I24
sg19
Nsg34
Nsg35
S'Belgium'
p2868
sg37
Nsba(i__main__
Player
p2869
(dp2870
g23
(dp2871
g25
Nsg26
I86
sg27
Nsg28
Nsg29
Nsg30
Nsg31
Nssg5
S'T. Alderweireld'
p2872
sg33
I28
sg19
Nsg34
Nsg35
S'Belgium'
p2873
sg37
Nsba(i__main__
Player
p2874
(dp2875
g23
(dp2876
g25
Nsg26
I89
sg27
Nsg28
Nsg29
Nsg30
Nsg31
Nssg5
S'T. Courtois'
p2877
sg33
I25
sg19
Nsg34
Nsg35
S'Belgium'
p2878
sg37
Nsba(i__main__
Player
p2879
(dp2880
g23
(dp2881
g25
Nsg26
I89
sg27
Nsg28
Nsg29
Nsg30
Nsg31
Nssg5
S'K. De Bruyne'
p2882
sg33
I26
sg19
Nsg34
Nsg35
S'Belgium'
p2883
sg37
Nsba(i__main__
Player
p2884
(dp2885
g23
(dp2886
g25
Nsg26
I90
sg27
Nsg28
Nsg29
Nsg30
Nsg31
Nssg5
S'E. Hazard'
p2887
sg33
I26
sg19
Nsg34
Nsg35
S'Belgium'
p2888
sg37
Nsbasg148
I2
sg149
F9.0
sba(i__main__
Team
p2889
(dp2890
g11
Nsg5
S'Panama'
p2891
sg13
F130.001
sg14
I64
sg15
I1
sg16
I56
sg17
Nsg18
I3
sg19
(lp2892
(i__main__
Player
p2893
(dp2894
g23
(dp2895
g25
Nsg26
I57
sg27
Nsg28
Nsg29
Nsg30
Nsg31
Nssg5
S'L. Ovalle'
p2896
sg33
I28
sg19
Nsg34
Nsg35
S'Panama'
p2897
sg37
Nsba(i__main__
Player
p2898
(dp2899
g23
(dp2900
g25
Nsg26
I64
sg27
Nsg28
Nsg29
Nsg30
Nsg31
Nssg5
S'M. Murillo'
p2901
sg33
I21
sg19
Nsg34
Nsg35
S'Panama'
p2902
sg37
Nsba(i__main__
Player
p2903
(dp2904
g23
(dp2905
g25
Nsg26
I65
sg27
Nsg28
Nsg29
Nsg30
Nsg31
Nssg5
S'F. Escobar'
p2906
sg33
I22
sg19
Nsg34
Nsg35
S'Panama'
p2907
sg37
Nsba(i__main__
Player
p2908
(dp2909
g23
(dp2910
g25
Nsg26
I66
sg27
Nsg28
Nsg29
Nsg30
Nsg31
Nssg5
S'H. Cummings'
p2911
sg33
I25
sg19
Nsg34
Nsg35
S'Panama'
p2912
sg37
Nsba(i__main__
Player
p2913
(dp2914
g23
(dp2915
g25
Nsg26
I66
sg27
Nsg28
Nsg29
Nsg30
Nsg31
Nssg5
g81
sg33
I27
sg19
Nsg34
Nsg35
g2891
sg37
Nsba(i__main__
Player
p2916
(dp2917
g23
(dp2918
g25
Nsg26
I66
sg27
Nsg28
Nsg29
Nsg30
Nsg31
Nssg5
g81
sg33
I27
sg19
Nsg34
Nsg35
g2891
sg37
Nsba(i__main__
Player
p2919
(dp2920
g23
(dp2921
g25
Nsg26
I66
sg27
Nsg28
Nsg29
Nsg30
Nsg31
Nssg5
g81
sg33
I27
sg19
Nsg34
Nsg35
g2891
sg37
Nsba(i__main__
Player
p2922
(dp2923
g23
(dp2924
g25
Nsg26
I66
sg27
Nsg28
Nsg29
Nsg30
Nsg31
Nssg5
g81
sg33
I27
sg19
Nsg34
Nsg35
g2891
sg37
Nsba(i__main__
Player
p2925
(dp2926
g23
(dp2927
g25
Nsg26
I66
sg27
Nsg28
Nsg29
Nsg30
Nsg31
Nssg5
g81
sg33
I27
sg19
Nsg34
Nsg35
g2891
sg37
Nsba(i__main__
Player
p2928
(dp2929
g23
(dp2930
g25
Nsg26
I66
sg27
Nsg28
Nsg29
Nsg30
Nsg31
Nssg5
g81
sg33
I27
sg19
Nsg34
Nsg35
g2891
sg37
Nsba(i__main__
Player
p2931
(dp2932
g23
(dp2933
g25
Nsg26
I66
sg27
Nsg28
Nsg29
Nsg30
Nsg31
Nssg5
g81
sg33
I27
sg19
Nsg34
Nsg35
g2891
sg37
Nsbasg85
I66
sg86
(lp2934
g2898
ag2903
ag2908
ag2913
ag2916
ag2919
ag2922
ag2925
ag2928
ag2931
a(i__main__
Player
p2935
(dp2936
g23
(dp2937
g25
Nsg26
I66
sg27
Nsg28
Nsg29
Nsg30
Nsg31
Nssg5
g81
sg33
I27
sg19
Nsg34
Nsg35
g2891
sg37
Nsbag2935
a(i__main__
Player
p2938
(dp2939
g23
(dp2940
g25
Nsg26
I66
sg27
Nsg28
Nsg29
Nsg30
Nsg31
Nssg5
g81
sg33
I27
sg19
Nsg34
Nsg35
g2891
sg37
Nsba(i__main__
Player
p2941
(dp2942
g23
(dp2943
g25
Nsg26
I66
sg27
Nsg28
Nsg29
Nsg30
Nsg31
Nssg5
g81
sg33
I27
sg19
Nsg34
Nsg35
g2891
sg37
Nsba(i__main__
Player
p2944
(dp2945
g23
(dp2946
g25
Nsg26
I66
sg27
Nsg28
Nsg29
Nsg30
Nsg31
Nssg5
g81
sg33
I27
sg19
Nsg34
Nsg35
g2891
sg37
Nsba(i__main__
Player
p2947
(dp2948
g23
(dp2949
g25
Nsg26
I66
sg27
Nsg28
Nsg29
Nsg30
Nsg31
Nssg5
g81
sg33
I27
sg19
Nsg34
Nsg35
g2891
sg37
Nsba(i__main__
Player
p2950
(dp2951
g23
(dp2952
g25
Nsg26
I66
sg27
Nsg28
Nsg29
Nsg30
Nsg31
Nssg5
g81
sg33
I27
sg19
Nsg34
Nsg35
g2891
sg37
Nsba(i__main__
Player
p2953
(dp2954
g23
(dp2955
g25
Nsg26
I67
sg27
Nsg28
Nsg29
Nsg30
Nsg31
Nssg5
S'A. Cooper'
p2956
sg33
I29
sg19
Nsg34
Nsg35
S'Panama'
p2957
sg37
Nsba(i__main__
Player
p2958
(dp2959
g23
(dp2960
g25
Nsg26
I68
sg27
Nsg28
Nsg29
Nsg30
Nsg31
Nssg5
S'G. Torres'
p2961
sg33
I28
sg19
Nsg34
Nsg35
S'Panama'
p2962
sg37
Nsba(i__main__
Player
p2963
(dp2964
g23
(dp2965
g25
Nsg26
I70
sg27
Nsg28
Nsg29
Nsg30
Nsg31
Nssg5
S'G. G\xc3\xb3mez'
p2966
sg33
I33
sg19
Nsg34
Nsg35
S'Panama'
p2967
sg37
Nsba(i__main__
Player
p2968
(dp2969
g23
(dp2970
g25
Nsg26
I70
sg27
Nsg28
Nsg29
Nsg30
Nsg31
Nssg5
S'R. Torres'
p2971
sg33
I31
sg19
Nsg34
Nsg35
S'Panama'
p2972
sg37
Nsba(i__main__
Player
p2973
(dp2974
g23
(dp2975
g25
Nsg26
I71
sg27
Nsg28
Nsg29
Nsg30
Nsg31
Nssg5
S'A. Machado'
p2976
sg33
I32
sg19
Nsg34
Nsg35
S'Panama'
p2977
sg37
Nsba(i__main__
Player
p2978
(dp2979
g23
(dp2980
g25
Nsg26
I71
sg27
Nsg28
Nsg29
Nsg30
Nsg31
Nssg5
S'A. Godoy'
p2981
sg33
I27
sg19
Nsg34
Nsg35
S'Panama'
p2982
sg37
Nsbasg148
I2
sg149
F1000.0
sba(i__main__
Team
p2983
(dp2984
g11
Nsg5
S'Tunisia'
p2985
sg13
F136.001
sg14
I67
sg15
I1
sg16
I27
sg17
Nsg18
I3
sg19
(lp2986
(i__main__
Player
p2987
(dp2988
g23
(dp2989
g25
Nsg26
I63
sg27
Nsg28
Nsg29
Nsg30
Nsg31
Nssg5
S'F. Ben Mustapha'
p2990
sg33
I28
sg19
Nsg34
Nsg35
S'Tunisia'
p2991
sg37
Nsba(i__main__
Player
p2992
(dp2993
g23
(dp2994
g25
Nsg26
I65
sg27
Nsg28
Nsg29
Nsg30
Nsg31
Nssg5
S'D. Bronn'
p2995
sg33
I22
sg19
Nsg34
Nsg35
S'Tunisia'
p2996
sg37
Nsba(i__main__
Player
p2997
(dp2998
g23
(dp2999
g25
Nsg26
I66
sg27
Nsg28
Nsg29
Nsg30
Nsg31
Nssg5
S'O. Haddadi'
p3000
sg33
I25
sg19
Nsg34
Nsg35
S'Tunisia'
p3001
sg37
Nsba(i__main__
Player
p3002
(dp3003
g23
(dp3004
g25
Nsg26
I68
sg27
Nsg28
Nsg29
Nsg30
Nsg31
Nssg5
S'B. Srarfi'
p3005
sg33
I20
sg19
Nsg34
Nsg35
S'Tunisia'
p3006
sg37
Nsba(i__main__
Player
p3007
(dp3008
g23
(dp3009
g25
Nsg26
I69
sg27
Nsg28
Nsg29
Nsg30
Nsg31
Nssg5
g81
sg33
I24
sg19
Nsg34
Nsg35
g2985
sg37
Nsba(i__main__
Player
p3010
(dp3011
g23
(dp3012
g25
Nsg26
I69
sg27
Nsg28
Nsg29
Nsg30
Nsg31
Nssg5
g81
sg33
I24
sg19
Nsg34
Nsg35
g2985
sg37
Nsba(i__main__
Player
p3013
(dp3014
g23
(dp3015
g25
Nsg26
I69
sg27
Nsg28
Nsg29
Nsg30
Nsg31
Nssg5
g81
sg33
I24
sg19
Nsg34
Nsg35
g2985
sg37
Nsba(i__main__
Player
p3016
(dp3017
g23
(dp3018
g25
Nsg26
I69
sg27
Nsg28
Nsg29
Nsg30
Nsg31
Nssg5
g81
sg33
I24
sg19
Nsg34
Nsg35
g2985
sg37
Nsba(i__main__
Player
p3019
(dp3020
g23
(dp3021
g25
Nsg26
I69
sg27
Nsg28
Nsg29
Nsg30
Nsg31
Nssg5
g81
sg33
I24
sg19
Nsg34
Nsg35
g2985
sg37
Nsba(i__main__
Player
p3022
(dp3023
g23
(dp3024
g25
Nsg26
I69
sg27
Nsg28
Nsg29
Nsg30
Nsg31
Nssg5
g81
sg33
I24
sg19
Nsg34
Nsg35
g2985
sg37
Nsba(i__main__
Player
p3025
(dp3026
g23
(dp3027
g25
Nsg26
I69
sg27
Nsg28
Nsg29
Nsg30
Nsg31
Nssg5
g81
sg33
I24
sg19
Nsg34
Nsg35
g2985
sg37
Nsbasg85
I69
sg86
(lp3028
g2992
ag2997
ag3002
ag3007
ag3010
ag3013
ag3016
ag3019
ag3022
ag3025
a(i__main__
Player
p3029
(dp3030
g23
(dp3031
g25
Nsg26
I69
sg27
Nsg28
Nsg29
Nsg30
Nsg31
Nssg5
g81
sg33
I24
sg19
Nsg34
Nsg35
g2985
sg37
Nsbag3029
a(i__main__
Player
p3032
(dp3033
g23
(dp3034
g25
Nsg26
I69
sg27
Nsg28
Nsg29
Nsg30
Nsg31
Nssg5
g81
sg33
I24
sg19
Nsg34
Nsg35
g2985
sg37
Nsba(i__main__
Player
p3035
(dp3036
g23
(dp3037
g25
Nsg26
I69
sg27
Nsg28
Nsg29
Nsg30
Nsg31
Nssg5
g81
sg33
I24
sg19
Nsg34
Nsg35
g2985
sg37
Nsba(i__main__
Player
p3038
(dp3039
g23
(dp3040
g25
Nsg26
I69
sg27
Nsg28
Nsg29
Nsg30
Nsg31
Nssg5
g81
sg33
I24
sg19
Nsg34
Nsg35
g2985
sg37
Nsba(i__main__
Player
p3041
(dp3042
g23
(dp3043
g25
Nsg26
I69
sg27
Nsg28
Nsg29
Nsg30
Nsg31
Nssg5
g81
sg33
I24
sg19
Nsg34
Nsg35
g2985
sg37
Nsba(i__main__
Player
p3044
(dp3045
g23
(dp3046
g25
Nsg26
I69
sg27
Nsg28
Nsg29
Nsg30
Nsg31
Nssg5
g81
sg33
I24
sg19
Nsg34
Nsg35
g2985
sg37
Nsba(i__main__
Player
p3047
(dp3048
g23
(dp3049
g25
Nsg26
I69
sg27
Nsg28
Nsg29
Nsg30
Nsg31
Nssg5
g81
sg33
I24
sg19
Nsg34
Nsg35
g2985
sg37
Nsba(i__main__
Player
p3050
(dp3051
g23
(dp3052
g25
Nsg26
I69
sg27
Nsg28
Nsg29
Nsg30
Nsg31
Nssg5
g81
sg33
I24
sg19
Nsg34
Nsg35
g2985
sg37
Nsba(i__main__
Player
p3053
(dp3054
g23
(dp3055
g25
Nsg26
I72
sg27
Nsg28
Nsg29
Nsg30
Nsg31
Nssg5
S'N. Sliti'
p3056
sg33
I24
sg19
Nsg34
Nsg35
S'Tunisia'
p3057
sg37
Nsba(i__main__
Player
p3058
(dp3059
g23
(dp3060
g25
Nsg26
I72
sg27
Nsg28
Nsg29
Nsg30
Nsg31
Nssg5
S'S. Ben Youssef'
p3061
sg33
I28
sg19
Nsg34
Nsg35
S'Tunisia'
p3062
sg37
Nsba(i__main__
Player
p3063
(dp3064
g23
(dp3065
g25
Nsg26
I74
sg27
Nsg28
Nsg29
Nsg30
Nsg31
Nssg5
S'E. Skhiri'
p3066
sg33
I22
sg19
Nsg34
Nsg35
S'Tunisia'
p3067
sg37
Nsba(i__main__
Player
p3068
(dp3069
g23
(dp3070
g25
Nsg26
I75
sg27
Nsg28
Nsg29
Nsg30
Nsg31
Nssg5
S'Y. Benalouane'
p3071
sg33
I30
sg19
Nsg34
Nsg35
S'Tunisia'
p3072
sg37
Nsbasg148
I2
sg149
F1000.0
sba(i__main__
Team
p3073
(dp3074
g11
Nsg5
S'England'
p3075
sg13
F154.08333333333334
sg14
I75
sg15
I1
sg16
I15
sg17
Nsg18
I3
sg19
(lp3076
(i__main__
Player
p3077
(dp3078
g23
(dp3079
g25
Nsg26
I70
sg27
Nsg28
Nsg29
Nsg30
Nsg31
Nssg5
S'R. Loftus-Cheek'
p3080
sg33
I21
sg19
Nsg34
Nsg35
S'England'
p3081
sg37
Nsba(i__main__
Player
p3082
(dp3083
g23
(dp3084
g25
Nsg26
I71
sg27
Nsg28
Nsg29
Nsg30
Nsg31
Nssg5
S'D. Jones'
p3085
sg33
I32
sg19
Nsg34
Nsg35
S'England'
p3086
sg37
Nsba(i__main__
Player
p3087
(dp3088
g23
(dp3089
g25
Nsg26
I71
sg27
Nsg28
Nsg29
Nsg30
Nsg31
Nssg5
S'B. Jones'
p3090
sg33
I30
sg19
Nsg34
Nsg35
S'England'
p3091
sg37
Nsba(i__main__
Player
p3092
(dp3093
g23
(dp3094
g25
Nsg26
I75
sg27
Nsg28
Nsg29
Nsg30
Nsg31
Nssg5
S'A. Young'
p3095
sg33
I31
sg19
Nsg34
Nsg35
S'England'
p3096
sg37
Nsba(i__main__
Player
p3097
(dp3098
g23
(dp3099
g25
Nsg26
I77
sg27
Nsg28
Nsg29
Nsg30
Nsg31
Nssg5
S'F. Delph'
p3100
sg33
I27
sg19
Nsg34
Nsg35
S'England'
p3101
sg37
Nsba(i__main__
Player
p3102
(dp3103
g23
(dp3104
g25
Nsg26
I77
sg27
Nsg28
Nsg29
Nsg30
Nsg31
Nssg5
S'J. Pickford'
p3105
sg33
I23
sg19
Nsg34
Nsg35
S'England'
p3106
sg37
Nsba(i__main__
Player
p3107
(dp3108
g23
(dp3109
g25
Nsg26
I77
sg27
Nsg28
Nsg29
Nsg30
Nsg31
Nssg5
S'H. Maguire'
p3110
sg33
I24
sg19
Nsg34
Nsg35
S'England'
p3111
sg37
Nsba(i__main__
Player
p3112
(dp3113
g23
(dp3114
g25
Nsg26
I78
sg27
Nsg28
Nsg29
Nsg30
Nsg31
Nssg5
S'J. Lingard'
p3115
sg33
I24
sg19
Nsg34
Nsg35
S'England'
p3116
sg37
Nsba(i__main__
Player
p3117
(dp3118
g23
(dp3119
g25
Nsg26
I78
sg27
Nsg28
Nsg29
Nsg30
Nsg31
Nssg5
S'J. Lingard'
p3120
sg33
I24
sg19
Nsg34
Nsg35
S'England'
p3121
sg37
Nsba(i__main__
Player
p3122
(dp3123
g23
(dp3124
g25
Nsg26
I78
sg27
Nsg28
Nsg29
Nsg30
Nsg31
Nssg5
S'K. Trippier'
p3125
sg33
I26
sg19
Nsg34
Nsg35
S'England'
p3126
sg37
Nsba(i__main__
Player
p3127
(dp3128
g23
(dp3129
g25
Nsg26
I79
sg27
Nsg28
Nsg29
Nsg30
Nsg31
Nssg5
S'J. Stones'
p3130
sg33
I23
sg19
Nsg34
Nsg35
S'England'
p3131
sg37
Nsbasg85
I79
sg86
(lp3132
g3082
ag3087
ag3092
ag3097
ag3102
ag3107
ag3112
ag3117
ag3122
ag3127
a(i__main__
Player
p3133
(dp3134
g23
(dp3135
g25
Nsg26
I79
sg27
Nsg28
Nsg29
Nsg30
Nsg31
Nssg5
S'P. Jones'
p3136
sg33
I25
sg19
Nsg34
Nsg35
S'England'
p3137
sg37
Nsbag3133
a(i__main__
Player
p3138
(dp3139
g23
(dp3140
g25
Nsg26
I80
sg27
Nsg28
Nsg29
Nsg30
Nsg31
Nssg5
S'D. Welbeck'
p3141
sg33
I26
sg19
Nsg34
Nsg35
S'England'
p3142
sg37
Nsba(i__main__
Player
p3143
(dp3144
g23
(dp3145
g25
Nsg26
I80
sg27
Nsg28
Nsg29
Nsg30
Nsg31
Nssg5
S'M. Rashford'
p3146
sg33
I19
sg19
Nsg34
Nsg35
S'England'
p3147
sg37
Nsba(i__main__
Player
p3148
(dp3149
g23
(dp3150
g25
Nsg26
I81
sg27
Nsg28
Nsg29
Nsg30
Nsg31
Nssg5
S'J. Butland'
p3151
sg33
I24
sg19
Nsg34
Nsg35
S'England'
p3152
sg37
Nsba(i__main__
Player
p3153
(dp3154
g23
(dp3155
g25
Nsg26
I81
sg27
Nsg28
Nsg29
Nsg30
Nsg31
Nssg5
S'J. Vardy'
p3156
sg33
I30
sg19
Nsg34
Nsg35
S'England'
p3157
sg37
Nsba(i__main__
Player
p3158
(dp3159
g23
(dp3160
g25
Nsg26
I82
sg27
Nsg28
Nsg29
Nsg30
Nsg31
Nssg5
S'E. Dier'
p3161
sg33
I23
sg19
Nsg34
Nsg35
S'England'
p3162
sg37
Nsba(i__main__
Player
p3163
(dp3164
g23
(dp3165
g25
Nsg26
I82
sg27
Nsg28
Nsg29
Nsg30
Nsg31
Nssg5
S'J. Henderson'
p3166
sg33
I27
sg19
Nsg34
Nsg35
S'England'
p3167
sg37
Nsba(i__main__
Player
p3168
(dp3169
g23
(dp3170
g25
Nsg26
I82
sg27
Nsg28
Nsg29
Nsg30
Nsg31
Nssg5
S'D. Rose'
p3171
sg33
I26
sg19
Nsg34
Nsg35
S'England'
p3172
sg37
Nsba(i__main__
Player
p3173
(dp3174
g23
(dp3175
g25
Nsg26
I82
sg27
Nsg28
Nsg29
Nsg30
Nsg31
Nssg5
S'R. Sterling'
p3176
sg33
I22
sg19
Nsg34
Nsg35
S'England'
p3177
sg37
Nsba(i__main__
Player
p3178
(dp3179
g23
(dp3180
g25
Nsg26
I83
sg27
Nsg28
Nsg29
Nsg30
Nsg31
Nssg5
S'K. Walker'
p3181
sg33
I27
sg19
Nsg34
Nsg35
S'England'
p3182
sg37
Nsba(i__main__
Player
p3183
(dp3184
g23
(dp3185
g25
Nsg26
I84
sg27
Nsg28
Nsg29
Nsg30
Nsg31
Nssg5
S'G. Cahill'
p3186
sg33
I31
sg19
Nsg34
Nsg35
S'England'
p3187
sg37
Nsba(i__main__
Player
p3188
(dp3189
g23
(dp3190
g25
Nsg26
I84
sg27
Nsg28
Nsg29
Nsg30
Nsg31
Nssg5
S'D. Alli'
p3191
sg33
I21
sg19
Nsg34
Nsg35
S'England'
p3192
sg37
Nsbasg148
I2
sg149
F12.0
sbasba(i__main__
Group
p3193
(dp3194
g3
(lp3195
I0
aI0
aI0
aI0
asg5
S'Group H'
p3196
sg7
(lp3197
(i__main__
Team
p3198
(dp3199
g11
Nsg5
S'Poland'
p3200
sg13
F144.005
sg14
I69
sg15
I1
sg16
I7
sg17
Nsg18
I3
sg19
(lp3201
(i__main__
Player
p3202
(dp3203
g23
(dp3204
g25
Nsg26
I56
sg27
Nsg28
Nsg29
Nsg30
Nsg31
Nssg5
S'D. Zieli\xc5\x84ski'
p3205
sg33
I20
sg19
Nsg34
Nsg35
S'Poland'
p3206
sg37
Nsba(i__main__
Player
p3207
(dp3208
g23
(dp3209
g25
Nsg26
I67
sg27
Nsg28
Nsg29
Nsg30
Nsg31
Nssg5
S'R. Kurzawa'
p3210
sg33
I24
sg19
Nsg34
Nsg35
S'Poland'
p3211
sg37
Nsba(i__main__
Player
p3212
(dp3213
g23
(dp3214
g25
Nsg26
I68
sg27
Nsg28
Nsg29
Nsg30
Nsg31
Nssg5
S'J. Bednarek'
p3215
sg33
I21
sg19
Nsg34
Nsg35
S'Poland'
p3216
sg37
Nsba(i__main__
Player
p3217
(dp3218
g23
(dp3219
g25
Nsg26
I68
sg27
Nsg28
Nsg29
Nsg30
Nsg31
Nssg5
S'D. Kownacki'
p3220
sg33
I20
sg19
Nsg34
Nsg35
S'Poland'
p3221
sg37
Nsba(i__main__
Player
p3222
(dp3223
g23
(dp3224
g25
Nsg26
I69
sg27
Nsg28
Nsg29
Nsg30
Nsg31
Nssg5
S'S. Peszko'
p3225
sg33
I32
sg19
Nsg34
Nsg35
S'Poland'
p3226
sg37
Nsba(i__main__
Player
p3227
(dp3228
g23
(dp3229
g25
Nsg26
I71
sg27
Nsg28
Nsg29
Nsg30
Nsg31
Nssg5
S'Thiago Cionek'
p3230
sg33
I31
sg19
Nsg34
Nsg35
S'Poland'
p3231
sg37
Nsba(i__main__
Player
p3232
(dp3233
g23
(dp3234
g25
Nsg26
I72
sg27
Nsg28
Nsg29
Nsg30
Nsg31
Nssg5
S'M. Rybus'
p3235
sg33
I27
sg19
Nsg34
Nsg35
S'Poland'
p3236
sg37
Nsba(i__main__
Player
p3237
(dp3238
g23
(dp3239
g25
Nsg26
I73
sg27
Nsg28
Nsg29
Nsg30
Nsg31
Nssg5
S'B. Bereszy\xc5\x84ski'
p3240
sg33
I24
sg19
Nsg34
Nsg35
S'Poland'
p3241
sg37
Nsba(i__main__
Player
p3242
(dp3243
g23
(dp3244
g25
Nsg26
I73
sg27
Nsg28
Nsg29
Nsg30
Nsg31
Nssg5
S'J. G\xc3\xb3ralski'
p3245
sg33
I24
sg19
Nsg34
Nsg35
S'Poland'
p3246
sg37
Nsba(i__main__
Player
p3247
(dp3248
g23
(dp3249
g25
Nsg26
I73
sg27
Nsg28
Nsg29
Nsg30
Nsg31
Nssg5
S'A. J\xc4\x99drzejczyk'
p3250
sg33
I29
sg19
Nsg34
Nsg35
S'Poland'
p3251
sg37
Nsba(i__main__
Player
p3252
(dp3253
g23
(dp3254
g25
Nsg26
I74
sg27
Nsg28
Nsg29
Nsg30
Nsg31
Nssg5
S'B. Bia\xc5\x82kowski'
p3255
sg33
I29
sg19
Nsg34
Nsg35
S'Poland'
p3256
sg37
Nsbasg85
I75
sg86
(lp3257
g3207
ag3212
ag3217
ag3222
ag3227
ag3232
ag3237
ag3242
ag3247
ag3252
a(i__main__
Player
p3258
(dp3259
g23
(dp3260
g25
Nsg26
I75
sg27
Nsg28
Nsg29
Nsg30
Nsg31
Nssg5
S'K. Linetty'
p3261
sg33
I22
sg19
Nsg34
Nsg35
S'Poland'
p3262
sg37
Nsbag3258
a(i__main__
Player
p3263
(dp3264
g23
(dp3265
g25
Nsg26
I76
sg27
Nsg28
Nsg29
Nsg30
Nsg31
Nssg5
S'M. Pazdan'
p3266
sg33
I29
sg19
Nsg34
Nsg35
S'Poland'
p3267
sg37
Nsba(i__main__
Player
p3268
(dp3269
g23
(dp3270
g25
Nsg26
I76
sg27
Nsg28
Nsg29
Nsg30
Nsg31
Nssg5
S'K. Grosicki'
p3271
sg33
I29
sg19
Nsg34
Nsg35
S'Poland'
p3272
sg37
Nsba(i__main__
Player
p3273
(dp3274
g23
(dp3275
g25
Nsg26
I76
sg27
Nsg28
Nsg29
Nsg30
Nsg31
Nssg5
S'J. B\xc5\x82aszczykowski'
p3276
sg33
I31
sg19
Nsg34
Nsg35
S'Poland'
p3277
sg37
Nsba(i__main__
Player
p3278
(dp3279
g23
(dp3280
g25
Nsg26
I78
sg27
Nsg28
Nsg29
Nsg30
Nsg31
Nssg5
S'L. Teodorczyk'
p3281
sg33
I26
sg19
Nsg34
Nsg35
S'Poland'
p3282
sg37
Nsba(i__main__
Player
p3283
(dp3284
g23
(dp3285
g25
Nsg26
I79
sg27
Nsg28
Nsg29
Nsg30
Nsg31
Nssg5
S'A. Milik'
p3286
sg33
I23
sg19
Nsg34
Nsg35
S'Poland'
p3287
sg37
Nsba(i__main__
Player
p3288
(dp3289
g23
(dp3290
g25
Nsg26
I80
sg27
Nsg28
Nsg29
Nsg30
Nsg31
Nssg5
S'L. Fabia\xc5\x84ski'
p3291
sg33
I32
sg19
Nsg34
Nsg35
S'Poland'
p3292
sg37
Nsba(i__main__
Player
p3293
(dp3294
g23
(dp3295
g25
Nsg26
I80
sg27
Nsg28
Nsg29
Nsg30
Nsg31
Nssg5
S'P. Zieli\xc5\x84ski'
p3296
sg33
I23
sg19
Nsg34
Nsg35
S'Poland'
p3297
sg37
Nsba(i__main__
Player
p3298
(dp3299
g23
(dp3300
g25
Nsg26
I81
sg27
Nsg28
Nsg29
Nsg30
Nsg31
Nssg5
S'G. Krychowiak'
p3301
sg33
I27
sg19
Nsg34
Nsg35
S'Poland'
p3302
sg37
Nsba(i__main__
Player
p3303
(dp3304
g23
(dp3305
g25
Nsg26
I82
sg27
Nsg28
Nsg29
Nsg30
Nsg31
Nssg5
S'W. Szcz\xc4\x99sny'
p3306
sg33
I27
sg19
Nsg34
Nsg35
S'Poland'
p3307
sg37
Nsba(i__main__
Player
p3308
(dp3309
g23
(dp3310
g25
Nsg26
I83
sg27
Nsg28
Nsg29
Nsg30
Nsg31
Nssg5
S'L. Piszczek'
p3311
sg33
I32
sg19
Nsg34
Nsg35
S'Poland'
p3312
sg37
Nsba(i__main__
Player
p3313
(dp3314
g23
(dp3315
g25
Nsg26
I85
sg27
Nsg28
Nsg29
Nsg30
Nsg31
Nssg5
S'K. Glik'
p3316
sg33
I29
sg19
Nsg34
Nsg35
S'Poland'
p3317
sg37
Nsbasg148
I2
sg149
F200.0
sba(i__main__
Team
p3318
(dp3319
g11
Nsg5
S'Senegal'
p3320
sg13
F146.008
sg14
I71
sg15
I1
sg16
I23
sg17
Nsg18
I3
sg19
(lp3321
(i__main__
Player
p3322
(dp3323
g23
(dp3324
g25
Nsg26
I68
sg27
Nsg28
Nsg29
Nsg30
Nsg31
Nssg5
S'A. Mbengue'
p3325
sg33
I25
sg19
Nsg34
Nsg35
S'Senegal'
p3326
sg37
Nsba(i__main__
Player
p3327
(dp3328
g23
(dp3329
g25
Nsg26
I70
sg27
Nsg28
Nsg29
Nsg30
Nsg31
Nssg5
S'A. Diallo'
p3330
sg33
I25
sg19
Nsg34
Nsg35
S'Senegal'
p3331
sg37
Nsba(i__main__
Player
p3332
(dp3333
g23
(dp3334
g25
Nsg26
I70
sg27
Nsg28
Nsg29
Nsg30
Nsg31
Nssg5
S'V. San\xc3\xa9'
p3335
sg33
I27
sg19
Nsg34
Nsg35
S'Senegal'
p3336
sg37
Nsba(i__main__
Player
p3337
(dp3338
g23
(dp3339
g25
Nsg26
I71
sg27
Nsg28
Nsg29
Nsg30
Nsg31
Nssg5
S'B. Sarr'
p3340
sg33
I26
sg19
Nsg34
Nsg35
S'Senegal'
p3341
sg37
Nsba(i__main__
Player
p3342
(dp3343
g23
(dp3344
g25
Nsg26
I71
sg27
Nsg28
Nsg29
Nsg30
Nsg31
Nssg5
S'P. San\xc3\xa9'
p3345
sg33
I25
sg19
Nsg34
Nsg35
S'Senegal'
p3346
sg37
Nsba(i__main__
Player
p3347
(dp3348
g23
(dp3349
g25
Nsg26
I71
sg27
Nsg28
Nsg29
Nsg30
Nsg31
Nssg5
S"D. N'Doye"
p3350
sg33
I32
sg19
Nsg34
Nsg35
S'Senegal'
p3351
sg37
Nsba(i__main__
Player
p3352
(dp3353
g23
(dp3354
g25
Nsg26
I71
sg27
Nsg28
Nsg29
Nsg30
Nsg31
Nssg5
S'I. Sarr'
p3355
sg33
I30
sg19
Nsg34
Nsg35
S'Senegal'
p3356
sg37
Nsba(i__main__
Player
p3357
(dp3358
g23
(dp3359
g25
Nsg26
I72
sg27
Nsg28
Nsg29
Nsg30
Nsg31
Nssg5
S'M. Diallo'
p3360
sg33
I31
sg19
Nsg34
Nsg35
S'Senegal'
p3361
sg37
Nsba(i__main__
Player
p3362
(dp3363
g23
(dp3364
g25
Nsg26
I73
sg27
Nsg28
Nsg29
Nsg30
Nsg31
Nssg5
S'I. Sarr'
p3365
sg33
I19
sg19
Nsg34
Nsg35
S'Senegal'
p3366
sg37
Nsba(i__main__
Player
p3367
(dp3368
g23
(dp3369
g25
Nsg26
I73
sg27
Nsg28
Nsg29
Nsg30
Nsg31
Nssg5
S'A. Gomis'
p3370
sg33
I23
sg19
Nsg34
Nsg35
S'Senegal'
p3371
sg37
Nsba(i__main__
Player
p3372
(dp3373
g23
(dp3374
g25
Nsg26
I74
sg27
Nsg28
Nsg29
Nsg30
Nsg31
Nssg5
S'M. Konat\xc3\xa9'
p3375
sg33
I24
sg19
Nsg34
Nsg35
S'Senegal'
p3376
sg37
Nsbasg85
I75
sg86
(lp3377
g3327
ag3332
ag3337
ag3342
ag3347
ag3352
ag3357
ag3362
ag3367
ag3372
a(i__main__
Player
p3378
(dp3379
g23
(dp3380
g25
Nsg26
I75
sg27
Nsg28
Nsg29
Nsg30
Nsg31
Nssg5
S'D. Sakho'
p3381
sg33
I27
sg19
Nsg34
Nsg35
S'Senegal'
p3382
sg37
Nsbag3378
a(i__main__
Player
p3383
(dp3384
g23
(dp3385
g25
Nsg26
I76
sg27
Nsg28
Nsg29
Nsg30
Nsg31
Nssg5
S"C. N'Doye"
p3386
sg33
I31
sg19
Nsg34
Nsg35
S'Senegal'
p3387
sg37
Nsba(i__main__
Player
p3388
(dp3389
g23
(dp3390
g25
Nsg26
I77
sg27
Nsg28
Nsg29
Nsg30
Nsg31
Nssg5
S'L. San\xc3\xa9'
p3391
sg33
I30
sg19
Nsg34
Nsg35
S'Senegal'
p3392
sg37
Nsba(i__main__
Player
p3393
(dp3394
g23
(dp3395
g25
Nsg26
I77
sg27
Nsg28
Nsg29
Nsg30
Nsg31
Nssg5
S'M. Diouf'
p3396
sg33
I29
sg19
Nsg34
Nsg35
S'Senegal'
p3397
sg37
Nsba(i__main__
Player
p3398
(dp3399
g23
(dp3400
g25
Nsg26
I77
sg27
Nsg28
Nsg29
Nsg30
Nsg31
Nssg5
S'Badou Ndiaye'
p3401
sg33
I26
sg19
Nsg34
Nsg35
S'Senegal'
p3402
sg37
Nsba(i__main__
Player
p3403
(dp3404
g23
(dp3405
g25
Nsg26
I78
sg27
Nsg28
Nsg29
Nsg30
Nsg31
Nssg5
S'K. Mbodj'
p3406
sg33
I27
sg19
Nsg34
Nsg35
S'Senegal'
p3407
sg37
Nsba(i__main__
Player
p3408
(dp3409
g23
(dp3410
g25
Nsg26
I78
sg27
Nsg28
Nsg29
Nsg30
Nsg31
Nssg5
S'K. Mbodj'
p3411
sg33
I27
sg19
Nsg34
Nsg35
S'Senegal'
p3412
sg37
Nsba(i__main__
Player
p3413
(dp3414
g23
(dp3415
g25
Nsg26
I78
sg27
Nsg28
Nsg29
Nsg30
Nsg31
Nssg5
S"A. N'Diaye"
p3416
sg33
I27
sg19
Nsg34
Nsg35
S'Senegal'
p3417
sg37
Nsba(i__main__
Player
p3418
(dp3419
g23
(dp3420
g25
Nsg26
I79
sg27
Nsg28
Nsg29
Nsg30
Nsg31
Nssg5
S'S. San\xc3\xa9'
p3421
sg33
I26
sg19
Nsg34
Nsg35
S'Senegal'
p3422
sg37
Nsba(i__main__
Player
p3423
(dp3424
g23
(dp3425
g25
Nsg26
I83
sg27
Nsg28
Nsg29
Nsg30
Nsg31
Nssg5
S'I. Gueye'
p3426
sg33
I27
sg19
Nsg34
Nsg35
S'Senegal'
p3427
sg37
Nsba(i__main__
Player
p3428
(dp3429
g23
(dp3430
g25
Nsg26
I84
sg27
Nsg28
Nsg29
Nsg30
Nsg31
Nssg5
S'K. Koulibaly'
p3431
sg33
I26
sg19
Nsg34
Nsg35
S'Senegal'
p3432
sg37
Nsba(i__main__
Player
p3433
(dp3434
g23
(dp3435
g25
Nsg26
I84
sg27
Nsg28
Nsg29
Nsg30
Nsg31
Nssg5
S'S. Man\xc3\xa9'
p3436
sg33
I25
sg19
Nsg34
Nsg35
S'Senegal'
p3437
sg37
Nsbasg148
I2
sg149
F125.0
sba(i__main__
Team
p3438
(dp3439
g11
Nsg5
S'Colombia'
p3440
sg13
F151.01
sg14
I74
sg15
I1
sg16
I13
sg17
Nsg18
I3
sg19
(lp3441
(i__main__
Player
p3442
(dp3443
g23
(dp3444
g25
Nsg26
I73
sg27
Nsg28
Nsg29
Nsg30
Nsg31
Nssg5
S'M. Uribe'
p3445
sg33
I26
sg19
Nsg34
Nsg35
S'Colombia'
p3446
sg37
Nsba(i__main__
Player
p3447
(dp3448
g23
(dp3449
g25
Nsg26
I73
sg27
Nsg28
Nsg29
Nsg30
Nsg31
Nssg5
S'F. D\xc3\xadaz'
p3450
sg33
I33
sg19
Nsg34
Nsg35
S'Colombia'
p3451
sg37
Nsba(i__main__
Player
p3452
(dp3453
g23
(dp3454
g25
Nsg26
I73
sg27
Nsg28
Nsg29
Nsg30
Nsg31
Nssg5
S'A. Rodr\xc3\xadguez'
p3455
sg33
I28
sg19
Nsg34
Nsg35
S'Colombia'
p3456
sg37
Nsba(i__main__
Player
p3457
(dp3458
g23
(dp3459
g25
Nsg26
I73
sg27
Nsg28
Nsg29
Nsg30
Nsg31
Nssg5
S'M. Barrios'
p3460
sg33
I26
sg19
Nsg34
Nsg35
S'Colombia'
p3461
sg37
Nsba(i__main__
Player
p3462
(dp3463
g23
(dp3464
g25
Nsg26
I74
sg27
Nsg28
Nsg29
Nsg30
Nsg31
Nssg5
S'J. Cuadrado'
p3465
sg33
I32
sg19
Nsg34
Nsg35
S'Colombia'
p3466
sg37
Nsba(i__main__
Player
p3467
(dp3468
g23
(dp3469
g25
Nsg26
I74
sg27
Nsg28
Nsg29
Nsg30
Nsg31
Nssg5
S'W. Barrios'
p3470
sg33
I23
sg19
Nsg34
Nsg35
S'Colombia'
p3471
sg37
Nsba(i__main__
Player
p3472
(dp3473
g23
(dp3474
g25
Nsg26
I74
sg27
Nsg28
Nsg29
Nsg30
Nsg31
Nssg5
S'F. Uribe'
p3475
sg33
I29
sg19
Nsg34
Nsg35
S'Colombia'
p3476
sg37
Nsba(i__main__
Player
p3477
(dp3478
g23
(dp3479
g25
Nsg26
I75
sg27
Nsg28
Nsg29
Nsg30
Nsg31
Nssg5
S'A. Aguilar'
p3480
sg33
I32
sg19
Nsg34
Nsg35
S'Colombia'
p3481
sg37
Nsba(i__main__
Player
p3482
(dp3483
g23
(dp3484
g25
Nsg26
I75
sg27
Nsg28
Nsg29
Nsg30
Nsg31
Nssg5
S'C. Vargas'
p3485
sg33
I28
sg19
Nsg34
Nsg35
S'Colombia'
p3486
sg37
Nsba(i__main__
Player
p3487
(dp3488
g23
(dp3489
g25
Nsg26
I75
sg27
Nsg28
Nsg29
Nsg30
Nsg31
Nssg5
S'J. Lerma'
p3490
sg33
I22
sg19
Nsg34
Nsg35
S'Colombia'
p3491
sg37
Nsba(i__main__
Player
p3492
(dp3493
g23
(dp3494
g25
Nsg26
I76
sg27
Nsg28
Nsg29
Nsg30
Nsg31
Nssg5
S'O. Murillo'
p3495
sg33
I29
sg19
Nsg34
Nsg35
S'Colombia'
p3496
sg37
Nsbasg85
I77
sg86
(lp3497
g3447
ag3452
ag3457
ag3462
ag3467
ag3472
ag3477
ag3482
ag3487
ag3492
a(i__main__
Player
p3498
(dp3499
g23
(dp3500
g25
Nsg26
I77
sg27
Nsg28
Nsg29
Nsg30
Nsg31
Nssg5
S'S. Arias'
p3501
sg33
I25
sg19
Nsg34
Nsg35
S'Colombia'
p3502
sg37
Nsbag3498
a(i__main__
Player
p3503
(dp3504
g23
(dp3505
g25
Nsg26
I77
sg27
Nsg28
Nsg29
Nsg30
Nsg31
Nssg5
S'C. S\xc3\xa1nchez'
p3506
sg33
I31
sg19
Nsg34
Nsg35
S'Colombia'
p3507
sg37
Nsba(i__main__
Player
p3508
(dp3509
g23
(dp3510
g25
Nsg26
I77
sg27
Nsg28
Nsg29
Nsg30
Nsg31
Nssg5
S'J. Quintero'
p3511
sg33
I24
sg19
Nsg34
Nsg35
S'Colombia'
p3512
sg37
Nsba(i__main__
Player
p3513
(dp3514
g23
(dp3515
g25
Nsg26
I78
sg27
Nsg28
Nsg29
Nsg30
Nsg31
Nssg5
S'D. Zapata'
p3516
sg33
I26
sg19
Nsg34
Nsg35
S'Colombia'
p3517
sg37
Nsba(i__main__
Player
p3518
(dp3519
g23
(dp3520
g25
Nsg26
I78
sg27
Nsg28
Nsg29
Nsg30
Nsg31
Nssg5
S'J. Izquierdo'
p3521
sg33
I24
sg19
Nsg34
Nsg35
S'Colombia'
p3522
sg37
Nsba(i__main__
Player
p3523
(dp3524
g23
(dp3525
g25
Nsg26
I79
sg27
Nsg28
Nsg29
Nsg30
Nsg31
Nssg5
S'J. Murillo'
p3526
sg33
I25
sg19
Nsg34
Nsg35
S'Colombia'
p3527
sg37
Nsba(i__main__
Player
p3528
(dp3529
g23
(dp3530
g25
Nsg26
I79
sg27
Nsg28
Nsg29
Nsg30
Nsg31
Nssg5
S'D. Ospina'
p3531
sg33
I28
sg19
Nsg34
Nsg35
S'Colombia'
p3532
sg37
Nsba(i__main__
Player
p3533
(dp3534
g23
(dp3535
g25
Nsg26
I80
sg27
Nsg28
Nsg29
Nsg30
Nsg31
Nssg5
S'L. Muriel'
p3536
sg33
I26
sg19
Nsg34
Nsg35
S'Colombia'
p3537
sg37
Nsba(i__main__
Player
p3538
(dp3539
g23
(dp3540
g25
Nsg26
I81
sg27
Nsg28
Nsg29
Nsg30
Nsg31
Nssg5
S'D. S\xc3\xa1nchez'
p3541
sg33
I21
sg19
Nsg34
Nsg35
S'Colombia'
p3542
sg37
Nsba(i__main__
Player
p3543
(dp3544
g23
(dp3545
g25
Nsg26
I82
sg27
Nsg28
Nsg29
Nsg30
Nsg31
Nssg5
S'C. Bacca'
p3546
sg33
I30
sg19
Nsg34
Nsg35
S'Colombia'
p3547
sg37
Nsba(i__main__
Player
p3548
(dp3549
g23
(dp3550
g25
Nsg26
I82
sg27
Nsg28
Nsg29
Nsg30
Nsg31
Nssg5
S'J. Cuadrado'
p3551
sg33
I29
sg19
Nsg34
Nsg35
S'Colombia'
p3552
sg37
Nsba(i__main__
Player
p3553
(dp3554
g23
(dp3555
g25
Nsg26
I86
sg27
Nsg28
Nsg29
Nsg30
Nsg31
Nssg5
S'J. Rodr\xc3\xadguez'
p3556
sg33
I25
sg19
Nsg34
Nsg35
S'Colombia'
p3557
sg37
Nsbasg148
I2
sg149
F100.0
sba(i__main__
Team
p3558
(dp3559
g11
Nsg5
S'Japan'
p3560
sg13
F143.00285714285715
sg14
I70
sg15
I1
sg16
I55
sg17
Nsg18
I3
sg19
(lp3561
(i__main__
Player
p3562
(dp3563
g23
(dp3564
g25
Nsg26
I69
sg27
Nsg28
Nsg29
Nsg30
Nsg31
Nssg5
S'W. Endo'
p3565
sg33
I24
sg19
Nsg34
Nsg35
S'Japan'
p3566
sg37
Nsba(i__main__
Player
p3567
(dp3568
g23
(dp3569
g25
Nsg26
I69
sg27
Nsg28
Nsg29
Nsg30
Nsg31
Nssg5
S'T. Makino'
p3570
sg33
I30
sg19
Nsg34
Nsg35
S'Japan'
p3571
sg37
Nsba(i__main__
Player
p3572
(dp3573
g23
(dp3574
g25
Nsg26
I69
sg27
Nsg28
Nsg29
Nsg30
Nsg31
Nssg5
S'K. Nakamura'
p3575
sg33
I22
sg19
Nsg34
Nsg35
S'Japan'
p3576
sg37
Nsba(i__main__
Player
p3577
(dp3578
g23
(dp3579
g25
Nsg26
I70
sg27
Nsg28
Nsg29
Nsg30
Nsg31
Nssg5
S'H. Yamaguchi'
p3580
sg33
I26
sg19
Nsg34
Nsg35
S'Japan'
p3581
sg37
Nsba(i__main__
Player
p3582
(dp3583
g23
(dp3584
g25
Nsg26
I70
sg27
Nsg28
Nsg29
Nsg30
Nsg31
Nssg5
S'N. Ueda'
p3585
sg33
I22
sg19
Nsg34
Nsg35
S'Japan'
p3586
sg37
Nsba(i__main__
Player
p3587
(dp3588
g23
(dp3589
g25
Nsg26
I70
sg27
Nsg28
Nsg29
Nsg30
Nsg31
Nssg5
S'K. Shibasaki'
p3590
sg33
I32
sg19
Nsg34
Nsg35
S'Japan'
p3591
sg37
Nsba(i__main__
Player
p3592
(dp3593
g23
(dp3594
g25
Nsg26
I71
sg27
Nsg28
Nsg29
Nsg30
Nsg31
Nssg5
S'S. Nakamura'
p3595
sg33
I39
sg19
Nsg34
Nsg35
S'Japan'
p3596
sg37
Nsba(i__main__
Player
p3597
(dp3598
g23
(dp3599
g25
Nsg26
I72
sg27
Nsg28
Nsg29
Nsg30
Nsg31
Nssg5
S'E. Kawashima'
p3600
sg33
I34
sg19
Nsg34
Nsg35
S'Japan'
p3601
sg37
Nsba(i__main__
Player
p3602
(dp3603
g23
(dp3604
g25
Nsg26
I72
sg27
Nsg28
Nsg29
Nsg30
Nsg31
Nssg5
S'Y. Endo'
p3605
sg33
I37
sg19
Nsg34
Nsg35
S'Japan'
p3606
sg37
Nsba(i__main__
Player
p3607
(dp3608
g23
(dp3609
g25
Nsg26
I72
sg27
Nsg28
Nsg29
Nsg30
Nsg31
Nssg5
S'M. Higashiguchi'
p3610
sg33
I31
sg19
Nsg34
Nsg35
S'Japan'
p3611
sg37
Nsba(i__main__
Player
p3612
(dp3613
g23
(dp3614
g25
Nsg26
I73
sg27
Nsg28
Nsg29
Nsg30
Nsg31
Nssg5
S'K. Nakamura'
p3615
sg33
I36
sg19
Nsg34
Nsg35
S'Japan'
p3616
sg37
Nsbasg85
I73
sg86
(lp3617
g3567
ag3572
ag3577
ag3582
ag3587
ag3592
ag3597
ag3602
ag3607
ag3612
a(i__main__
Player
p3618
(dp3619
g23
(dp3620
g25
Nsg26
I73
sg27
Nsg28
Nsg29
Nsg30
Nsg31
Nssg5
S'Y. Nagatomo'
p3621
sg33
I30
sg19
Nsg34
Nsg35
S'Japan'
p3622
sg37
Nsbag3618
a(i__main__
Player
p3623
(dp3624
g23
(dp3625
g25
Nsg26
I73
sg27
Nsg28
Nsg29
Nsg30
Nsg31
Nssg5
S'G. Shoji'
p3626
sg33
I24
sg19
Nsg34
Nsg35
S'Japan'
p3627
sg37
Nsba(i__main__
Player
p3628
(dp3629
g23
(dp3630
g25
Nsg26
I74
sg27
Nsg28
Nsg29
Nsg30
Nsg31
Nssg5
S'G. Sakai'
p3631
sg33
I26
sg19
Nsg34
Nsg35
S'Japan'
p3632
sg37
Nsba(i__main__
Player
p3633
(dp3634
g23
(dp3635
g25
Nsg26
I74
sg27
Nsg28
Nsg29
Nsg30
Nsg31
Nssg5
S'T. Usami'
p3636
sg33
I25
sg19
Nsg34
Nsg35
S'Japan'
p3637
sg37
Nsba(i__main__
Player
p3638
(dp3639
g23
(dp3640
g25
Nsg26
I75
sg27
Nsg28
Nsg29
Nsg30
Nsg31
Nssg5
S'G. Shibasaki'
p3641
sg33
I25
sg19
Nsg34
Nsg35
S'Japan'
p3642
sg37
Nsba(i__main__
Player
p3643
(dp3644
g23
(dp3645
g25
Nsg26
I75
sg27
Nsg28
Nsg29
Nsg30
Nsg31
Nssg5
S'M. Yoshida'
p3646
sg33
I28
sg19
Nsg34
Nsg35
S'Japan'
p3647
sg37
Nsba(i__main__
Player
p3648
(dp3649
g23
(dp3650
g25
Nsg26
I75
sg27
Nsg28
Nsg29
Nsg30
Nsg31
Nssg5
S'G. Haraguchi'
p3651
sg33
I26
sg19
Nsg34
Nsg35
S'Japan'
p3652
sg37
Nsba(i__main__
Player
p3653
(dp3654
g23
(dp3655
g25
Nsg26
I75
sg27
Nsg28
Nsg29
Nsg30
Nsg31
Nssg5
S'H. Sakai'
p3656
sg33
I27
sg19
Nsg34
Nsg35
S'Japan'
p3657
sg37
Nsba(i__main__
Player
p3658
(dp3659
g23
(dp3660
g25
Nsg26
I77
sg27
Nsg28
Nsg29
Nsg30
Nsg31
Nssg5
S'S. Okazaki'
p3661
sg33
I31
sg19
Nsg34
Nsg35
S'Japan'
p3662
sg37
Nsba(i__main__
Player
p3663
(dp3664
g23
(dp3665
g25
Nsg26
I78
sg27
Nsg28
Nsg29
Nsg30
Nsg31
Nssg5
S'T. Inui'
p3666
sg33
I29
sg19
Nsg34
Nsg35
S'Japan'
p3667
sg37
Nsba(i__main__
Player
p3668
(dp3669
g23
(dp3670
g25
Nsg26
I78
sg27
Nsg28
Nsg29
Nsg30
Nsg31
Nssg5
S'K. Honda'
p3671
sg33
I31
sg19
Nsg34
Nsg35
S'Japan'
p3672
sg37
Nsba(i__main__
Player
p3673
(dp3674
g23
(dp3675
g25
Nsg26
I83
sg27
Nsg28
Nsg29
Nsg30
Nsg31
Nssg5
S'S. Kagawa'
p3676
sg33
I28
sg19
Nsg34
Nsg35
S'Japan'
p3677
sg37
Nsbasg148
I2
sg149
F350.0
sbasba.