(lp0
(i__main__
Group
p1
(dp2
S'scores'
p3
(lp4
I0
aI0
aI0
aI0
asS'name'
p5
S'Group A'
p6
sS'teams'
p7
(lp8
(i__main__
Team
p9
(dp10
S'trainer'
p11
NsS'gdp'
p12
I1577524
sS'averagePace'
p13
I69
sg5
S'Russia'
p14
sS'power'
p15
F126.77524
sS'regularPower'
p16
I78
sS'matchDraw'
p17
I1
sS'rank'
p18
I65
sS'matchWon'
p19
I3
sS'regular'
p20
(lp21
(i__main__
Player
p22
(dp23
S'stats'
p24
(dp25
S'dribbling'
p26
NsS'overall'
p27
I81
sS'pace'
p28
I83
sS'defending'
p29
NsS'phisichal'
p30
NsS'passing'
p31
NsS'shooting'
p32
Nssg5
S'M\xc3\xa1rio Fernandes'
p33
sS'age'
p34
I26
sg20
NsS'nAccidents'
p35
NsS'team'
p36
S'Russia'
p37
sS'position'
p38
Nsba(i__main__
Player
p39
(dp40
g24
(dp41
g26
Nsg27
I80
sg28
I77
sg29
Nsg30
Nsg31
Nsg32
Nssg5
S'A. Dzagoev'
p42
sg34
I27
sg20
Nsg35
Nsg36
S'Russia'
p43
sg38
Nsba(i__main__
Player
p44
(dp45
g24
(dp46
g26
Nsg27
I80
sg28
I87
sg29
Nsg30
Nsg31
Nsg32
Nssg5
S'F. Smolov'
p47
sg34
I27
sg20
Nsg35
Nsg36
S'Russia'
p48
sg38
Nsba(i__main__
Player
p49
(dp50
g24
(dp51
g26
Nsg27
I79
sg28
I87
sg29
Nsg30
Nsg31
Nsg32
Nssg5
S'I. Smolnikov'
p52
sg34
I28
sg20
Nsg35
Nsg36
S'Russia'
p53
sg38
Nsba(i__main__
Player
p54
(dp55
g24
(dp56
g26
Nsg27
I79
sg28
I80
sg29
Nsg30
Nsg31
Nsg32
Nssg5
S'A. Samedov'
p57
sg34
I32
sg20
Nsg35
Nsg36
S'Russia'
p58
sg38
Nsba(i__main__
Player
p59
(dp60
g24
(dp61
g26
Nsg27
I78
sg28
I80
sg29
Nsg30
Nsg31
Nsg32
Nssg5
S'D. Cheryshev'
p62
sg34
I26
sg20
Nsg35
Nsg36
S'Russia'
p63
sg38
Nsba(i__main__
Player
p64
(dp65
g24
(dp66
g26
Nsg27
I78
sg28
I80
sg29
Nsg30
Nsg31
Nsg32
Nssg5
S'D. Cheryshev'
p67
sg34
I26
sg20
Nsg35
Nsg36
S'Russia'
p68
sg38
Nsba(i__main__
Player
p69
(dp70
g24
(dp71
g26
Nsg27
I78
sg28
I33
sg29
Nsg30
Nsg31
Nsg32
Nssg5
S'S. Ignashevich'
p72
sg34
I37
sg20
Nsg35
Nsg36
S'Russia'
p73
sg38
Nsba(i__main__
Player
p74
(dp75
g24
(dp76
g26
Nsg27
I78
sg28
I65
sg29
Nsg30
Nsg31
Nsg32
Nssg5
S'A. Dzyuba'
p77
sg34
I28
sg20
Nsg35
Nsg36
S'Russia'
p78
sg38
Nsba(i__main__
Player
p79
(dp80
g24
(dp81
g26
Nsg27
I77
sg28
I76
sg29
Nsg30
Nsg31
Nsg32
Nssg5
S'R. Zobnin'
p82
sg34
I23
sg20
Nsg35
Nsg36
S'Russia'
p83
sg38
Nsba(i__main__
Player
p84
(dp85
g24
(dp86
g26
Nsg27
I76
sg28
I75
sg29
Nsg30
Nsg31
Nsg32
Nssg5
S'Y. Zhirkov'
p87
sg34
I33
sg20
Nsg35
Nsg36
S'Russia'
p88
sg38
NsbasS'reservePower'
p89
I73
sS'reserve'
p90
(lp91
(i__main__
Player
p92
(dp93
g24
(dp94
g26
Nsg27
I76
sg28
I81
sg29
Nsg30
Nsg31
Nsg32
Nssg5
S'A. Golovin'
p95
sg34
I21
sg20
Nsg35
Nsg36
S'Russia'
p96
sg38
Nsba(i__main__
Player
p97
(dp98
g24
(dp99
g26
Nsg27
I75
sg28
I65
sg29
Nsg30
Nsg31
Nsg32
Nssg5
S'Y. Gazinskiy'
p100
sg34
I27
sg20
Nsg35
Nsg36
S'Russia'
p101
sg38
Nsba(i__main__
Player
p102
(dp103
g24
(dp104
g26
Nsg27
I75
sg28
I69
sg29
Nsg30
Nsg31
Nsg32
Nssg5
S'Almost a dummy boy'
p105
sg34
I27
sg20
Nsg35
Nsg36
g14
sg38
Nsba(i__main__
Player
p106
(dp107
g24
(dp108
g26
Nsg27
I75
sg28
I69
sg29
Nsg30
Nsg31
Nsg32
Nssg5
g105
sg34
I27
sg20
Nsg35
Nsg36
g14
sg38
Nsba(i__main__
Player
p109
(dp110
g24
(dp111
g26
Nsg27
I74
sg28
I56
sg29
Nsg30
Nsg31
Nsg32
Nssg5
S'V. Gabulov'
p112
sg34
I33
sg20
Nsg35
Nsg36
S'Russia'
p113
sg38
Nsba(i__main__
Player
p114
(dp115
g24
(dp116
g26
Nsg27
I74
sg28
I73
sg29
Nsg30
Nsg31
Nsg32
Nssg5
S'A. Miranchuk'
p117
sg34
I21
sg20
Nsg35
Nsg36
S'Russia'
p118
sg38
Nsba(i__main__
Player
p119
(dp120
g24
(dp121
g26
Nsg27
I74
sg28
I75
sg29
Nsg30
Nsg31
Nsg32
Nssg5
S'D. Kuzyaev'
p122
sg34
I24
sg20
Nsg35
Nsg36
S'Russia'
p123
sg38
Nsba(i__main__
Player
p124
(dp125
g24
(dp126
g26
Nsg27
I73
sg28
I72
sg29
Nsg30
Nsg31
Nsg32
Nssg5
S'F. Kudryashov'
p127
sg34
I30
sg20
Nsg35
Nsg36
S'Russia'
p128
sg38
Nsba(i__main__
Player
p129
(dp130
g24
(dp131
g26
Nsg27
I73
sg28
I32
sg29
Nsg30
Nsg31
Nsg32
Nssg5
S'I. Kutepov'
p132
sg34
I23
sg20
Nsg35
Nsg36
S'Russia'
p133
sg38
Nsba(i__main__
Player
p134
(dp135
g24
(dp136
g26
Nsg27
I72
sg28
I43
sg29
Nsg30
Nsg31
Nsg32
Nssg5
S'V. Granat'
p137
sg34
I30
sg20
Nsg35
Nsg36
S'Russia'
p138
sg38
Nsba(i__main__
Player
p139
(dp140
g24
(dp141
g26
Nsg27
I68
sg28
I70
sg29
Nsg30
Nsg31
Nsg32
Nssg5
S'A. Miranchuk'
p142
sg34
I21
sg20
Nsg35
Nsg36
S'Russia'
p143
sg38
Nsba(i__main__
Player
p144
(dp145
g24
(dp146
g26
Nsg27
I67
sg28
I68
sg29
Nsg30
Nsg31
Nsg32
Nssg5
S'G. Gabulov'
p147
sg34
I28
sg20
Nsg35
Nsg36
S'Russia'
p148
sg38
NsbasS'matchLose'
p149
I2
sS'quotation'
p150
F40.0
sba(i__main__
Team
p151
(dp152
g11
Nsg12
I683827
sg13
I60
sg5
S'Saudi Arabia'
p153
sg15
F-871.16173
sg16
I65
sg17
I1
sg18
I63
sg19
I3
sg20
(lp154
(i__main__
Player
p155
(dp156
g24
(dp157
g26
Nsg27
I75
sg28
I71
sg29
Nsg30
Nsg31
Nsg32
Nssg5
S'O. Hawsawi'
p158
sg34
I33
sg20
Nsg35
Nsg36
S'Saudi Arabia'
p159
sg38
Nsba(i__main__
Player
p160
(dp161
g24
(dp162
g26
Nsg27
I74
sg28
I66
sg29
Nsg30
Nsg31
Nsg32
Nssg5
S'M. Hawsawi'
p163
sg34
I25
sg20
Nsg35
Nsg36
S'Saudi Arabia'
p164
sg38
Nsba(i__main__
Player
p165
(dp166
g24
(dp167
g26
Nsg27
I71
sg28
I63
sg29
Nsg30
Nsg31
Nsg32
Nssg5
S'A. Asiri'
p168
sg34
I25
sg20
Nsg35
Nsg36
S'Saudi Arabia'
p169
sg38
Nsba(i__main__
Player
p170
(dp171
g24
(dp172
g26
Nsg27
I67
sg28
I74
sg29
Nsg30
Nsg31
Nsg32
Nssg5
S'M. Kanno'
p173
sg34
I22
sg20
Nsg35
Nsg36
S'Saudi Arabia'
p174
sg38
Nsba(i__main__
Player
p175
(dp176
g24
(dp177
g26
Nsg27
I66
sg28
I77
sg29
Nsg30
Nsg31
Nsg32
Nssg5
S'H. Bahebri'
p178
sg34
I24
sg20
Nsg35
Nsg36
S'Saudi Arabia'
p179
sg38
Nsba(i__main__
Player
p180
(dp181
g24
(dp182
g26
Nsg27
I61
sg28
I60
sg29
Nsg30
Nsg31
Nsg32
Nssg5
g105
sg34
I25
sg20
Nsg35
Nsg36
g153
sg38
Nsba(i__main__
Player
p183
(dp184
g24
(dp185
g26
Nsg27
I61
sg28
I60
sg29
Nsg30
Nsg31
Nsg32
Nssg5
g105
sg34
I25
sg20
Nsg35
Nsg36
g153
sg38
Nsba(i__main__
Player
p186
(dp187
g24
(dp188
g26
Nsg27
I61
sg28
I60
sg29
Nsg30
Nsg31
Nsg32
Nssg5
g105
sg34
I25
sg20
Nsg35
Nsg36
g153
sg38
Nsba(i__main__
Player
p189
(dp190
g24
(dp191
g26
Nsg27
I61
sg28
I60
sg29
Nsg30
Nsg31
Nsg32
Nssg5
g105
sg34
I25
sg20
Nsg35
Nsg36
g153
sg38
Nsba(i__main__
Player
p192
(dp193
g24
(dp194
g26
Nsg27
I61
sg28
I60
sg29
Nsg30
Nsg31
Nsg32
Nssg5
g105
sg34
I25
sg20
Nsg35
Nsg36
g153
sg38
Nsba(i__main__
Player
p195
(dp196
g24
(dp197
g26
Nsg27
I61
sg28
I60
sg29
Nsg30
Nsg31
Nsg32
Nssg5
g105
sg34
I25
sg20
Nsg35
Nsg36
g153
sg38
Nsbasg89
I57
sg90
(lp198
(i__main__
Player
p199
(dp200
g24
(dp201
g26
Nsg27
I61
sg28
I60
sg29
Nsg30
Nsg31
Nsg32
Nssg5
g105
sg34
I25
sg20
Nsg35
Nsg36
g153
sg38
Nsba(i__main__
Player
p202
(dp203
g24
(dp204
g26
Nsg27
I61
sg28
I60
sg29
Nsg30
Nsg31
Nsg32
Nssg5
g105
sg34
I25
sg20
Nsg35
Nsg36
g153
sg38
Nsba(i__main__
Player
p205
(dp206
g24
(dp207
g26
Nsg27
I61
sg28
I60
sg29
Nsg30
Nsg31
Nsg32
Nssg5
g105
sg34
I25
sg20
Nsg35
Nsg36
g153
sg38
Nsba(i__main__
Player
p208
(dp209
g24
(dp210
g26
Nsg27
I61
sg28
I60
sg29
Nsg30
Nsg31
Nsg32
Nssg5
g105
sg34
I25
sg20
Nsg35
Nsg36
g153
sg38
Nsba(i__main__
Player
p211
(dp212
g24
(dp213
g26
Nsg27
I61
sg28
I60
sg29
Nsg30
Nsg31
Nsg32
Nssg5
g105
sg34
I25
sg20
Nsg35
Nsg36
g153
sg38
Nsba(i__main__
Player
p214
(dp215
g24
(dp216
g26
Nsg27
I58
sg28
I62
sg29
Nsg30
Nsg31
Nsg32
Nssg5
S'O. Hawsawi'
p217
sg34
I24
sg20
Nsg35
Nsg36
S'Saudi Arabia'
p218
sg38
Nsba(i__main__
Player
p219
(dp220
g24
(dp221
g26
Nsg27
I58
sg28
I61
sg29
Nsg30
Nsg31
Nsg32
Nssg5
S'S. Otayf'
p222
sg34
I26
sg20
Nsg35
Nsg36
S'Saudi Arabia'
p223
sg38
Nsba(i__main__
Player
p224
(dp225
g24
(dp226
g26
Nsg27
I56
sg28
I37
sg29
Nsg30
Nsg31
Nsg32
Nssg5
S'M. Asiri'
p227
sg34
I24
sg20
Nsg35
Nsg36
S'Saudi Arabia'
p228
sg38
Nsba(i__main__
Player
p229
(dp230
g24
(dp231
g26
Nsg27
I55
sg28
I60
sg29
Nsg30
Nsg31
Nsg32
Nssg5
S'M. Asiri'
p232
sg34
I25
sg20
Nsg35
Nsg36
S'Saudi Arabia'
p233
sg38
Nsba(i__main__
Player
p234
(dp235
g24
(dp236
g26
Nsg27
I55
sg28
I69
sg29
Nsg30
Nsg31
Nsg32
Nssg5
S'A. Al Assiri'
p237
sg34
I28
sg20
Nsg35
Nsg36
S'Saudi Arabia'
p238
sg38
Nsba(i__main__
Player
p239
(dp240
g24
(dp241
g26
Nsg27
I55
sg28
I47
sg29
Nsg30
Nsg31
Nsg32
Nssg5
S'S. Hawsawi'
p242
sg34
I25
sg20
Nsg35
Nsg36
S'Saudi Arabia'
p243
sg38
Nsba(i__main__
Player
p244
(dp245
g24
(dp246
g26
Nsg27
I52
sg28
I37
sg29
Nsg30
Nsg31
Nsg32
Nssg5
S'H. Hawsawi'
p247
sg34
I20
sg20
Nsg35
Nsg36
S'Saudi Arabia'
p248
sg38
Nsbasg149
I2
sg150
F1000.0
sba(i__main__
Team
p249
(dp250
g11
Nsg12
I235369
sg13
I69
sg5
S'Egypt'
p251
sg15
F43.35369
sg16
I73
sg17
I1
sg18
I31
sg19
I3
sg20
(lp252
(i__main__
Player
p253
(dp254
g24
(dp255
g26
Nsg27
I83
sg28
I93
sg29
Nsg30
Nsg31
Nsg32
Nssg5
S'M. Salah'
p256
sg34
I25
sg20
Nsg35
Nsg36
S'Egypt'
p257
sg38
Nsba(i__main__
Player
p258
(dp259
g24
(dp260
g26
Nsg27
I77
sg28
I59
sg29
Nsg30
Nsg31
Nsg32
Nssg5
S'M. Elneny'
p261
sg34
I24
sg20
Nsg35
Nsg36
S'Egypt'
p262
sg38
Nsba(i__main__
Player
p263
(dp264
g24
(dp265
g26
Nsg27
I75
sg28
I83
sg29
Nsg30
Nsg31
Nsg32
Nssg5
S'Kahraba'
p266
sg34
I23
sg20
Nsg35
Nsg36
S'Egypt'
p267
sg38
Nsba(i__main__
Player
p268
(dp269
g24
(dp270
g26
Nsg27
I74
sg28
I75
sg29
Nsg30
Nsg31
Nsg32
Nssg5
S'R. Sobhi'
p271
sg34
I20
sg20
Nsg35
Nsg36
S'Egypt'
p272
sg38
Nsba(i__main__
Player
p273
(dp274
g24
(dp275
g26
Nsg27
I73
sg28
I34
sg29
Nsg30
Nsg31
Nsg32
Nssg5
S'A. El-Shenawy'
p276
sg34
I26
sg20
Nsg35
Nsg36
S'Egypt'
p277
sg38
Nsba(i__main__
Player
p278
(dp279
g24
(dp280
g26
Nsg27
I72
sg28
I77
sg29
Nsg30
Nsg31
Nsg32
Nssg5
S'A. Elmohamady'
p281
sg34
I29
sg20
Nsg35
Nsg36
S'Egypt'
p282
sg38
Nsba(i__main__
Player
p283
(dp284
g24
(dp285
g26
Nsg27
I71
sg28
I79
sg29
Nsg30
Nsg31
Nsg32
Nssg5
S'A. Warda'
p286
sg34
I23
sg20
Nsg35
Nsg36
S'Egypt'
p287
sg38
Nsba(i__main__
Player
p288
(dp289
g24
(dp290
g26
Nsg27
I71
sg28
I69
sg29
Nsg30
Nsg31
Nsg32
Nssg5
g105
sg34
I26
sg20
Nsg35
Nsg36
g251
sg38
Nsba(i__main__
Player
p291
(dp292
g24
(dp293
g26
Nsg27
I71
sg28
I69
sg29
Nsg30
Nsg31
Nsg32
Nssg5
g105
sg34
I26
sg20
Nsg35
Nsg36
g251
sg38
Nsba(i__main__
Player
p294
(dp295
g24
(dp296
g26
Nsg27
I71
sg28
I69
sg29
Nsg30
Nsg31
Nsg32
Nssg5
g105
sg34
I26
sg20
Nsg35
Nsg36
g251
sg38
Nsba(i__main__
Player
p297
(dp298
g24
(dp299
g26
Nsg27
I71
sg28
I69
sg29
Nsg30
Nsg31
Nsg32
Nssg5
g105
sg34
I26
sg20
Nsg35
Nsg36
g251
sg38
Nsbasg89
I68
sg90
(lp300
(i__main__
Player
p301
(dp302
g24
(dp303
g26
Nsg27
I71
sg28
I69
sg29
Nsg30
Nsg31
Nsg32
Nssg5
g105
sg34
I26
sg20
Nsg35
Nsg36
g251
sg38
Nsba(i__main__
Player
p304
(dp305
g24
(dp306
g26
Nsg27
I71
sg28
I69
sg29
Nsg30
Nsg31
Nsg32
Nssg5
g105
sg34
I26
sg20
Nsg35
Nsg36
g251
sg38
Nsba(i__main__
Player
p307
(dp308
g24
(dp309
g26
Nsg27
I71
sg28
I69
sg29
Nsg30
Nsg31
Nsg32
Nssg5
g105
sg34
I26
sg20
Nsg35
Nsg36
g251
sg38
Nsba(i__main__
Player
p310
(dp311
g24
(dp312
g26
Nsg27
I71
sg28
I69
sg29
Nsg30
Nsg31
Nsg32
Nssg5
g105
sg34
I26
sg20
Nsg35
Nsg36
g251
sg38
Nsba(i__main__
Player
p313
(dp314
g24
(dp315
g26
Nsg27
I70
sg28
I77
sg29
Nsg30
Nsg31
Nsg32
Nssg5
S'Shikabala'
p316
sg34
I31
sg20
Nsg35
Nsg36
S'Egypt'
p317
sg38
Nsba(i__main__
Player
p318
(dp319
g24
(dp320
g26
Nsg27
I69
sg28
I76
sg29
Nsg30
Nsg31
Nsg32
Nssg5
S'O. Gaber'
p321
sg34
I25
sg20
Nsg35
Nsg36
S'Egypt'
p322
sg38
Nsba(i__main__
Player
p323
(dp324
g24
(dp325
g26
Nsg27
I69
sg28
I57
sg29
Nsg30
Nsg31
Nsg32
Nssg5
S'S. Ekramy'
p326
sg34
I33
sg20
Nsg35
Nsg36
S'Egypt'
p327
sg38
Nsba(i__main__
Player
p328
(dp329
g24
(dp330
g26
Nsg27
I68
sg28
I65
sg29
Nsg30
Nsg31
Nsg32
Nssg5
S'S. Morsy'
p331
sg34
I25
sg20
Nsg35
Nsg36
S'Egypt'
p332
sg38
Nsba(i__main__
Player
p333
(dp334
g24
(dp335
g26
Nsg27
I67
sg28
I63
sg29
Nsg30
Nsg31
Nsg32
Nssg5
S'A. Gabr'
p336
sg34
I30
sg20
Nsg35
Nsg36
S'Egypt'
p337
sg38
Nsba(i__main__
Player
p338
(dp339
g24
(dp340
g26
Nsg27
I66
sg28
I64
sg29
Nsg30
Nsg31
Nsg32
Nssg5
S'T. Hamed'
p341
sg34
I28
sg20
Nsg35
Nsg36
S'Egypt'
p342
sg38
Nsba(i__main__
Player
p343
(dp344
g24
(dp345
g26
Nsg27
I66
sg28
I73
sg29
Nsg30
Nsg31
Nsg32
Nssg5
S'I. Salah'
p346
sg34
I30
sg20
Nsg35
Nsg36
S'Egypt'
p347
sg38
Nsba(i__main__
Player
p348
(dp349
g24
(dp350
g26
Nsg27
I65
sg28
I67
sg29
Nsg30
Nsg31
Nsg32
Nssg5
S'M. Mohsen'
p351
sg34
I28
sg20
Nsg35
Nsg36
S'Egypt'
p352
sg38
Nsbasg149
I2
sg150
F100.0
sba(i__main__
Team
p353
(dp354
g11
Nsg12
I56157
sg13
I71
sg5
S'Uruguay'
p355
sg15
F124.56157
sg16
I81
sg17
I1
sg18
I21
sg19
I3
sg20
(lp356
(i__main__
Player
p357
(dp358
g24
(dp359
g26
Nsg27
I92
sg28
I82
sg29
Nsg30
Nsg31
Nsg32
Nssg5
S'L. Su\xc3\xa1rez'
p360
sg34
I30
sg20
Nsg35
Nsg36
S'Uruguay'
p361
sg38
Nsba(i__main__
Player
p362
(dp363
g24
(dp364
g26
Nsg27
I87
sg28
I76
sg29
Nsg30
Nsg31
Nsg32
Nssg5
S'E. Cavani'
p365
sg34
I30
sg20
Nsg35
Nsg36
S'Uruguay'
p366
sg38
Nsba(i__main__
Player
p367
(dp368
g24
(dp369
g26
Nsg27
I83
sg28
I70
sg29
Nsg30
Nsg31
Nsg32
Nssg5
S'J. Gim\xc3\xa9nez'
p370
sg34
I22
sg20
Nsg35
Nsg36
S'Uruguay'
p371
sg38
Nsba(i__main__
Player
p372
(dp373
g24
(dp374
g26
Nsg27
I82
sg28
I61
sg29
Nsg30
Nsg31
Nsg32
Nssg5
S'F. Muslera'
p375
sg34
I31
sg20
Nsg35
Nsg36
S'Uruguay'
p376
sg38
Nsba(i__main__
Player
p377
(dp378
g24
(dp379
g26
Nsg27
I81
sg28
I57
sg29
Nsg30
Nsg31
Nsg32
Nssg5
S'S. Coates'
p380
sg34
I26
sg20
Nsg35
Nsg36
S'Uruguay'
p381
sg38
Nsba(i__main__
Player
p382
(dp383
g24
(dp384
g26
Nsg27
I79
sg28
I44
sg29
Nsg30
Nsg31
Nsg32
Nssg5
S'M. Campa\xc3\xb1a'
p385
sg34
I28
sg20
Nsg35
Nsg36
S'Uruguay'
p386
sg38
Nsba(i__main__
Player
p387
(dp388
g24
(dp389
g26
Nsg27
I78
sg28
I68
sg29
Nsg30
Nsg31
Nsg32
Nssg5
S'M. Vecino'
p390
sg34
I25
sg20
Nsg35
Nsg36
S'Uruguay'
p391
sg38
Nsba(i__main__
Player
p392
(dp393
g24
(dp394
g26
Nsg27
I78
sg28
I88
sg29
Nsg30
Nsg31
Nsg32
Nssg5
S'D. Laxalt'
p395
sg34
I24
sg20
Nsg35
Nsg36
S'Uruguay'
p396
sg38
Nsba(i__main__
Player
p397
(dp398
g24
(dp399
g26
Nsg27
I78
sg28
I88
sg29
Nsg30
Nsg31
Nsg32
Nssg5
S'D. Laxalt'
p400
sg34
I24
sg20
Nsg35
Nsg36
S'Uruguay'
p401
sg38
Nsba(i__main__
Player
p402
(dp403
g24
(dp404
g26
Nsg27
I77
sg28
I69
sg29
Nsg30
Nsg31
Nsg32
Nssg5
S'C. Stuani'
p405
sg34
I30
sg20
Nsg35
Nsg36
S'Uruguay'
p406
sg38
Nsba(i__main__
Player
p407
(dp408
g24
(dp409
g26
Nsg27
I77
sg28
I88
sg29
Nsg30
Nsg31
Nsg32
Nssg5
S'C. S\xc3\xa1nchez'
p410
sg34
I32
sg20
Nsg35
Nsg36
S'Uruguay'
p411
sg38
Nsbasg89
I73
sg90
(lp412
(i__main__
Player
p413
(dp414
g24
(dp415
g26
Nsg27
I77
sg28
I74
sg29
Nsg30
Nsg31
Nsg32
Nssg5
S'M. C\xc3\xa1ceres'
p416
sg34
I30
sg20
Nsg35
Nsg36
S'Uruguay'
p417
sg38
Nsba(i__main__
Player
p418
(dp419
g24
(dp420
g26
Nsg27
I75
sg28
I70
sg29
Nsg30
Nsg31
Nsg32
Nssg5
S'C. Rodr\xc3\xadguez'
p421
sg34
I31
sg20
Nsg35
Nsg36
S'Uruguay'
p422
sg38
Nsba(i__main__
Player
p423
(dp424
g24
(dp425
g26
Nsg27
I75
sg28
I77
sg29
Nsg30
Nsg31
Nsg32
Nssg5
S'L. Torreira'
p426
sg34
I21
sg20
Nsg35
Nsg36
S'Uruguay'
p427
sg38
Nsba(i__main__
Player
p428
(dp429
g24
(dp430
g26
Nsg27
I74
sg28
I80
sg29
Nsg30
Nsg31
Nsg32
Nssg5
S'D. Su\xc3\xa1rez'
p431
sg34
I29
sg20
Nsg35
Nsg36
S'Uruguay'
p432
sg38
Nsba(i__main__
Player
p433
(dp434
g24
(dp435
g26
Nsg27
I74
sg28
I84
sg29
Nsg30
Nsg31
Nsg32
Nssg5
S'J. Urretaviscaya'
p436
sg34
I27
sg20
Nsg35
Nsg36
S'Uruguay'
p437
sg38
Nsba(i__main__
Player
p438
(dp439
g24
(dp440
g26
Nsg27
I73
sg28
I65
sg29
Nsg30
Nsg31
Nsg32
Nssg5
S'M. G\xc3\xb3mez'
p441
sg34
I20
sg20
Nsg35
Nsg36
S'Uruguay'
p442
sg38
Nsba(i__main__
Player
p443
(dp444
g24
(dp445
g26
Nsg27
I73
sg28
I63
sg29
Nsg30
Nsg31
Nsg32
Nssg5
S'D. Rodr\xc3\xadguez'
p446
sg34
I27
sg20
Nsg35
Nsg36
S'Uruguay'
p447
sg38
Nsba(i__main__
Player
p448
(dp449
g24
(dp450
g26
Nsg27
I73
sg28
I75
sg29
Nsg30
Nsg31
Nsg32
Nssg5
S'A. Silva'
p451
sg34
I27
sg20
Nsg35
Nsg36
S'Uruguay'
p452
sg38
Nsba(i__main__
Player
p453
(dp454
g24
(dp455
g26
Nsg27
I72
sg28
I70
sg29
Nsg30
Nsg31
Nsg32
Nssg5
S'G. Silva'
p456
sg34
I23
sg20
Nsg35
Nsg36
S'Uruguay'
p457
sg38
Nsba(i__main__
Player
p458
(dp459
g24
(dp460
g26
Nsg27
I72
sg28
I85
sg29
Nsg30
Nsg31
Nsg32
Nssg5
S'J. Rodr\xc3\xadguez'
p461
sg34
I23
sg20
Nsg35
Nsg36
S'Uruguay'
p462
sg38
Nsba(i__main__
Player
p463
(dp464
g24
(dp465
g26
Nsg27
I71
sg28
I49
sg29
Nsg30
Nsg31
Nsg32
Nssg5
S'M. Silva'
p466
sg34
I28
sg20
Nsg35
Nsg36
S'Uruguay'
p467
sg38
Nsba(i__main__
Player
p468
(dp469
g24
(dp470
g26
Nsg27
I70
sg28
I70
sg29
Nsg30
Nsg31
Nsg32
Nssg5
S'N. N\xc3\xa1ndez'
p471
sg34
I21
sg20
Nsg35
Nsg36
S'Uruguay'
p472
sg38
Nsbasg149
I2
sg150
F30.0
sbasba(i__main__
Group
p473
(dp474
g3
(lp475
I0
aI0
aI0
aI0
asg5
S'Group B'
p476
sg7
(lp477
(i__main__
Team
p478
(dp479
g11
Nsg12
I217571
sg13
I72
sg5
S'Portugal'
p480
sg15
F145.17571
sg16
I83
sg17
I1
sg18
I3
sg19
I3
sg20
(lp481
(i__main__
Player
p482
(dp483
g24
(dp484
g26
Nsg27
I86
sg28
I67
sg29
Nsg30
Nsg31
Nsg32
Nssg5
S'Pepe'
p485
sg34
I34
sg20
Nsg35
Nsg36
S'Portugal'
p486
sg38
Nsba(i__main__
Player
p487
(dp488
g24
(dp489
g26
Nsg27
I84
sg28
I81
sg29
Nsg30
Nsg31
Nsg32
Nssg5
S'Bernardo Silva'
p490
sg34
I22
sg20
Nsg35
Nsg36
S'Portugal'
p491
sg38
Nsba(i__main__
Player
p492
(dp493
g24
(dp494
g26
Nsg27
I83
sg28
I73
sg29
Nsg30
Nsg31
Nsg32
Nssg5
S'Jo\xc3\xa3o M\xc3\xa1rio'
p495
sg34
I24
sg20
Nsg35
Nsg36
S'Portugal'
p496
sg38
Nsba(i__main__
Player
p497
(dp498
g24
(dp499
g26
Nsg27
I83
sg28
I52
sg29
Nsg30
Nsg31
Nsg32
Nssg5
S'William Carvalho'
p500
sg34
I25
sg20
Nsg35
Nsg36
S'Portugal'
p501
sg38
Nsba(i__main__
Player
p502
(dp503
g24
(dp504
g26
Nsg27
I83
sg28
I67
sg29
Nsg30
Nsg31
Nsg32
Nssg5
S'Danilo Pereira'
p505
sg34
I25
sg20
Nsg35
Nsg36
S'Portugal'
p506
sg38
Nsba(i__main__
Player
p507
(dp508
g24
(dp509
g26
Nsg27
I83
sg28
I62
sg29
Nsg30
Nsg31
Nsg32
Nssg5
S'A. Lopes'
p510
sg34
I26
sg20
Nsg35
Nsg36
S'Portugal'
p511
sg38
Nsba(i__main__
Player
p512
(dp513
g24
(dp514
g26
Nsg27
I83
sg28
I64
sg29
Nsg30
Nsg31
Nsg32
Nssg5
S'Adrien Silva'
p515
sg34
I28
sg20
Nsg35
Nsg36
S'Portugal'
p516
sg38
Nsba(i__main__
Player
p517
(dp518
g24
(dp519
g26
Nsg27
I83
sg28
I55
sg29
Nsg30
Nsg31
Nsg32
Nssg5
S'Rui Patr\xc3\xadcio'
p520
sg34
I29
sg20
Nsg35
Nsg36
S'Portugal'
p521
sg38
Nsba(i__main__
Player
p522
(dp523
g24
(dp524
g26
Nsg27
I83
sg28
I83
sg29
Nsg30
Nsg31
Nsg32
Nssg5
S'Quaresma'
p525
sg34
I33
sg20
Nsg35
Nsg36
S'Portugal'
p526
sg38
Nsba(i__main__
Player
p527
(dp528
g24
(dp529
g26
Nsg27
I82
sg28
I69
sg29
Nsg30
Nsg31
Nsg32
Nssg5
S'Jo\xc3\xa3o Moutinho'
p530
sg34
I30
sg20
Nsg35
Nsg36
S'Portugal'
p531
sg38
Nsba(i__main__
Player
p532
(dp533
g24
(dp534
g26
Nsg27
I81
sg28
I94
sg29
Nsg30
Nsg31
Nsg32
Nssg5
S'Gelson Martins'
p535
sg34
I22
sg20
Nsg35
Nsg36
S'Portugal'
p536
sg38
Nsbasg89
I78
sg90
(lp537
(i__main__
Player
p538
(dp539
g24
(dp540
g26
Nsg27
I81
sg28
I77
sg29
Nsg30
Nsg31
Nsg32
Nssg5
S'R. Guerreiro'
p541
sg34
I23
sg20
Nsg35
Nsg36
S'Portugal'
p542
sg38
Nsba(i__main__
Player
p543
(dp544
g24
(dp545
g26
Nsg27
I80
sg28
I88
sg29
Nsg30
Nsg31
Nsg32
Nssg5
S'Ricardo Pereira'
p546
sg34
I23
sg20
Nsg35
Nsg36
S'Portugal'
p547
sg38
Nsba(i__main__
Player
p548
(dp549
g24
(dp550
g26
Nsg27
I80
sg28
I79
sg29
Nsg30
Nsg31
Nsg32
Nssg5
S'Manuel Fernandes'
p551
sg34
I31
sg20
Nsg35
Nsg36
S'Portugal'
p552
sg38
Nsba(i__main__
Player
p553
(dp554
g24
(dp555
g26
Nsg27
I79
sg28
I82
sg29
Nsg30
Nsg31
Nsg32
Nssg5
S'C\xc3\xa9dric'
p556
sg34
I25
sg20
Nsg35
Nsg36
S'Portugal'
p557
sg38
Nsba(i__main__
Player
p558
(dp559
g24
(dp560
g26
Nsg27
I79
sg28
I43
sg29
Nsg30
Nsg31
Nsg32
Nssg5
S'Jos\xc3\xa9 Fonte'
p561
sg34
I33
sg20
Nsg35
Nsg36
S'Portugal'
p562
sg38
Nsba(i__main__
Player
p563
(dp564
g24
(dp565
g26
Nsg27
I78
sg28
I80
sg29
Nsg30
Nsg31
Nsg32
Nssg5
S'Andr\xc3\xa9 Silva'
p566
sg34
I21
sg20
Nsg35
Nsg36
S'Portugal'
p567
sg38
Nsba(i__main__
Player
p568
(dp569
g24
(dp570
g26
Nsg27
I78
sg28
I78
sg29
Nsg30
Nsg31
Nsg32
Nssg5
S'Bruno Fernandes'
p571
sg34
I22
sg20
Nsg35
Nsg36
S'Portugal'
p572
sg38
Nsba(i__main__
Player
p573
(dp574
g24
(dp575
g26
Nsg27
I78
sg28
I56
sg29
Nsg30
Nsg31
Nsg32
Nssg5
S'Bruno Alves'
p576
sg34
I35
sg20
Nsg35
Nsg36
S'Portugal'
p577
sg38
Nsba(i__main__
Player
p578
(dp579
g24
(dp580
g26
Nsg27
I78
sg28
I77
sg29
Nsg30
Nsg31
Nsg32
Nssg5
S'Miguel Lopes'
p581
sg34
I30
sg20
Nsg35
Nsg36
S'Portugal'
p582
sg38
Nsba(i__main__
Player
p583
(dp584
g24
(dp585
g26
Nsg27
I78
sg28
I78
sg29
Nsg30
Nsg31
Nsg32
Nssg5
S'Bruno Fernandes'
p586
sg34
I22
sg20
Nsg35
Nsg36
S'Portugal'
p587
sg38
Nsba(i__main__
Player
p588
(dp589
g24
(dp590
g26
Nsg27
I77
sg28
I86
sg29
Nsg30
Nsg31
Nsg32
Nssg5
S'M\xc3\xa1rio Rui'
p591
sg34
I26
sg20
Nsg35
Nsg36
S'Portugal'
p592
sg38
Nsba(i__main__
Player
p593
(dp594
g24
(dp595
g26
Nsg27
I77
sg28
I79
sg29
Nsg30
Nsg31
Nsg32
Nssg5
S'Rony Lopes'
p596
sg34
I21
sg20
Nsg35
Nsg36
S'Portugal'
p597
sg38
Nsbasg149
I2
sg150
F18.0
sba(i__main__
Team
p598
(dp599
g11
Nsg12
I1311320
sg13
I70
sg5
S'Spain'
p600
sg15
F173.6132
sg16
I86
sg17
I1
sg18
I6
sg19
I3
sg20
(lp601
(i__main__
Player
p602
(dp603
g24
(dp604
g26
Nsg27
I90
sg28
I57
sg29
Nsg30
Nsg31
Nsg32
Nssg5
S'De Gea'
p605
sg34
I26
sg20
Nsg35
Nsg36
S'Spain'
p606
sg38
Nsba(i__main__
Player
p607
(dp608
g24
(dp609
g26
Nsg27
I88
sg28
I72
sg29
Nsg30
Nsg31
Nsg32
Nssg5
S'Thiago'
p610
sg34
I26
sg20
Nsg35
Nsg36
S'Spain'
p611
sg38
Nsba(i__main__
Player
p612
(dp613
g24
(dp614
g26
Nsg27
I87
sg28
I68
sg29
Nsg30
Nsg31
Nsg32
Nssg5
S'David Silva'
p615
sg34
I31
sg20
Nsg35
Nsg36
S'Spain'
p616
sg38
Nsba(i__main__
Player
p617
(dp618
g24
(dp619
g26
Nsg27
I87
sg28
I64
sg29
Nsg30
Nsg31
Nsg32
Nssg5
S'Piqu\xc3\xa9'
p620
sg34
I30
sg20
Nsg35
Nsg36
S'Spain'
p621
sg38
Nsba(i__main__
Player
p622
(dp623
g24
(dp624
g26
Nsg27
I87
sg28
I71
sg29
Nsg30
Nsg31
Nsg32
Nssg5
S'Iniesta'
p625
sg34
I33
sg20
Nsg35
Nsg36
S'Spain'
p626
sg38
Nsba(i__main__
Player
p627
(dp628
g24
(dp629
g26
Nsg27
I86
sg28
I71
sg29
Nsg30
Nsg31
Nsg32
Nssg5
S'Isco'
p630
sg34
I25
sg20
Nsg35
Nsg36
S'Spain'
p631
sg38
Nsba(i__main__
Player
p632
(dp633
g24
(dp634
g26
Nsg27
I86
sg28
I41
sg29
Nsg30
Nsg31
Nsg32
Nssg5
S'Sergio Busquets'
p635
sg34
I28
sg20
Nsg35
Nsg36
S'Spain'
p636
sg38
Nsba(i__main__
Player
p637
(dp638
g24
(dp639
g26
Nsg27
I86
sg28
I74
sg29
Nsg30
Nsg31
Nsg32
Nssg5
S'Diego Costa'
p640
sg34
I28
sg20
Nsg35
Nsg36
S'Spain'
p641
sg38
Nsba(i__main__
Player
p642
(dp643
g24
(dp644
g26
Nsg27
I85
sg28
I93
sg29
Nsg30
Nsg31
Nsg32
Nssg5
S'Jordi Alba'
p645
sg34
I28
sg20
Nsg35
Nsg36
S'Spain'
p646
sg38
Nsba(i__main__
Player
p647
(dp648
g24
(dp649
g26
Nsg27
I85
sg28
I78
sg29
Nsg30
Nsg31
Nsg32
Nssg5
S'Azpilicueta'
p650
sg34
I27
sg20
Nsg35
Nsg36
S'Spain'
p651
sg38
Nsba(i__main__
Player
p652
(dp653
g24
(dp654
g26
Nsg27
I84
sg28
I78
sg29
Nsg30
Nsg31
Nsg32
Nssg5
S'Marco Asensio'
p655
sg34
I21
sg20
Nsg35
Nsg36
S'Spain'
p656
sg38
Nsbasg89
I80
sg90
(lp657
(i__main__
Player
p658
(dp659
g24
(dp660
g26
Nsg27
I84
sg28
I81
sg29
Nsg30
Nsg31
Nsg32
Nssg5
S'Carvajal'
p661
sg34
I25
sg20
Nsg35
Nsg36
S'Spain'
p662
sg38
Nsba(i__main__
Player
p663
(dp664
g24
(dp665
g26
Nsg27
I84
sg28
I70
sg29
Nsg30
Nsg31
Nsg32
Nssg5
S'Koke'
p666
sg34
I25
sg20
Nsg35
Nsg36
S'Spain'
p667
sg38
Nsba(i__main__
Player
p668
(dp669
g24
(dp670
g26
Nsg27
I83
sg28
I81
sg29
Nsg30
Nsg31
Nsg32
Nssg5
S'Iago Aspas'
p671
sg34
I29
sg20
Nsg35
Nsg36
S'Spain'
p672
sg38
Nsba(i__main__
Player
p673
(dp674
g24
(dp675
g26
Nsg27
I83
sg28
I56
sg29
Nsg30
Nsg31
Nsg32
Nssg5
S'Jos\xc3\xa9 Reina'
p676
sg34
I34
sg20
Nsg35
Nsg36
S'Spain'
p677
sg38
Nsba(i__main__
Player
p678
(dp679
g24
(dp680
g26
Nsg27
I82
sg28
I81
sg29
Nsg30
Nsg31
Nsg32
Nssg5
S'Lucas V\xc3\xa1zquez'
p681
sg34
I26
sg20
Nsg35
Nsg36
S'Spain'
p682
sg38
Nsba(i__main__
Player
p683
(dp684
g24
(dp685
g26
Nsg27
I82
sg28
I72
sg29
Nsg30
Nsg31
Nsg32
Nssg5
S'Sa\xc3\xbal'
p686
sg34
I22
sg20
Nsg35
Nsg36
S'Spain'
p687
sg38
Nsba(i__main__
Player
p688
(dp689
g24
(dp690
g26
Nsg27
I80
sg28
I33
sg29
Nsg30
Nsg31
Nsg32
Nssg5
S'Arrizabalaga'
p691
sg34
I22
sg20
Nsg35
Nsg36
S'Spain'
p692
sg38
Nsba(i__main__
Player
p693
(dp694
g24
(dp695
g26
Nsg27
I80
sg28
I73
sg29
Nsg30
Nsg31
Nsg32
Nssg5
S'Nacho Monreal'
p696
sg34
I31
sg20
Nsg35
Nsg36
S'Spain'
p697
sg38
Nsba(i__main__
Player
p698
(dp699
g24
(dp700
g26
Nsg27
I79
sg28
I83
sg29
Nsg30
Nsg31
Nsg32
Nssg5
S'Jaume Costa'
p701
sg34
I29
sg20
Nsg35
Nsg36
S'Spain'
p702
sg38
Nsba(i__main__
Player
p703
(dp704
g24
(dp705
g26
Nsg27
I78
sg28
I90
sg29
Nsg30
Nsg31
Nsg32
Nssg5
S'Rodrigo'
p706
sg34
I26
sg20
Nsg35
Nsg36
S'Spain'
p707
sg38
Nsba(i__main__
Player
p708
(dp709
g24
(dp710
g26
Nsg27
I78
sg28
I90
sg29
Nsg30
Nsg31
Nsg32
Nssg5
S'Rodrigo'
p711
sg34
I26
sg20
Nsg35
Nsg36
S'Spain'
p712
sg38
Nsba(i__main__
Player
p713
(dp714
g24
(dp715
g26
Nsg27
I76
sg28
I47
sg29
Nsg30
Nsg31
Nsg32
Nssg5
S'V\xc3\xadctor V\xc3\xa1zquez'
p716
sg34
I30
sg20
Nsg35
Nsg36
S'Spain'
p717
sg38
Nsbasg149
I2
sg150
F5.5
sba(i__main__
Team
p718
(dp719
g11
Nsg12
I109139
sg13
I68
sg5
S'Morocco'
p720
sg15
F-51.90861
sg16
I76
sg17
I1
sg18
I40
sg19
I3
sg20
(lp721
(i__main__
Player
p722
(dp723
g24
(dp724
g26
Nsg27
I81
sg28
I75
sg29
Nsg30
Nsg31
Nsg32
Nssg5
S'H. Ziyech'
p725
sg34
I24
sg20
Nsg35
Nsg36
S'Morocco'
p726
sg38
Nsba(i__main__
Player
p727
(dp728
g24
(dp729
g26
Nsg27
I81
sg28
I75
sg29
Nsg30
Nsg31
Nsg32
Nssg5
S'Y. Belhanda'
p730
sg34
I27
sg20
Nsg35
Nsg36
S'Morocco'
p731
sg38
Nsba(i__main__
Player
p732
(dp733
g24
(dp734
g26
Nsg27
I80
sg28
I65
sg29
Nsg30
Nsg31
Nsg32
Nssg5
S'K. El Ahmadi'
p735
sg34
I32
sg20
Nsg35
Nsg36
S'Morocco'
p736
sg38
Nsba(i__main__
Player
p737
(dp738
g24
(dp739
g26
Nsg27
I79
sg28
I81
sg29
Nsg30
Nsg31
Nsg32
Nssg5
S'N. Amrabat'
p740
sg34
I30
sg20
Nsg35
Nsg36
S'Morocco'
p741
sg38
Nsba(i__main__
Player
p742
(dp743
g24
(dp744
g26
Nsg27
I76
sg28
I77
sg29
Nsg30
Nsg31
Nsg32
Nssg5
S'N. Dirar'
p745
sg34
I31
sg20
Nsg35
Nsg36
S'Morocco'
p746
sg38
Nsba(i__main__
Player
p747
(dp748
g24
(dp749
g26
Nsg27
I76
sg28
I66
sg29
Nsg30
Nsg31
Nsg32
Nssg5
S'R. Sa\xc3\xafss'
p750
sg34
I27
sg20
Nsg35
Nsg36
S'Morocco'
p751
sg38
Nsba(i__main__
Player
p752
(dp753
g24
(dp754
g26
Nsg27
I75
sg28
I67
sg29
Nsg30
Nsg31
Nsg32
Nssg5
S'F. Fajr'
p755
sg34
I28
sg20
Nsg35
Nsg36
S'Morocco'
p756
sg38
Nsba(i__main__
Player
p757
(dp758
g24
(dp759
g26
Nsg27
I74
sg28
I68
sg29
Nsg30
Nsg31
Nsg32
Nssg5
S'S. Amrabat'
p760
sg34
I20
sg20
Nsg35
Nsg36
S'Morocco'
p761
sg38
Nsba(i__main__
Player
p762
(dp763
g24
(dp764
g26
Nsg27
I73
sg28
I65
sg29
Nsg30
Nsg31
Nsg32
Nssg5
S'A. Bouhaddouz'
p765
sg34
I30
sg20
Nsg35
Nsg36
S'Morocco'
p766
sg38
Nsba(i__main__
Player
p767
(dp768
g24
(dp769
g26
Nsg27
I73
sg28
I68
sg29
Nsg30
Nsg31
Nsg32
Nssg5
g105
sg34
I25
sg20
Nsg35
Nsg36
g720
sg38
Nsba(i__main__
Player
p770
(dp771
g24
(dp772
g26
Nsg27
I73
sg28
I68
sg29
Nsg30
Nsg31
Nsg32
Nssg5
g105
sg34
I25
sg20
Nsg35
Nsg36
g720
sg38
Nsbasg89
I71
sg90
(lp773
(i__main__
Player
p774
(dp775
g24
(dp776
g26
Nsg27
I73
sg28
I68
sg29
Nsg30
Nsg31
Nsg32
Nssg5
g105
sg34
I25
sg20
Nsg35
Nsg36
g720
sg38
Nsba(i__main__
Player
p777
(dp778
g24
(dp779
g26
Nsg27
I73
sg28
I68
sg29
Nsg30
Nsg31
Nsg32
Nssg5
g105
sg34
I25
sg20
Nsg35
Nsg36
g720
sg38
Nsba(i__main__
Player
p780
(dp781
g24
(dp782
g26
Nsg27
I73
sg28
I68
sg29
Nsg30
Nsg31
Nsg32
Nssg5
g105
sg34
I25
sg20
Nsg35
Nsg36
g720
sg38
Nsba(i__main__
Player
p783
(dp784
g24
(dp785
g26
Nsg27
I73
sg28
I68
sg29
Nsg30
Nsg31
Nsg32
Nssg5
g105
sg34
I25
sg20
Nsg35
Nsg36
g720
sg38
Nsba(i__main__
Player
p786
(dp787
g24
(dp788
g26
Nsg27
I72
sg28
I57
sg29
Nsg30
Nsg31
Nsg32
Nssg5
S'Manuel da Costa'
p789
sg34
I31
sg20
Nsg35
Nsg36
S'Morocco'
p790
sg38
Nsba(i__main__
Player
p791
(dp792
g24
(dp793
g26
Nsg27
I72
sg28
I72
sg29
Nsg30
Nsg31
Nsg32
Nssg5
S'Y. Ait Bennasser'
p794
sg34
I20
sg20
Nsg35
Nsg36
S'Morocco'
p795
sg38
Nsba(i__main__
Player
p796
(dp797
g24
(dp798
g26
Nsg27
I71
sg28
I60
sg29
Nsg30
Nsg31
Nsg32
Nssg5
S'K. Bouta\xc3\xafb'
p799
sg34
I30
sg20
Nsg35
Nsg36
S'Morocco'
p800
sg38
Nsba(i__main__
Player
p801
(dp802
g24
(dp803
g26
Nsg27
I71
sg28
I35
sg29
Nsg30
Nsg31
Nsg32
Nssg5
S'Y. Bounou'
p804
sg34
I26
sg20
Nsg35
Nsg36
S'Morocco'
p805
sg38
Nsba(i__main__
Player
p806
(dp807
g24
(dp808
g26
Nsg27
I71
sg28
I76
sg29
Nsg30
Nsg31
Nsg32
Nssg5
S'A. Harit'
p809
sg34
I20
sg20
Nsg35
Nsg36
S'Morocco'
p810
sg38
Nsba(i__main__
Player
p811
(dp812
g24
(dp813
g26
Nsg27
I71
sg28
I77
sg29
Nsg30
Nsg31
Nsg32
Nssg5
S'A. Hakimi'
p814
sg34
I18
sg20
Nsg35
Nsg36
S'Morocco'
p815
sg38
Nsba(i__main__
Player
p816
(dp817
g24
(dp818
g26
Nsg27
I69
sg28
I76
sg29
Nsg30
Nsg31
Nsg32
Nssg5
S'Y. En-Nesyri'
p819
sg34
I20
sg20
Nsg35
Nsg36
S'Morocco'
p820
sg38
Nsba(i__main__
Player
p821
(dp822
g24
(dp823
g26
Nsg27
I63
sg28
I77
sg29
Nsg30
Nsg31
Nsg32
Nssg5
S'H. Mendyl'
p824
sg34
I19
sg20
Nsg35
Nsg36
S'Morocco'
p825
sg38
Nsbasg149
I2
sg150
F200.0
sba(i__main__
Team
p826
(dp827
g11
Nsg12
I439514
sg13
I72
sg5
S'Iran'
p828
sg15
F-604.60486
sg16
I72
sg17
I1
sg18
I32
sg19
I3
sg20
(lp829
(i__main__
Player
p830
(dp831
g24
(dp832
g26
Nsg27
I77
sg28
I82
sg29
Nsg30
Nsg31
Nsg32
Nssg5
S'S. Azmoun'
p833
sg34
I22
sg20
Nsg35
Nsg36
S'Iran'
p834
sg38
Nsba(i__main__
Player
p835
(dp836
g24
(dp837
g26
Nsg27
I75
sg28
I85
sg29
Nsg30
Nsg31
Nsg32
Nssg5
S'A. Jahanbakhsh'
p838
sg34
I23
sg20
Nsg35
Nsg36
S'Iran'
p839
sg38
Nsba(i__main__
Player
p840
(dp841
g24
(dp842
g26
Nsg27
I73
sg28
I88
sg29
Nsg30
Nsg31
Nsg32
Nssg5
S'M. Mohammadi'
p843
sg34
I23
sg20
Nsg35
Nsg36
S'Iran'
p844
sg38
Nsba(i__main__
Player
p845
(dp846
g24
(dp847
g26
Nsg27
I73
sg28
I79
sg29
Nsg30
Nsg31
Nsg32
Nssg5
S'K. Ansarifard'
p848
sg34
I27
sg20
Nsg35
Nsg36
S'Iran'
p849
sg38
Nsba(i__main__
Player
p850
(dp851
g24
(dp852
g26
Nsg27
I72
sg28
I77
sg29
Nsg30
Nsg31
Nsg32
Nssg5
S'R. Ghoochannejhad'
p853
sg34
I29
sg20
Nsg35
Nsg36
S'Iran'
p854
sg38
Nsba(i__main__
Player
p855
(dp856
g24
(dp857
g26
Nsg27
I71
sg28
I84
sg29
Nsg30
Nsg31
Nsg32
Nssg5
S'S. Ghoddos'
p858
sg34
I23
sg20
Nsg35
Nsg36
S'Iran'
p859
sg38
Nsba(i__main__
Player
p860
(dp861
g24
(dp862
g26
Nsg27
I71
sg28
I72
sg29
Nsg30
Nsg31
Nsg32
Nssg5
g105
sg34
I24
sg20
Nsg35
Nsg36
g828
sg38
Nsba(i__main__
Player
p863
(dp864
g24
(dp865
g26
Nsg27
I71
sg28
I72
sg29
Nsg30
Nsg31
Nsg32
Nssg5
g105
sg34
I24
sg20
Nsg35
Nsg36
g828
sg38
Nsba(i__main__
Player
p866
(dp867
g24
(dp868
g26
Nsg27
I71
sg28
I72
sg29
Nsg30
Nsg31
Nsg32
Nssg5
g105
sg34
I24
sg20
Nsg35
Nsg36
g828
sg38
Nsba(i__main__
Player
p869
(dp870
g24
(dp871
g26
Nsg27
I71
sg28
I72
sg29
Nsg30
Nsg31
Nsg32
Nssg5
g105
sg34
I24
sg20
Nsg35
Nsg36
g828
sg38
Nsba(i__main__
Player
p872
(dp873
g24
(dp874
g26
Nsg27
I71
sg28
I72
sg29
Nsg30
Nsg31
Nsg32
Nssg5
g105
sg34
I24
sg20
Nsg35
Nsg36
g828
sg38
Nsbasg89
I69
sg90
(lp875
(i__main__
Player
p876
(dp877
g24
(dp878
g26
Nsg27
I71
sg28
I72
sg29
Nsg30
Nsg31
Nsg32
Nssg5
g105
sg34
I24
sg20
Nsg35
Nsg36
g828
sg38
Nsba(i__main__
Player
p879
(dp880
g24
(dp881
g26
Nsg27
I71
sg28
I72
sg29
Nsg30
Nsg31
Nsg32
Nssg5
g105
sg34
I24
sg20
Nsg35
Nsg36
g828
sg38
Nsba(i__main__
Player
p882
(dp883
g24
(dp884
g26
Nsg27
I71
sg28
I72
sg29
Nsg30
Nsg31
Nsg32
Nssg5
g105
sg34
I24
sg20
Nsg35
Nsg36
g828
sg38
Nsba(i__main__
Player
p885
(dp886
g24
(dp887
g26
Nsg27
I71
sg28
I72
sg29
Nsg30
Nsg31
Nsg32
Nssg5
g105
sg34
I24
sg20
Nsg35
Nsg36
g828
sg38
Nsba(i__main__
Player
p888
(dp889
g24
(dp890
g26
Nsg27
I71
sg28
I72
sg29
Nsg30
Nsg31
Nsg32
Nssg5
g105
sg34
I24
sg20
Nsg35
Nsg36
g828
sg38
Nsba(i__main__
Player
p891
(dp892
g24
(dp893
g26
Nsg27
I71
sg28
I72
sg29
Nsg30
Nsg31
Nsg32
Nssg5
g105
sg34
I24
sg20
Nsg35
Nsg36
g828
sg38
Nsba(i__main__
Player
p894
(dp895
g24
(dp896
g26
Nsg27
I71
sg28
I72
sg29
Nsg30
Nsg31
Nsg32
Nssg5
g105
sg34
I24
sg20
Nsg35
Nsg36
g828
sg38
Nsba(i__main__
Player
p897
(dp898
g24
(dp899
g26
Nsg27
I71
sg28
I72
sg29
Nsg30
Nsg31
Nsg32
Nssg5
g105
sg34
I24
sg20
Nsg35
Nsg36
g828
sg38
Nsba(i__main__
Player
p900
(dp901
g24
(dp902
g26
Nsg27
I71
sg28
I72
sg29
Nsg30
Nsg31
Nsg32
Nssg5
g105
sg34
I24
sg20
Nsg35
Nsg36
g828
sg38
Nsba(i__main__
Player
p903
(dp904
g24
(dp905
g26
Nsg27
I70
sg28
I72
sg29
Nsg30
Nsg31
Nsg32
Nssg5
S'R. Rezaeian'
p906
sg34
I27
sg20
Nsg35
Nsg36
S'Iran'
p907
sg38
Nsba(i__main__
Player
p908
(dp909
g24
(dp910
g26
Nsg27
I66
sg28
I63
sg29
Nsg30
Nsg31
Nsg32
Nssg5
S'S. Ezatolahi'
p911
sg34
I20
sg20
Nsg35
Nsg36
S'Iran'
p912
sg38
Nsba(i__main__
Player
p913
(dp914
g24
(dp915
g26
Nsg27
I62
sg28
I22
sg29
Nsg30
Nsg31
Nsg32
Nssg5
S'A. Abedzadeh'
p916
sg34
I24
sg20
Nsg35
Nsg36
S'Iran'
p917
sg38
Nsbasg149
I2
sg150
F750.0
sbasba(i__main__
Group
p918
(dp919
g3
(lp920
I0
aI0
aI0
aI0
asg5
S'Group C'
p921
sg7
(lp922
(i__main__
Team
p923
(dp924
g11
Nsg12
I2582501
sg13
I74
sg5
S'France'
p925
sg15
F179.82501
sg16
I84
sg17
I1
sg18
I9
sg19
I3
sg20
(lp926
(i__main__
Player
p927
(dp928
g24
(dp929
g26
Nsg27
I88
sg28
I86
sg29
Nsg30
Nsg31
Nsg32
Nssg5
S'A. Griezmann'
p930
sg34
I26
sg20
Nsg35
Nsg36
S'France'
p931
sg38
Nsba(i__main__
Player
p932
(dp933
g24
(dp934
g26
Nsg27
I87
sg28
I81
sg29
Nsg30
Nsg31
Nsg32
Nssg5
S'N. Kant\xc3\xa9'
p935
sg34
I26
sg20
Nsg35
Nsg36
S'France'
p936
sg38
Nsba(i__main__
Player
p937
(dp938
g24
(dp939
g26
Nsg27
I87
sg28
I74
sg29
Nsg30
Nsg31
Nsg32
Nssg5
S'P. Pogba'
p940
sg34
I24
sg20
Nsg35
Nsg36
S'France'
p941
sg38
Nsba(i__main__
Player
p942
(dp943
g24
(dp944
g26
Nsg27
I85
sg28
I79
sg29
Nsg30
Nsg31
Nsg32
Nssg5
S'R. Varane'
p945
sg34
I24
sg20
Nsg35
Nsg36
S'France'
p946
sg38
Nsba(i__main__
Player
p947
(dp948
g24
(dp949
g26
Nsg27
I85
sg28
I78
sg29
Nsg30
Nsg31
Nsg32
Nssg5
S'B. Matuidi'
p950
sg34
I30
sg20
Nsg35
Nsg36
S'France'
p951
sg38
Nsba(i__main__
Player
p952
(dp953
g24
(dp954
g26
Nsg27
I83
sg28
I89
sg29
Nsg30
Nsg31
Nsg32
Nssg5
S'K. Mbapp\xc3\xa9'
p955
sg34
I18
sg20
Nsg35
Nsg36
S'France'
p956
sg38
Nsba(i__main__
Player
p957
(dp958
g24
(dp959
g26
Nsg27
I83
sg28
I91
sg29
Nsg30
Nsg31
Nsg32
Nssg5
S'O. Demb\xc3\xa9l\xc3\xa9'
p960
sg34
I20
sg20
Nsg35
Nsg36
S'France'
p961
sg38
Nsba(i__main__
Player
p962
(dp963
g24
(dp964
g26
Nsg27
I83
sg28
I85
sg29
Nsg30
Nsg31
Nsg32
Nssg5
S'T. Lemar'
p965
sg34
I21
sg20
Nsg35
Nsg36
S'France'
p966
sg38
Nsba(i__main__
Player
p967
(dp968
g24
(dp969
g26
Nsg27
I83
sg28
I73
sg29
Nsg30
Nsg31
Nsg32
Nssg5
S'S. Umtiti'
p970
sg34
I23
sg20
Nsg35
Nsg36
S'France'
p971
sg38
Nsba(i__main__
Player
p972
(dp973
g24
(dp974
g26
Nsg27
I82
sg28
I74
sg29
Nsg30
Nsg31
Nsg32
Nssg5
S'C. Tolisso'
p975
sg34
I22
sg20
Nsg35
Nsg36
S'France'
p976
sg38
Nsba(i__main__
Player
p977
(dp978
g24
(dp979
g26
Nsg27
I82
sg28
I79
sg29
Nsg30
Nsg31
Nsg32
Nssg5
S'N. Fekir'
p980
sg34
I23
sg20
Nsg35
Nsg36
S'France'
p981
sg38
Nsbasg89
I78
sg90
(lp982
(i__main__
Player
p983
(dp984
g24
(dp985
g26
Nsg27
I82
sg28
I82
sg29
Nsg30
Nsg31
Nsg32
Nssg5
S'F. Thauvin'
p986
sg34
I24
sg20
Nsg35
Nsg36
S'France'
p987
sg38
Nsba(i__main__
Player
p988
(dp989
g24
(dp990
g26
Nsg27
I82
sg28
I53
sg29
Nsg30
Nsg31
Nsg32
Nssg5
S'O. Giroud'
p991
sg34
I30
sg20
Nsg35
Nsg36
S'France'
p992
sg38
Nsba(i__main__
Player
p993
(dp994
g24
(dp995
g26
Nsg27
I82
sg28
I48
sg29
Nsg30
Nsg31
Nsg32
Nssg5
S'S. Mandanda'
p996
sg34
I32
sg20
Nsg35
Nsg36
S'France'
p997
sg38
Nsba(i__main__
Player
p998
(dp999
g24
(dp1000
g26
Nsg27
I81
sg28
I53
sg29
Nsg30
Nsg31
Nsg32
Nssg5
S'A. Rami'
p1001
sg34
I31
sg20
Nsg35
Nsg36
S'France'
p1002
sg38
Nsba(i__main__
Player
p1003
(dp1004
g24
(dp1005
g26
Nsg27
I79
sg28
I80
sg29
Nsg30
Nsg31
Nsg32
Nssg5
S'D. Sidib\xc3\xa9'
p1006
sg34
I24
sg20
Nsg35
Nsg36
S'France'
p1007
sg38
Nsba(i__main__
Player
p1008
(dp1009
g24
(dp1010
g26
Nsg27
I79
sg28
I53
sg29
Nsg30
Nsg31
Nsg32
Nssg5
S'A. Areola'
p1011
sg34
I24
sg20
Nsg35
Nsg36
S'France'
p1012
sg38
Nsba(i__main__
Player
p1013
(dp1014
g24
(dp1015
g26
Nsg27
I78
sg28
I81
sg29
Nsg30
Nsg31
Nsg32
Nssg5
S'B. Mendy'
p1016
sg34
I22
sg20
Nsg35
Nsg36
S'France'
p1017
sg38
Nsba(i__main__
Player
p1018
(dp1019
g24
(dp1020
g26
Nsg27
I77
sg28
I69
sg29
Nsg30
Nsg31
Nsg32
Nssg5
S'P. Kimpembe'
p1021
sg34
I21
sg20
Nsg35
Nsg36
S'France'
p1022
sg38
Nsba(i__main__
Player
p1023
(dp1024
g24
(dp1025
g26
Nsg27
I77
sg28
I65
sg29
Nsg30
Nsg31
Nsg32
Nssg5
S'L. Hern\xc3\xa1ndez'
p1026
sg34
I21
sg20
Nsg35
Nsg36
S'France'
p1027
sg38
Nsba(i__main__
Player
p1028
(dp1029
g24
(dp1030
g26
Nsg27
I76
sg28
I71
sg29
Nsg30
Nsg31
Nsg32
Nssg5
S'N. Mendy'
p1031
sg34
I25
sg20
Nsg35
Nsg36
S'France'
p1032
sg38
Nsba(i__main__
Player
p1033
(dp1034
g24
(dp1035
g26
Nsg27
I75
sg28
I80
sg29
Nsg30
Nsg31
Nsg32
Nssg5
S'M. Demb\xc3\xa9l\xc3\xa9'
p1036
sg34
I20
sg20
Nsg35
Nsg36
S'France'
p1037
sg38
Nsba(i__main__
Player
p1038
(dp1039
g24
(dp1040
g26
Nsg27
I75
sg28
I83
sg29
Nsg30
Nsg31
Nsg32
Nssg5
S'T. Hern\xc3\xa1ndez'
p1041
sg34
I19
sg20
Nsg35
Nsg36
S'France'
p1042
sg38
Nsbasg149
I2
sg150
F8.0
sba(i__main__
Team
p1043
(dp1044
g11
Nsg12
I1323421
sg13
I70
sg5
S'Australia'
p1045
sg15
F-848.76579
sg16
I73
sg17
I1
sg18
I39
sg19
I3
sg20
(lp1046
(i__main__
Player
p1047
(dp1048
g24
(dp1049
g26
Nsg27
I77
sg28
I52
sg29
Nsg30
Nsg31
Nsg32
Nssg5
S'M. Ryan'
p1050
sg34
I25
sg20
Nsg35
Nsg36
S'Australia'
p1051
sg38
Nsba(i__main__
Player
p1052
(dp1053
g24
(dp1054
g26
Nsg27
I77
sg28
I53
sg29
Nsg30
Nsg31
Nsg32
Nssg5
S'B. Jones'
p1055
sg34
I35
sg20
Nsg35
Nsg36
S'Australia'
p1056
sg38
Nsba(i__main__
Player
p1057
(dp1058
g24
(dp1059
g26
Nsg27
I77
sg28
I68
sg29
Nsg30
Nsg31
Nsg32
Nssg5
S'A. Mooy'
p1060
sg34
I26
sg20
Nsg35
Nsg36
S'Australia'
p1061
sg38
Nsba(i__main__
Player
p1062
(dp1063
g24
(dp1064
g26
Nsg27
I74
sg28
I73
sg29
Nsg30
Nsg31
Nsg32
Nssg5
S'T. Sainsbury'
p1065
sg34
I25
sg20
Nsg35
Nsg36
S'Australia'
p1066
sg38
Nsba(i__main__
Player
p1067
(dp1068
g24
(dp1069
g26
Nsg27
I74
sg28
I67
sg29
Nsg30
Nsg31
Nsg32
Nssg5
S'M. Milligan'
p1070
sg34
I31
sg20
Nsg35
Nsg36
S'Australia'
p1071
sg38
Nsba(i__main__
Player
p1072
(dp1073
g24
(dp1074
g26
Nsg27
I73
sg28
I86
sg29
Nsg30
Nsg31
Nsg32
Nssg5
S'J. Maclaren'
p1075
sg34
I23
sg20
Nsg35
Nsg36
S'Australia'
p1076
sg38
Nsba(i__main__
Player
p1077
(dp1078
g24
(dp1079
g26
Nsg27
I73
sg28
I83
sg29
Nsg30
Nsg31
Nsg32
Nssg5
S'A. Behich'
p1080
sg34
I26
sg20
Nsg35
Nsg36
S'Australia'
p1081
sg38
Nsba(i__main__
Player
p1082
(dp1083
g24
(dp1084
g26
Nsg27
I72
sg28
I80
sg29
Nsg30
Nsg31
Nsg32
Nssg5
S'R. Kruse'
p1085
sg34
I28
sg20
Nsg35
Nsg36
S'Australia'
p1086
sg38
Nsba(i__main__
Player
p1087
(dp1088
g24
(dp1089
g26
Nsg27
I72
sg28
I92
sg29
Nsg30
Nsg31
Nsg32
Nssg5
S'M. Leckie'
p1090
sg34
I26
sg20
Nsg35
Nsg36
S'Australia'
p1091
sg38
Nsba(i__main__
Player
p1092
(dp1093
g24
(dp1094
g26
Nsg27
I71
sg28
I73
sg29
Nsg30
Nsg31
Nsg32
Nssg5
S'M. Luongo'
p1095
sg34
I24
sg20
Nsg35
Nsg36
S'Australia'
p1096
sg38
Nsba(i__main__
Player
p1097
(dp1098
g24
(dp1099
g26
Nsg27
I71
sg28
I76
sg29
Nsg30
Nsg31
Nsg32
Nssg5
S'J. Irvine'
p1100
sg34
I24
sg20
Nsg35
Nsg36
S'Australia'
p1101
sg38
Nsbasg89
I65
sg90
(lp1102
(i__main__
Player
p1103
(dp1104
g24
(dp1105
g26
Nsg27
I70
sg28
I77
sg29
Nsg30
Nsg31
Nsg32
Nssg5
S'J. Risdon'
p1106
sg34
I24
sg20
Nsg35
Nsg36
S'Australia'
p1107
sg38
Nsba(i__main__
Player
p1108
(dp1109
g24
(dp1110
g26
Nsg27
I70
sg28
I66
sg29
Nsg30
Nsg31
Nsg32
Nssg5
S'M. Degenek'
p1111
sg34
I23
sg20
Nsg35
Nsg36
S'Australia'
p1112
sg38
Nsba(i__main__
Player
p1113
(dp1114
g24
(dp1115
g26
Nsg27
I70
sg28
I60
sg29
Nsg30
Nsg31
Nsg32
Nssg5
S'T. Cahill'
p1116
sg34
I37
sg20
Nsg35
Nsg36
S'Australia'
p1117
sg38
Nsba(i__main__
Player
p1118
(dp1119
g24
(dp1120
g26
Nsg27
I70
sg28
I50
sg29
Nsg30
Nsg31
Nsg32
Nssg5
S'D. Vukovic'
p1121
sg34
I32
sg20
Nsg35
Nsg36
S'Australia'
p1122
sg38
Nsba(i__main__
Player
p1123
(dp1124
g24
(dp1125
g26
Nsg27
I69
sg28
I52
sg29
Nsg30
Nsg31
Nsg32
Nssg5
S'M. Jurman'
p1126
sg34
I27
sg20
Nsg35
Nsg36
S'Australia'
p1127
sg38
Nsba(i__main__
Player
p1128
(dp1129
g24
(dp1130
g26
Nsg27
I69
sg28
I70
sg29
Nsg30
Nsg31
Nsg32
Nssg5
g105
sg34
I25
sg20
Nsg35
Nsg36
g1045
sg38
Nsba(i__main__
Player
p1131
(dp1132
g24
(dp1133
g26
Nsg27
I68
sg28
I78
sg29
Nsg30
Nsg31
Nsg32
Nssg5
S'J. Meredith'
p1134
sg34
I29
sg20
Nsg35
Nsg36
S'Australia'
p1135
sg38
Nsba(i__main__
Player
p1136
(dp1137
g24
(dp1138
g26
Nsg27
I66
sg28
I84
sg29
Nsg30
Nsg31
Nsg32
Nssg5
S'D. Petratos'
p1139
sg34
I24
sg20
Nsg35
Nsg36
S'Australia'
p1140
sg38
Nsba(i__main__
Player
p1141
(dp1142
g24
(dp1143
g26
Nsg27
I65
sg28
I78
sg29
Nsg30
Nsg31
Nsg32
Nssg5
S'A. Nabbout'
p1144
sg34
I24
sg20
Nsg35
Nsg36
S'Australia'
p1145
sg38
Nsba(i__main__
Player
p1146
(dp1147
g24
(dp1148
g26
Nsg27
I59
sg28
I63
sg29
Nsg30
Nsg31
Nsg32
Nssg5
S'D. Ryan'
p1149
sg34
I17
sg20
Nsg35
Nsg36
S'Australia'
p1150
sg38
Nsba(i__main__
Player
p1151
(dp1152
g24
(dp1153
g26
Nsg27
I58
sg28
I75
sg29
Nsg30
Nsg31
Nsg32
Nssg5
S'D. Arzani'
p1154
sg34
I18
sg20
Nsg35
Nsg36
S'Australia'
p1155
sg38
Nsba(i__main__
Player
p1156
(dp1157
g24
(dp1158
g26
Nsg27
I57
sg28
I74
sg29
Nsg30
Nsg31
Nsg32
Nssg5
S'K. Petratos'
p1159
sg34
I19
sg20
Nsg35
Nsg36
S'Australia'
p1160
sg38
Nsbasg149
I2
sg150
F1000.0
sba(i__main__
Team
p1161
(dp1162
g11
Nsg12
I211389
sg13
I70
sg5
S'Peru'
p1163
sg15
F-858.88611
sg16
I73
sg17
I1
sg18
I11
sg19
I3
sg20
(lp1164
(i__main__
Player
p1165
(dp1166
g24
(dp1167
g26
Nsg27
I78
sg28
I82
sg29
Nsg30
Nsg31
Nsg32
Nssg5
S'J. Farf\xc3\xa1n'
p1168
sg34
I32
sg20
Nsg35
Nsg36
S'Peru'
p1169
sg38
Nsba(i__main__
Player
p1170
(dp1171
g24
(dp1172
g26
Nsg27
I77
sg28
I84
sg29
Nsg30
Nsg31
Nsg32
Nssg5
S'A. Carrillo'
p1173
sg34
I26
sg20
Nsg35
Nsg36
S'Peru'
p1174
sg38
Nsba(i__main__
Player
p1175
(dp1176
g24
(dp1177
g26
Nsg27
I76
sg28
I82
sg29
Nsg30
Nsg31
Nsg32
Nssg5
S'P. Hurtado'
p1178
sg34
I26
sg20
Nsg35
Nsg36
S'Peru'
p1179
sg38
Nsba(i__main__
Player
p1180
(dp1181
g24
(dp1182
g26
Nsg27
I76
sg28
I82
sg29
Nsg30
Nsg31
Nsg32
Nssg5
S'R. Ruid\xc3\xadaz'
p1183
sg34
I26
sg20
Nsg35
Nsg36
S'Peru'
p1184
sg38
Nsba(i__main__
Player
p1185
(dp1186
g24
(dp1187
g26
Nsg27
I74
sg28
I47
sg29
Nsg30
Nsg31
Nsg32
Nssg5
S'P. Gallese'
p1188
sg34
I27
sg20
Nsg35
Nsg36
S'Peru'
p1189
sg38
Nsba(i__main__
Player
p1190
(dp1191
g24
(dp1192
g26
Nsg27
I73
sg28
I61
sg29
Nsg30
Nsg31
Nsg32
Nssg5
S'A. Rodr\xc3\xadguez'
p1193
sg34
I33
sg20
Nsg35
Nsg36
S'Peru'
p1194
sg38
Nsba(i__main__
Player
p1195
(dp1196
g24
(dp1197
g26
Nsg27
I72
sg28
I62
sg29
Nsg30
Nsg31
Nsg32
Nssg5
S'R. Tapia'
p1198
sg34
I21
sg20
Nsg35
Nsg36
S'Peru'
p1199
sg38
Nsba(i__main__
Player
p1200
(dp1201
g24
(dp1202
g26
Nsg27
I72
sg28
I90
sg29
Nsg30
Nsg31
Nsg32
Nssg5
S'L. Adv\xc3\xadncula'
p1203
sg34
I27
sg20
Nsg35
Nsg36
S'Peru'
p1204
sg38
Nsba(i__main__
Player
p1205
(dp1206
g24
(dp1207
g26
Nsg27
I71
sg28
I68
sg29
Nsg30
Nsg31
Nsg32
Nssg5
S'Y. Yot\xc3\xban'
p1208
sg34
I27
sg20
Nsg35
Nsg36
S'Peru'
p1209
sg38
Nsba(i__main__
Player
p1210
(dp1211
g24
(dp1212
g26
Nsg27
I70
sg28
I70
sg29
Nsg30
Nsg31
Nsg32
Nssg5
g105
sg34
I25
sg20
Nsg35
Nsg36
g1163
sg38
Nsba(i__main__
Player
p1213
(dp1214
g24
(dp1215
g26
Nsg27
I70
sg28
I70
sg29
Nsg30
Nsg31
Nsg32
Nssg5
g105
sg34
I25
sg20
Nsg35
Nsg36
g1163
sg38
Nsbasg89
I66
sg90
(lp1216
(i__main__
Player
p1217
(dp1218
g24
(dp1219
g26
Nsg27
I70
sg28
I70
sg29
Nsg30
Nsg31
Nsg32
Nssg5
g105
sg34
I25
sg20
Nsg35
Nsg36
g1163
sg38
Nsba(i__main__
Player
p1220
(dp1221
g24
(dp1222
g26
Nsg27
I70
sg28
I70
sg29
Nsg30
Nsg31
Nsg32
Nssg5
g105
sg34
I25
sg20
Nsg35
Nsg36
g1163
sg38
Nsba(i__main__
Player
p1223
(dp1224
g24
(dp1225
g26
Nsg27
I70
sg28
I70
sg29
Nsg30
Nsg31
Nsg32
Nssg5
g105
sg34
I25
sg20
Nsg35
Nsg36
g1163
sg38
Nsba(i__main__
Player
p1226
(dp1227
g24
(dp1228
g26
Nsg27
I69
sg28
I87
sg29
Nsg30
Nsg31
Nsg32
Nssg5
S'A. Polo'
p1229
sg34
I22
sg20
Nsg35
Nsg36
S'Peru'
p1230
sg38
Nsba(i__main__
Player
p1231
(dp1232
g24
(dp1233
g26
Nsg27
I68
sg28
I53
sg29
Nsg30
Nsg31
Nsg32
Nssg5
S'J. Carvallo'
p1234
sg34
I31
sg20
Nsg35
Nsg36
S'Peru'
p1235
sg38
Nsba(i__main__
Player
p1236
(dp1237
g24
(dp1238
g26
Nsg27
I67
sg28
I64
sg29
Nsg30
Nsg31
Nsg32
Nssg5
S'C. Ramos'
p1239
sg34
I28
sg20
Nsg35
Nsg36
S'Peru'
p1240
sg38
Nsba(i__main__
Player
p1241
(dp1242
g24
(dp1243
g26
Nsg27
I67
sg28
I65
sg29
Nsg30
Nsg31
Nsg32
Nssg5
S'M. Araujo'
p1244
sg34
I22
sg20
Nsg35
Nsg36
S'Peru'
p1245
sg38
Nsba(i__main__
Player
p1246
(dp1247
g24
(dp1248
g26
Nsg27
I65
sg28
I60
sg29
Nsg30
Nsg31
Nsg32
Nssg5
S'P. Aquino'
p1249
sg34
I22
sg20
Nsg35
Nsg36
S'Peru'
p1250
sg38
Nsba(i__main__
Player
p1251
(dp1252
g24
(dp1253
g26
Nsg27
I65
sg28
I69
sg29
Nsg30
Nsg31
Nsg32
Nssg5
S'A. Corzo'
p1254
sg34
I28
sg20
Nsg35
Nsg36
S'Peru'
p1255
sg38
Nsba(i__main__
Player
p1256
(dp1257
g24
(dp1258
g26
Nsg27
I64
sg28
I69
sg29
Nsg30
Nsg31
Nsg32
Nssg5
S'W. Cartagena'
p1259
sg34
I22
sg20
Nsg35
Nsg36
S'Peru'
p1260
sg38
Nsba(i__main__
Player
p1261
(dp1262
g24
(dp1263
g26
Nsg27
I63
sg28
I68
sg29
Nsg30
Nsg31
Nsg32
Nssg5
S'N. Loyola'
p1264
sg34
I22
sg20
Nsg35
Nsg36
S'Peru'
p1265
sg38
Nsba(i__main__
Player
p1266
(dp1267
g24
(dp1268
g26
Nsg27
I63
sg28
I67
sg29
Nsg30
Nsg31
Nsg32
Nssg5
S'E. Flores'
p1269
sg34
I23
sg20
Nsg35
Nsg36
S'Peru'
p1270
sg38
Nsbasg149
I2
sg150
F1000.0
sba(i__main__
Team
p1271
(dp1272
g11
Nsg12
I324872
sg13
I68
sg5
S'Denmark'
p1273
sg15
F78.24872
sg16
I79
sg17
I1
sg18
I12
sg19
I3
sg20
(lp1274
(i__main__
Player
p1275
(dp1276
g24
(dp1277
g26
Nsg27
I87
sg28
I75
sg29
Nsg30
Nsg31
Nsg32
Nssg5
S'C. Eriksen'
p1278
sg34
I25
sg20
Nsg35
Nsg36
S'Denmark'
p1279
sg38
Nsba(i__main__
Player
p1280
(dp1281
g24
(dp1282
g26
Nsg27
I83
sg28
I61
sg29
Nsg30
Nsg31
Nsg32
Nssg5
S'K. Schmeichel'
p1283
sg34
I30
sg20
Nsg35
Nsg36
S'Denmark'
p1284
sg38
Nsba(i__main__
Player
p1285
(dp1286
g24
(dp1287
g26
Nsg27
I81
sg28
I71
sg29
Nsg30
Nsg31
Nsg32
Nssg5
S'A. Christensen'
p1288
sg34
I21
sg20
Nsg35
Nsg36
S'Denmark'
p1289
sg38
Nsba(i__main__
Player
p1290
(dp1291
g24
(dp1292
g26
Nsg27
I79
sg28
I46
sg29
Nsg30
Nsg31
Nsg32
Nssg5
S'J. Vestergaard'
p1293
sg34
I24
sg20
Nsg35
Nsg36
S'Denmark'
p1294
sg38
Nsba(i__main__
Player
p1295
(dp1296
g24
(dp1297
g26
Nsg27
I79
sg28
I77
sg29
Nsg30
Nsg31
Nsg32
Nssg5
S'N. J\xc3\xb8rgensen'
p1298
sg34
I26
sg20
Nsg35
Nsg36
S'Denmark'
p1299
sg38
Nsba(i__main__
Player
p1300
(dp1301
g24
(dp1302
g26
Nsg27
I79
sg28
I67
sg29
Nsg30
Nsg31
Nsg32
Nssg5
S'M. Krohn-Dehli'
p1303
sg34
I34
sg20
Nsg35
Nsg36
S'Denmark'
p1304
sg38
Nsba(i__main__
Player
p1305
(dp1306
g24
(dp1307
g26
Nsg27
I78
sg28
I76
sg29
Nsg30
Nsg31
Nsg32
Nssg5
S'K. Dolberg'
p1308
sg34
I19
sg20
Nsg35
Nsg36
S'Denmark'
p1309
sg38
Nsba(i__main__
Player
p1310
(dp1311
g24
(dp1312
g26
Nsg27
I77
sg28
I84
sg29
Nsg30
Nsg31
Nsg32
Nssg5
S'M. Braithwaite'
p1313
sg34
I26
sg20
Nsg35
Nsg36
S'Denmark'
p1314
sg38
Nsba(i__main__
Player
p1315
(dp1316
g24
(dp1317
g26
Nsg27
I76
sg28
I85
sg29
Nsg30
Nsg31
Nsg32
Nssg5
S'Y. Poulsen'
p1318
sg34
I23
sg20
Nsg35
Nsg36
S'Denmark'
p1319
sg38
Nsba(i__main__
Player
p1320
(dp1321
g24
(dp1322
g26
Nsg27
I75
sg28
I64
sg29
Nsg30
Nsg31
Nsg32
Nssg5
S'L. Lerager'
p1323
sg34
I23
sg20
Nsg35
Nsg36
S'Denmark'
p1324
sg38
Nsba(i__main__
Player
p1325
(dp1326
g24
(dp1327
g26
Nsg27
I75
sg28
I31
sg29
Nsg30
Nsg31
Nsg32
Nssg5
S'J. L\xc3\xb6ssl'
p1328
sg34
I28
sg20
Nsg35
Nsg36
S'Denmark'
p1329
sg38
Nsbasg89
I71
sg90
(lp1330
(i__main__
Player
p1331
(dp1332
g24
(dp1333
g26
Nsg27
I75
sg28
I76
sg29
Nsg30
Nsg31
Nsg32
Nssg5
S'V. Fischer'
p1334
sg34
I23
sg20
Nsg35
Nsg36
S'Denmark'
p1335
sg38
Nsba(i__main__
Player
p1336
(dp1337
g24
(dp1338
g26
Nsg27
I75
sg28
I68
sg29
Nsg30
Nsg31
Nsg32
Nssg5
S'M. J\xc3\xb8rgensen'
p1339
sg34
I27
sg20
Nsg35
Nsg36
S'Denmark'
p1340
sg38
Nsba(i__main__
Player
p1341
(dp1342
g24
(dp1343
g26
Nsg27
I74
sg28
I83
sg29
Nsg30
Nsg31
Nsg32
Nssg5
S'P. Sisto'
p1344
sg34
I22
sg20
Nsg35
Nsg36
S'Denmark'
p1345
sg38
Nsba(i__main__
Player
p1346
(dp1347
g24
(dp1348
g26
Nsg27
I73
sg28
I46
sg29
Nsg30
Nsg31
Nsg32
Nssg5
S'F. R\xc3\xb8nnow'
p1349
sg34
I24
sg20
Nsg35
Nsg36
S'Denmark'
p1350
sg38
Nsba(i__main__
Player
p1351
(dp1352
g24
(dp1353
g26
Nsg27
I73
sg28
I69
sg29
Nsg30
Nsg31
Nsg32
Nssg5
S'A. Cornelius'
p1354
sg34
I24
sg20
Nsg35
Nsg36
S'Denmark'
p1355
sg38
Nsba(i__main__
Player
p1356
(dp1357
g24
(dp1358
g26
Nsg27
I71
sg28
I60
sg29
Nsg30
Nsg31
Nsg32
Nssg5
S'J. Poulsen'
p1359
sg34
I33
sg20
Nsg35
Nsg36
S'Denmark'
p1360
sg38
Nsba(i__main__
Player
p1361
(dp1362
g24
(dp1363
g26
Nsg27
I71
sg28
I82
sg29
Nsg30
Nsg31
Nsg32
Nssg5
S'H. Dalsgaard'
p1364
sg34
I27
sg20
Nsg35
Nsg36
S'Denmark'
p1365
sg38
Nsba(i__main__
Player
p1366
(dp1367
g24
(dp1368
g26
Nsg27
I70
sg28
I50
sg29
Nsg30
Nsg31
Nsg32
Nssg5
S'W. Kvist'
p1369
sg34
I32
sg20
Nsg35
Nsg36
S'Denmark'
p1370
sg38
Nsba(i__main__
Player
p1371
(dp1372
g24
(dp1373
g26
Nsg27
I70
sg28
I72
sg29
Nsg30
Nsg31
Nsg32
Nssg5
S'K. Larsen'
p1374
sg34
I24
sg20
Nsg35
Nsg36
S'Denmark'
p1375
sg38
Nsba(i__main__
Player
p1376
(dp1377
g24
(dp1378
g26
Nsg27
I69
sg28
I77
sg29
Nsg30
Nsg31
Nsg32
Nssg5
S'J. Knudsen'
p1379
sg34
I24
sg20
Nsg35
Nsg36
S'Denmark'
p1380
sg38
Nsba(i__main__
Player
p1381
(dp1382
g24
(dp1383
g26
Nsg27
I69
sg28
I83
sg29
Nsg30
Nsg31
Nsg32
Nssg5
S'J. Stryger Larsen'
p1384
sg34
I26
sg20
Nsg35
Nsg36
S'Denmark'
p1385
sg38
Nsba(i__main__
Player
p1386
(dp1387
g24
(dp1388
g26
Nsg27
I68
sg28
I75
sg29
Nsg30
Nsg31
Nsg32
Nssg5
S'L. Christensen'
p1389
sg34
I22
sg20
Nsg35
Nsg36
S'Denmark'
p1390
sg38
Nsbasg149
I2
sg150
F75.0
sbasba(i__main__
Group
p1391
(dp1392
g3
(lp1393
I0
aI0
aI0
aI0
asg5
S'Group D'
p1394
sg7
(lp1395
(i__main__
Team
p1396
(dp1397
g11
Nsg12
I637590
sg13
I71
sg5
S'Argentina'
p1398
sg15
F136.3759
sg16
I84
sg17
I1
sg18
I4
sg19
I3
sg20
(lp1399
(i__main__
Player
p1400
(dp1401
g24
(dp1402
g26
Nsg27
I90
sg28
I79
sg29
Nsg30
Nsg31
Nsg32
Nssg5
S'G. Higua\xc3\xadn'
p1403
sg34
I29
sg20
Nsg35
Nsg36
S'Argentina'
p1404
sg38
Nsba(i__main__
Player
p1405
(dp1406
g24
(dp1407
g26
Nsg27
I89
sg28
I87
sg29
Nsg30
Nsg31
Nsg32
Nssg5
S'S. Ag\xc3\xbcero'
p1408
sg34
I29
sg20
Nsg35
Nsg36
S'Argentina'
p1409
sg38
Nsba(i__main__
Player
p1410
(dp1411
g24
(dp1412
g26
Nsg27
I88
sg28
I86
sg29
Nsg30
Nsg31
Nsg32
Nssg5
S'P. Dybala'
p1413
sg34
I23
sg20
Nsg35
Nsg36
S'Argentina'
p1414
sg38
Nsba(i__main__
Player
p1415
(dp1416
g24
(dp1417
g26
Nsg27
I85
sg28
I86
sg29
Nsg30
Nsg31
Nsg32
Nssg5
S'A. Di Mar\xc3\xada'
p1418
sg34
I29
sg20
Nsg35
Nsg36
S'Argentina'
p1419
sg38
Nsba(i__main__
Player
p1420
(dp1421
g24
(dp1422
g26
Nsg27
I83
sg28
I63
sg29
Nsg30
Nsg31
Nsg32
Nssg5
S'N. Otamendi'
p1423
sg34
I29
sg20
Nsg35
Nsg36
S'Argentina'
p1424
sg38
Nsba(i__main__
Player
p1425
(dp1426
g24
(dp1427
g26
Nsg27
I83
sg28
I69
sg29
Nsg30
Nsg31
Nsg32
Nssg5
S'E. Banega'
p1428
sg34
I29
sg20
Nsg35
Nsg36
S'Argentina'
p1429
sg38
Nsba(i__main__
Player
p1430
(dp1431
g24
(dp1432
g26
Nsg27
I83
sg28
I69
sg29
Nsg30
Nsg31
Nsg32
Nssg5
S'L. Biglia'
p1433
sg34
I31
sg20
Nsg35
Nsg36
S'Argentina'
p1434
sg38
Nsba(i__main__
Player
p1435
(dp1436
g24
(dp1437
g26
Nsg27
I83
sg28
I65
sg29
Nsg30
Nsg31
Nsg32
Nssg5
S'J. Mascherano'
p1438
sg34
I33
sg20
Nsg35
Nsg36
S'Argentina'
p1439
sg38
Nsba(i__main__
Player
p1440
(dp1441
g24
(dp1442
g26
Nsg27
I82
sg28
I70
sg29
Nsg30
Nsg31
Nsg32
Nssg5
S'M. Rojo'
p1443
sg34
I27
sg20
Nsg35
Nsg36
S'Argentina'
p1444
sg38
Nsba(i__main__
Player
p1445
(dp1446
g24
(dp1447
g26
Nsg27
I82
sg28
I30
sg29
Nsg30
Nsg31
Nsg32
Nssg5
S'F. Fazio'
p1448
sg34
I30
sg20
Nsg35
Nsg36
S'Argentina'
p1449
sg38
Nsba(i__main__
Player
p1450
(dp1451
g24
(dp1452
g26
Nsg27
I80
sg28
I87
sg29
Nsg30
Nsg31
Nsg32
Nssg5
S'E. Salvio'
p1453
sg34
I26
sg20
Nsg35
Nsg36
S'Argentina'
p1454
sg38
Nsbasg89
I76
sg90
(lp1455
(i__main__
Player
p1456
(dp1457
g24
(dp1458
g26
Nsg27
I79
sg28
I84
sg29
Nsg30
Nsg31
Nsg32
Nssg5
S'M. Acu\xc3\xb1a'
p1459
sg34
I25
sg20
Nsg35
Nsg36
S'Argentina'
p1460
sg38
Nsba(i__main__
Player
p1461
(dp1462
g24
(dp1463
g26
Nsg27
I79
sg28
I88
sg29
Nsg30
Nsg31
Nsg32
Nssg5
S'N. Tagliafico'
p1464
sg34
I24
sg20
Nsg35
Nsg36
S'Argentina'
p1465
sg38
Nsba(i__main__
Player
p1466
(dp1467
g24
(dp1468
g26
Nsg27
I79
sg28
I80
sg29
Nsg30
Nsg31
Nsg32
Nssg5
S'C. Ansaldi'
p1469
sg34
I30
sg20
Nsg35
Nsg36
S'Argentina'
p1470
sg38
Nsba(i__main__
Player
p1471
(dp1472
g24
(dp1473
g26
Nsg27
I79
sg28
I45
sg29
Nsg30
Nsg31
Nsg32
Nssg5
S'W. Caballero'
p1474
sg34
I35
sg20
Nsg35
Nsg36
S'Argentina'
p1475
sg38
Nsba(i__main__
Player
p1476
(dp1477
g24
(dp1478
g26
Nsg27
I78
sg28
I70
sg29
Nsg30
Nsg31
Nsg32
Nssg5
S'E. P\xc3\xa9rez'
p1479
sg34
I31
sg20
Nsg35
Nsg36
S'Argentina'
p1480
sg38
Nsba(i__main__
Player
p1481
(dp1482
g24
(dp1483
g26
Nsg27
I77
sg28
I70
sg29
Nsg30
Nsg31
Nsg32
Nssg5
S'P. P\xc3\xa9rez'
p1484
sg34
I31
sg20
Nsg35
Nsg36
S'Argentina'
p1485
sg38
Nsba(i__main__
Player
p1486
(dp1487
g24
(dp1488
g26
Nsg27
I77
sg28
I32
sg29
Nsg30
Nsg31
Nsg32
Nssg5
S'F. Armani'
p1489
sg34
I30
sg20
Nsg35
Nsg36
S'Argentina'
p1490
sg38
Nsba(i__main__
Player
p1491
(dp1492
g24
(dp1493
g26
Nsg27
I77
sg28
I67
sg29
Nsg30
Nsg31
Nsg32
Nssg5
S'F. Higua\xc3\xadn'
p1494
sg34
I32
sg20
Nsg35
Nsg36
S'Argentina'
p1495
sg38
Nsba(i__main__
Player
p1496
(dp1497
g24
(dp1498
g26
Nsg27
I76
sg28
I74
sg29
Nsg30
Nsg31
Nsg32
Nssg5
S'G. Mercado'
p1499
sg34
I30
sg20
Nsg35
Nsg36
S'Argentina'
p1500
sg38
Nsba(i__main__
Player
p1501
(dp1502
g24
(dp1503
g26
Nsg27
I75
sg28
I88
sg29
Nsg30
Nsg31
Nsg32
Nssg5
S'C. Pav\xc3\xb3n'
p1504
sg34
I21
sg20
Nsg35
Nsg36
S'Argentina'
p1505
sg38
Nsba(i__main__
Player
p1506
(dp1507
g24
(dp1508
g26
Nsg27
I74
sg28
I75
sg29
Nsg30
Nsg31
Nsg32
Nssg5
S'G. Lo Celso'
p1509
sg34
I21
sg20
Nsg35
Nsg36
S'Argentina'
p1510
sg38
Nsba(i__main__
Player
p1511
(dp1512
g24
(dp1513
g26
Nsg27
I73
sg28
I80
sg29
Nsg30
Nsg31
Nsg32
Nssg5
S'D. P\xc3\xa9rez'
p1514
sg34
I28
sg20
Nsg35
Nsg36
S'Argentina'
p1515
sg38
Nsbasg149
I2
sg150
F30.0
sba(i__main__
Team
p1516
(dp1517
g11
Nsg12
I23909
sg13
I65
sg5
S'Iceland'
p1518
sg15
F-61.76091
sg16
I73
sg17
I1
sg18
I22
sg19
I3
sg20
(lp1519
(i__main__
Player
p1520
(dp1521
g24
(dp1522
g26
Nsg27
I82
sg28
I65
sg29
Nsg30
Nsg31
Nsg32
Nssg5
S'G. Sigur\xc3\xb0sson'
p1523
sg34
I27
sg20
Nsg35
Nsg36
S'Iceland'
p1524
sg38
Nsba(i__main__
Player
p1525
(dp1526
g24
(dp1527
g26
Nsg27
I76
sg28
I67
sg29
Nsg30
Nsg31
Nsg32
Nssg5
S'A. Finnbogason'
p1528
sg34
I28
sg20
Nsg35
Nsg36
S'Iceland'
p1529
sg38
Nsba(i__main__
Player
p1530
(dp1531
g24
(dp1532
g26
Nsg27
I75
sg28
I67
sg29
Nsg30
Nsg31
Nsg32
Nssg5
S'E. Hallfre\xc3\xb0sson'
p1533
sg34
I33
sg20
Nsg35
Nsg36
S'Iceland'
p1534
sg38
Nsba(i__main__
Player
p1535
(dp1536
g24
(dp1537
g26
Nsg27
I73
sg28
I78
sg29
Nsg30
Nsg31
Nsg32
Nssg5
S'J. Gu\xc3\xb0mundsson'
p1538
sg34
I26
sg20
Nsg35
Nsg36
S'Iceland'
p1539
sg38
Nsba(i__main__
Player
p1540
(dp1541
g24
(dp1542
g26
Nsg27
I73
sg28
I73
sg29
Nsg30
Nsg31
Nsg32
Nssg5
S'B. Bjarnason'
p1543
sg34
I29
sg20
Nsg35
Nsg36
S'Iceland'
p1544
sg38
Nsba(i__main__
Player
p1545
(dp1546
g24
(dp1547
g26
Nsg27
I73
sg28
I78
sg29
Nsg30
Nsg31
Nsg32
Nssg5
S'B. Sigur\xc3\xb0arson'
p1548
sg34
I25
sg20
Nsg35
Nsg36
S'Iceland'
p1549
sg38
Nsba(i__main__
Player
p1550
(dp1551
g24
(dp1552
g26
Nsg27
I72
sg28
I65
sg29
Nsg30
Nsg31
Nsg32
Nssg5
S'R. Sigur\xc3\xb0sson'
p1553
sg34
I31
sg20
Nsg35
Nsg36
S'Iceland'
p1554
sg38
Nsba(i__main__
Player
p1555
(dp1556
g24
(dp1557
g26
Nsg27
I72
sg28
I61
sg29
Nsg30
Nsg31
Nsg32
Nssg5
S'S. Ingason'
p1558
sg34
I23
sg20
Nsg35
Nsg36
S'Iceland'
p1559
sg38
Nsba(i__main__
Player
p1560
(dp1561
g24
(dp1562
g26
Nsg27
I70
sg28
I65
sg29
Nsg30
Nsg31
Nsg32
Nssg5
S'O. Sk\xc3\xbalason'
p1563
sg34
I34
sg20
Nsg35
Nsg36
S'Iceland'
p1564
sg38
Nsba(i__main__
Player
p1565
(dp1566
g24
(dp1567
g26
Nsg27
I70
sg28
I30
sg29
Nsg30
Nsg31
Nsg32
Nssg5
S'K. \xc3\x81rnason'
p1568
sg34
I34
sg20
Nsg35
Nsg36
S'Iceland'
p1569
sg38
Nsba(i__main__
Player
p1570
(dp1571
g24
(dp1572
g26
Nsg27
I70
sg28
I78
sg29
Nsg30
Nsg31
Nsg32
Nssg5
S'A. Traustason'
p1573
sg34
I24
sg20
Nsg35
Nsg36
S'Iceland'
p1574
sg38
Nsbasg89
I65
sg90
(lp1575
(i__main__
Player
p1576
(dp1577
g24
(dp1578
g26
Nsg27
I69
sg28
I76
sg29
Nsg30
Nsg31
Nsg32
Nssg5
S'J. B\xc3\xb6\xc3\xb0varsson'
p1579
sg34
I25
sg20
Nsg35
Nsg36
S'Iceland'
p1580
sg38
Nsba(i__main__
Player
p1581
(dp1582
g24
(dp1583
g26
Nsg27
I68
sg28
I76
sg29
Nsg30
Nsg31
Nsg32
Nssg5
S'R. G\xc3\xadslason'
p1584
sg34
I29
sg20
Nsg35
Nsg36
S'Iceland'
p1585
sg38
Nsba(i__main__
Player
p1586
(dp1587
g24
(dp1588
g26
Nsg27
I68
sg28
I62
sg29
Nsg30
Nsg31
Nsg32
Nssg5
S'H. Magn\xc3\xbasson'
p1589
sg34
I24
sg20
Nsg35
Nsg36
S'Iceland'
p1590
sg38
Nsba(i__main__
Player
p1591
(dp1592
g24
(dp1593
g26
Nsg27
I68
sg28
I63
sg29
Nsg30
Nsg31
Nsg32
Nssg5
S'A. Sk\xc3\xbalason'
p1594
sg34
I30
sg20
Nsg35
Nsg36
S'Iceland'
p1595
sg38
Nsba(i__main__
Player
p1596
(dp1597
g24
(dp1598
g26
Nsg27
I67
sg28
I36
sg29
Nsg30
Nsg31
Nsg32
Nssg5
S'H. Halld\xc3\xb3rsson'
p1599
sg34
I33
sg20
Nsg35
Nsg36
S'Iceland'
p1600
sg38
Nsba(i__main__
Player
p1601
(dp1602
g24
(dp1603
g26
Nsg27
I66
sg28
I76
sg29
Nsg30
Nsg31
Nsg32
Nssg5
S'B. S\xc3\xa6varsson'
p1604
sg34
I32
sg20
Nsg35
Nsg36
S'Iceland'
p1605
sg38
Nsba(i__main__
Player
p1606
(dp1607
g24
(dp1608
g26
Nsg27
I66
sg28
I72
sg29
Nsg30
Nsg31
Nsg32
Nssg5
S'A. Gu\xc3\xb0mundsson'
p1609
sg34
I20
sg20
Nsg35
Nsg36
S'Iceland'
p1610
sg38
Nsba(i__main__
Player
p1611
(dp1612
g24
(dp1613
g26
Nsg27
I66
sg28
I79
sg29
Nsg30
Nsg31
Nsg32
Nssg5
S'A. Sigur\xc3\xb0arson'
p1614
sg34
I23
sg20
Nsg35
Nsg36
S'Iceland'
p1615
sg38
Nsba(i__main__
Player
p1616
(dp1617
g24
(dp1618
g26
Nsg27
I65
sg28
I65
sg29
Nsg30
Nsg31
Nsg32
Nssg5
S'K. Finnbogason'
p1619
sg34
I30
sg20
Nsg35
Nsg36
S'Iceland'
p1620
sg38
Nsba(i__main__
Player
p1621
(dp1622
g24
(dp1623
g26
Nsg27
I64
sg28
I45
sg29
Nsg30
Nsg31
Nsg32
Nssg5
S'R. R\xc3\xbanarsson'
p1624
sg34
I22
sg20
Nsg35
Nsg36
S'Iceland'
p1625
sg38
Nsba(i__main__
Player
p1626
(dp1627
g24
(dp1628
g26
Nsg27
I62
sg28
I65
sg29
Nsg30
Nsg31
Nsg32
Nssg5
S'K. Sigur\xc3\xb0sson'
p1629
sg34
I25
sg20
Nsg35
Nsg36
S'Iceland'
p1630
sg38
Nsba(i__main__
Player
p1631
(dp1632
g24
(dp1633
g26
Nsg27
I53
sg28
I66
sg29
Nsg30
Nsg31
Nsg32
Nssg5
S'A. Sigur\xc3\xb0sson'
p1634
sg34
I18
sg20
Nsg35
Nsg36
S'Iceland'
p1635
sg38
Nsbasg149
I2
sg150
F200.0
sba(i__main__
Team
p1636
(dp1637
g11
Nsg12
I54849
sg13
I67
sg5
S'Croatia'
p1638
sg15
F139.54849
sg16
I82
sg17
I1
sg18
I17
sg19
I3
sg20
(lp1639
(i__main__
Player
p1640
(dp1641
g24
(dp1642
g26
Nsg27
I87
sg28
I65
sg29
Nsg30
Nsg31
Nsg32
Nssg5
S'I. Rakiti\xc4\x87'
p1643
sg34
I29
sg20
Nsg35
Nsg36
S'Croatia'
p1644
sg38
Nsba(i__main__
Player
p1645
(dp1646
g24
(dp1647
g26
Nsg27
I85
sg28
I52
sg29
Nsg30
Nsg31
Nsg32
Nssg5
S'D. Suba\xc5\xa1i\xc4\x87'
p1648
sg34
I32
sg20
Nsg35
Nsg36
S'Croatia'
p1649
sg38
Nsba(i__main__
Player
p1650
(dp1651
g24
(dp1652
g26
Nsg27
I84
sg28
I84
sg29
Nsg30
Nsg31
Nsg32
Nssg5
S'I. Peri\xc5\xa1i\xc4\x87'
p1653
sg34
I28
sg20
Nsg35
Nsg36
S'Croatia'
p1654
sg38
Nsba(i__main__
Player
p1655
(dp1656
g24
(dp1657
g26
Nsg27
I83
sg28
I72
sg29
Nsg30
Nsg31
Nsg32
Nssg5
S'M. Mand\xc5\xbeuki\xc4\x87'
p1658
sg34
I31
sg20
Nsg35
Nsg36
S'Croatia'
p1659
sg38
Nsba(i__main__
Player
p1660
(dp1661
g24
(dp1662
g26
Nsg27
I82
sg28
I81
sg29
Nsg30
Nsg31
Nsg32
Nssg5
S'M. Kova\xc4\x8di\xc4\x87'
p1663
sg34
I23
sg20
Nsg35
Nsg36
S'Croatia'
p1664
sg38
Nsba(i__main__
Player
p1665
(dp1666
g24
(dp1667
g26
Nsg27
I82
sg28
I57
sg29
Nsg30
Nsg31
Nsg32
Nssg5
S'V. \xc4\x86orluka'
p1668
sg34
I31
sg20
Nsg35
Nsg36
S'Croatia'
p1669
sg38
Nsba(i__main__
Player
p1670
(dp1671
g24
(dp1672
g26
Nsg27
I81
sg28
I73
sg29
Nsg30
Nsg31
Nsg32
Nssg5
S'A. Kramari\xc4\x87'
p1673
sg34
I26
sg20
Nsg35
Nsg36
S'Croatia'
p1674
sg38
Nsba(i__main__
Player
p1675
(dp1676
g24
(dp1677
g26
Nsg27
I81
sg28
I73
sg29
Nsg30
Nsg31
Nsg32
Nssg5
S'M. Brozovi\xc4\x87'
p1678
sg34
I24
sg20
Nsg35
Nsg36
S'Croatia'
p1679
sg38
Nsba(i__main__
Player
p1680
(dp1681
g24
(dp1682
g26
Nsg27
I81
sg28
I56
sg29
Nsg30
Nsg31
Nsg32
Nssg5
S'D. Lovren'
p1683
sg34
I27
sg20
Nsg35
Nsg36
S'Croatia'
p1684
sg38
Nsba(i__main__
Player
p1685
(dp1686
g24
(dp1687
g26
Nsg27
I81
sg28
I73
sg29
Nsg30
Nsg31
Nsg32
Nssg5
S'N. Kalini\xc4\x87'
p1688
sg34
I29
sg20
Nsg35
Nsg36
S'Croatia'
p1689
sg38
Nsba(i__main__
Player
p1690
(dp1691
g24
(dp1692
g26
Nsg27
I79
sg28
I80
sg29
Nsg30
Nsg31
Nsg32
Nssg5
S'S. Vrsaljko'
p1693
sg34
I25
sg20
Nsg35
Nsg36
S'Croatia'
p1694
sg38
Nsbasg89
I72
sg90
(lp1695
(i__main__
Player
p1696
(dp1697
g24
(dp1698
g26
Nsg27
I78
sg28
I59
sg29
Nsg30
Nsg31
Nsg32
Nssg5
S'M. Badelj'
p1699
sg34
I28
sg20
Nsg35
Nsg36
S'Croatia'
p1700
sg38
Nsba(i__main__
Player
p1701
(dp1702
g24
(dp1703
g26
Nsg27
I78
sg28
I59
sg29
Nsg30
Nsg31
Nsg32
Nssg5
S'M. Badelj'
p1704
sg34
I28
sg20
Nsg35
Nsg36
S'Croatia'
p1705
sg38
Nsba(i__main__
Player
p1706
(dp1707
g24
(dp1708
g26
Nsg27
I77
sg28
I34
sg29
Nsg30
Nsg31
Nsg32
Nssg5
S'L. Kalini\xc4\x87'
p1709
sg34
I27
sg20
Nsg35
Nsg36
S'Croatia'
p1710
sg38
Nsba(i__main__
Player
p1711
(dp1712
g24
(dp1713
g26
Nsg27
I77
sg28
I67
sg29
Nsg30
Nsg31
Nsg32
Nssg5
g105
sg34
I25
sg20
Nsg35
Nsg36
g1638
sg38
Nsba(i__main__
Player
p1714
(dp1715
g24
(dp1716
g26
Nsg27
I77
sg28
I67
sg29
Nsg30
Nsg31
Nsg32
Nssg5
g105
sg34
I25
sg20
Nsg35
Nsg36
g1638
sg38
Nsba(i__main__
Player
p1717
(dp1718
g24
(dp1719
g26
Nsg27
I76
sg28
I72
sg29
Nsg30
Nsg31
Nsg32
Nssg5
S'T. Jedvaj'
p1720
sg34
I21
sg20
Nsg35
Nsg36
S'Croatia'
p1721
sg38
Nsba(i__main__
Player
p1722
(dp1723
g24
(dp1724
g26
Nsg27
I76
sg28
I84
sg29
Nsg30
Nsg31
Nsg32
Nssg5
S'M. Pjaca'
p1725
sg34
I22
sg20
Nsg35
Nsg36
S'Croatia'
p1726
sg38
Nsba(i__main__
Player
p1727
(dp1728
g24
(dp1729
g26
Nsg27
I75
sg28
I74
sg29
Nsg30
Nsg31
Nsg32
Nssg5
S'I. Strini\xc4\x87'
p1730
sg34
I29
sg20
Nsg35
Nsg36
S'Croatia'
p1731
sg38
Nsba(i__main__
Player
p1732
(dp1733
g24
(dp1734
g26
Nsg27
I72
sg28
I77
sg29
Nsg30
Nsg31
Nsg32
Nssg5
S'A. Rebi\xc4\x87'
p1735
sg34
I23
sg20
Nsg35
Nsg36
S'Croatia'
p1736
sg38
Nsba(i__main__
Player
p1737
(dp1738
g24
(dp1739
g26
Nsg27
I71
sg28
I64
sg29
Nsg30
Nsg31
Nsg32
Nssg5
S'D. \xc4\x86aleta-Car'
p1740
sg34
I20
sg20
Nsg35
Nsg36
S'Croatia'
p1741
sg38
Nsba(i__main__
Player
p1742
(dp1743
g24
(dp1744
g26
Nsg27
I58
sg28
I62
sg29
Nsg30
Nsg31
Nsg32
Nssg5
S'D. Kova\xc4\x8di\xc4\x87'
p1745
sg34
I23
sg20
Nsg35
Nsg36
S'Croatia'
p1746
sg38
Nsba(i__main__
Player
p1747
(dp1748
g24
(dp1749
g26
Nsg27
I58
sg28
I76
sg29
Nsg30
Nsg31
Nsg32
Nssg5
S'D. Lovren'
p1750
sg34
I18
sg20
Nsg35
Nsg36
S'Croatia'
p1751
sg38
Nsbasg149
I2
sg150
F15.0
sba(i__main__
Team
p1752
(dp1753
g11
Nsg12
I375771
sg13
I76
sg5
S'Nigeria'
p1754
sg15
F-602.24229
sg16
I74
sg17
I1
sg18
I50
sg19
I3
sg20
(lp1755
(i__main__
Player
p1756
(dp1757
g24
(dp1758
g26
Nsg27
I79
sg28
I83
sg29
Nsg30
Nsg31
Nsg32
Nssg5
S'V. Moses'
p1759
sg34
I26
sg20
Nsg35
Nsg36
S'Nigeria'
p1760
sg38
Nsba(i__main__
Player
p1761
(dp1762
g24
(dp1763
g26
Nsg27
I77
sg28
I73
sg29
Nsg30
Nsg31
Nsg32
Nssg5
S'O. Ndidi'
p1764
sg34
I20
sg20
Nsg35
Nsg36
S'Nigeria'
p1765
sg38
Nsba(i__main__
Player
p1766
(dp1767
g24
(dp1768
g26
Nsg27
I76
sg28
I93
sg29
Nsg30
Nsg31
Nsg32
Nssg5
S'A. Musa'
p1769
sg34
I24
sg20
Nsg35
Nsg36
S'Nigeria'
p1770
sg38
Nsba(i__main__
Player
p1771
(dp1772
g24
(dp1773
g26
Nsg27
I75
sg28
I70
sg29
Nsg30
Nsg31
Nsg32
Nssg5
S'L. Balogun'
p1774
sg34
I29
sg20
Nsg35
Nsg36
S'Nigeria'
p1775
sg38
Nsba(i__main__
Player
p1776
(dp1777
g24
(dp1778
g26
Nsg27
I75
sg28
I84
sg29
Nsg30
Nsg31
Nsg32
Nssg5
S'K. Iheanacho'
p1779
sg34
I20
sg20
Nsg35
Nsg36
S'Nigeria'
p1780
sg38
Nsba(i__main__
Player
p1781
(dp1782
g24
(dp1783
g26
Nsg27
I74
sg28
I78
sg29
Nsg30
Nsg31
Nsg32
Nssg5
S'A. Iwobi'
p1784
sg34
I21
sg20
Nsg35
Nsg36
S'Nigeria'
p1785
sg38
Nsba(i__main__
Player
p1786
(dp1787
g24
(dp1788
g26
Nsg27
I74
sg28
I80
sg29
Nsg30
Nsg31
Nsg32
Nssg5
S'O. Onazi'
p1789
sg34
I24
sg20
Nsg35
Nsg36
S'Nigeria'
p1790
sg38
Nsba(i__main__
Player
p1791
(dp1792
g24
(dp1793
g26
Nsg27
I73
sg28
I80
sg29
Nsg30
Nsg31
Nsg32
Nssg5
S'J. Obi'
p1794
sg34
I26
sg20
Nsg35
Nsg36
S'Nigeria'
p1795
sg38
Nsba(i__main__
Player
p1796
(dp1797
g24
(dp1798
g26
Nsg27
I73
sg28
I84
sg29
Nsg30
Nsg31
Nsg32
Nssg5
S'P. Etebo'
p1799
sg34
I21
sg20
Nsg35
Nsg36
S'Nigeria'
p1800
sg38
Nsba(i__main__
Player
p1801
(dp1802
g24
(dp1803
g26
Nsg27
I72
sg28
I71
sg29
Nsg30
Nsg31
Nsg32
Nssg5
S'K. Omeruo'
p1804
sg34
I23
sg20
Nsg35
Nsg36
S'Nigeria'
p1805
sg38
Nsba(i__main__
Player
p1806
(dp1807
g24
(dp1808
g26
Nsg27
I72
sg28
I76
sg29
Nsg30
Nsg31
Nsg32
Nssg5
g105
sg34
I22
sg20
Nsg35
Nsg36
g1754
sg38
Nsbasg89
I70
sg90
(lp1809
(i__main__
Player
p1810
(dp1811
g24
(dp1812
g26
Nsg27
I72
sg28
I76
sg29
Nsg30
Nsg31
Nsg32
Nssg5
g105
sg34
I22
sg20
Nsg35
Nsg36
g1754
sg38
Nsba(i__main__
Player
p1813
(dp1814
g24
(dp1815
g26
Nsg27
I72
sg28
I76
sg29
Nsg30
Nsg31
Nsg32
Nssg5
g105
sg34
I22
sg20
Nsg35
Nsg36
g1754
sg38
Nsba(i__main__
Player
p1816
(dp1817
g24
(dp1818
g26
Nsg27
I72
sg28
I76
sg29
Nsg30
Nsg31
Nsg32
Nssg5
g105
sg34
I22
sg20
Nsg35
Nsg36
g1754
sg38
Nsba(i__main__
Player
p1819
(dp1820
g24
(dp1821
g26
Nsg27
I72
sg28
I76
sg29
Nsg30
Nsg31
Nsg32
Nssg5
g105
sg34
I22
sg20
Nsg35
Nsg36
g1754
sg38
Nsba(i__main__
Player
p1822
(dp1823
g24
(dp1824
g26
Nsg27
I72
sg28
I76
sg29
Nsg30
Nsg31
Nsg32
Nssg5
g105
sg34
I22
sg20
Nsg35
Nsg36
g1754
sg38
Nsba(i__main__
Player
p1825
(dp1826
g24
(dp1827
g26
Nsg27
I72
sg28
I76
sg29
Nsg30
Nsg31
Nsg32
Nssg5
g105
sg34
I22
sg20
Nsg35
Nsg36
g1754
sg38
Nsba(i__main__
Player
p1828
(dp1829
g24
(dp1830
g26
Nsg27
I71
sg28
I69
sg29
Nsg30
Nsg31
Nsg32
Nssg5
S'W. Troost-Ekong'
p1831
sg34
I23
sg20
Nsg35
Nsg36
S'Nigeria'
p1832
sg38
Nsba(i__main__
Player
p1833
(dp1834
g24
(dp1835
g26
Nsg27
I71
sg28
I70
sg29
Nsg30
Nsg31
Nsg32
Nssg5
S'C. Awaziem'
p1836
sg34
I20
sg20
Nsg35
Nsg36
S'Nigeria'
p1837
sg38
Nsba(i__main__
Player
p1838
(dp1839
g24
(dp1840
g26
Nsg27
I71
sg28
I72
sg29
Nsg30
Nsg31
Nsg32
Nssg5
S'E. Echi\xc3\xa9jil\xc3\xa9'
p1841
sg34
I29
sg20
Nsg35
Nsg36
S'Nigeria'
p1842
sg38
Nsba(i__main__
Player
p1843
(dp1844
g24
(dp1845
g26
Nsg27
I69
sg28
I83
sg29
Nsg30
Nsg31
Nsg32
Nssg5
S'S. Abdullahi'
p1846
sg34
I20
sg20
Nsg35
Nsg36
S'Nigeria'
p1847
sg38
Nsba(i__main__
Player
p1848
(dp1849
g24
(dp1850
g26
Nsg27
I66
sg28
I86
sg29
Nsg30
Nsg31
Nsg32
Nssg5
S'T. Ebuehi'
p1851
sg34
I21
sg20
Nsg35
Nsg36
S'Nigeria'
p1852
sg38
Nsba(i__main__
Player
p1853
(dp1854
g24
(dp1855
g26
Nsg27
I64
sg28
I53
sg29
Nsg30
Nsg31
Nsg32
Nssg5
S'I. Abdullahi'
p1856
sg34
I20
sg20
Nsg35
Nsg36
S'Nigeria'
p1857
sg38
Nsbasg149
I2
sg150
F750.0
sbasba(i__main__
Group
p1858
(dp1859
g3
(lp1860
I0
aI0
aI0
aI0
asg5
S'Group E'
p1861
sg7
(lp1862
(i__main__
Team
p1863
(dp1864
g11
Nsg12
I2055506
sg13
I73
sg5
S'Brazil'
p1865
sg15
F179.30506
sg16
I85
sg17
I1
sg18
I2
sg19
I3
sg20
(lp1866
(i__main__
Player
p1867
(dp1868
g24
(dp1869
g26
Nsg27
I92
sg28
I92
sg29
Nsg30
Nsg31
Nsg32
Nssg5
S'Neymar'
p1870
sg34
I25
sg20
Nsg35
Nsg36
S'Brazil'
p1871
sg38
Nsba(i__main__
Player
p1872
(dp1873
g24
(dp1874
g26
Nsg27
I88
sg28
I72
sg29
Nsg30
Nsg31
Nsg32
Nssg5
S'Thiago Silva'
p1875
sg34
I32
sg20
Nsg35
Nsg36
S'Brazil'
p1876
sg38
Nsba(i__main__
Player
p1877
(dp1878
g24
(dp1879
g26
Nsg27
I86
sg28
I82
sg29
Nsg30
Nsg31
Nsg32
Nssg5
S'Coutinho'
p1880
sg34
I25
sg20
Nsg35
Nsg36
S'Brazil'
p1881
sg38
Nsba(i__main__
Player
p1882
(dp1883
g24
(dp1884
g26
Nsg27
I86
sg28
I70
sg29
Nsg30
Nsg31
Nsg32
Nssg5
S'Miranda'
p1885
sg34
I32
sg20
Nsg35
Nsg36
S'Brazil'
p1886
sg38
Nsba(i__main__
Player
p1887
(dp1888
g24
(dp1889
g26
Nsg27
I85
sg28
I62
sg29
Nsg30
Nsg31
Nsg32
Nssg5
S'Casemiro'
p1890
sg34
I25
sg20
Nsg35
Nsg36
S'Brazil'
p1891
sg38
Nsba(i__main__
Player
p1892
(dp1893
g24
(dp1894
g26
Nsg27
I85
sg28
I78
sg29
Nsg30
Nsg31
Nsg32
Nssg5
S'Filipe Lu\xc3\xads'
p1895
sg34
I31
sg20
Nsg35
Nsg36
S'Brazil'
p1896
sg38
Nsba(i__main__
Player
p1897
(dp1898
g24
(dp1899
g26
Nsg27
I84
sg28
I88
sg29
Nsg30
Nsg31
Nsg32
Nssg5
S'Willian'
p1900
sg34
I28
sg20
Nsg35
Nsg36
S'Brazil'
p1901
sg38
Nsba(i__main__
Player
p1902
(dp1903
g24
(dp1904
g26
Nsg27
I83
sg28
I63
sg29
Nsg30
Nsg31
Nsg32
Nssg5
S'Ederson'
p1905
sg34
I23
sg20
Nsg35
Nsg36
S'Brazil'
p1906
sg38
Nsba(i__main__
Player
p1907
(dp1908
g24
(dp1909
g26
Nsg27
I83
sg28
I70
sg29
Nsg30
Nsg31
Nsg32
Nssg5
S'Marquinhos'
p1910
sg34
I23
sg20
Nsg35
Nsg36
S'Brazil'
p1911
sg38
Nsba(i__main__
Player
p1912
(dp1913
g24
(dp1914
g26
Nsg27
I83
sg28
I77
sg29
Nsg30
Nsg31
Nsg32
Nssg5
S'Roberto Firmino'
p1915
sg34
I25
sg20
Nsg35
Nsg36
S'Brazil'
p1916
sg38
Nsba(i__main__
Player
p1917
(dp1918
g24
(dp1919
g26
Nsg27
I82
sg28
I92
sg29
Nsg30
Nsg31
Nsg32
Nssg5
S'Douglas Costa'
p1920
sg34
I26
sg20
Nsg35
Nsg36
S'Brazil'
p1921
sg38
Nsbasg89
I79
sg90
(lp1922
(i__main__
Player
p1923
(dp1924
g24
(dp1925
g26
Nsg27
I82
sg28
I92
sg29
Nsg30
Nsg31
Nsg32
Nssg5
S'Taison'
p1926
sg34
I29
sg20
Nsg35
Nsg36
S'Brazil'
p1927
sg38
Nsba(i__main__
Player
p1928
(dp1929
g24
(dp1930
g26
Nsg27
I82
sg28
I73
sg29
Nsg30
Nsg31
Nsg32
Nssg5
S'Fernandinho'
p1931
sg34
I32
sg20
Nsg35
Nsg36
S'Brazil'
p1932
sg38
Nsba(i__main__
Player
p1933
(dp1934
g24
(dp1935
g26
Nsg27
I81
sg28
I87
sg29
Nsg30
Nsg31
Nsg32
Nssg5
S'Gabriel Jesus'
p1936
sg34
I20
sg20
Nsg35
Nsg36
S'Brazil'
p1937
sg38
Nsba(i__main__
Player
p1938
(dp1939
g24
(dp1940
g26
Nsg27
I81
sg28
I76
sg29
Nsg30
Nsg31
Nsg32
Nssg5
S'Paulinho'
p1941
sg34
I28
sg20
Nsg35
Nsg36
S'Brazil'
p1942
sg38
Nsba(i__main__
Player
p1943
(dp1944
g24
(dp1945
g26
Nsg27
I80
sg28
I39
sg29
Nsg30
Nsg31
Nsg32
Nssg5
S'Alisson'
p1946
sg34
I24
sg20
Nsg35
Nsg36
S'Brazil'
p1947
sg38
Nsba(i__main__
Player
p1948
(dp1949
g24
(dp1950
g26
Nsg27
I80
sg28
I82
sg29
Nsg30
Nsg31
Nsg32
Nssg5
S'Fred'
p1951
sg34
I24
sg20
Nsg35
Nsg36
S'Brazil'
p1952
sg38
Nsba(i__main__
Player
p1953
(dp1954
g24
(dp1955
g26
Nsg27
I80
sg28
I66
sg29
Nsg30
Nsg31
Nsg32
Nssg5
S'Renato Augusto'
p1956
sg34
I29
sg20
Nsg35
Nsg36
S'Brazil'
p1957
sg38
Nsba(i__main__
Player
p1958
(dp1959
g24
(dp1960
g26
Nsg27
I79
sg28
I50
sg29
Nsg30
Nsg31
Nsg32
Nssg5
S'Danilo'
p1961
sg34
I33
sg20
Nsg35
Nsg36
S'Brazil'
p1962
sg38
Nsba(i__main__
Player
p1963
(dp1964
g24
(dp1965
g26
Nsg27
I78
sg28
I77
sg29
Nsg30
Nsg31
Nsg32
Nssg5
S'Danilo'
p1966
sg34
I25
sg20
Nsg35
Nsg36
S'Brazil'
p1967
sg38
Nsba(i__main__
Player
p1968
(dp1969
g24
(dp1970
g26
Nsg27
I78
sg28
I77
sg29
Nsg30
Nsg31
Nsg32
Nssg5
S'Danilo'
p1971
sg34
I25
sg20
Nsg35
Nsg36
S'Brazil'
p1972
sg38
Nsba(i__main__
Player
p1973
(dp1974
g24
(dp1975
g26
Nsg27
I77
sg28
I78
sg29
Nsg30
Nsg31
Nsg32
Nssg5
S'Juan Jesus'
p1976
sg34
I26
sg20
Nsg35
Nsg36
S'Brazil'
p1977
sg38
Nsba(i__main__
Player
p1978
(dp1979
g24
(dp1980
g26
Nsg27
I75
sg28
I45
sg29
Nsg30
Nsg31
Nsg32
Nssg5
S'C\xc3\xa1ssio'
p1981
sg34
I36
sg20
Nsg35
Nsg36
S'Brazil'
p1982
sg38
Nsbasg149
I2
sg150
F5.25
sba(i__main__
Team
p1983
(dp1984
g11
Nsg12
I678887
sg13
I66
sg5
S'Switzerland'
p1985
sg15
F57.78887
sg16
I79
sg17
I1
sg18
I8
sg19
I3
sg20
(lp1986
(i__main__
Player
p1987
(dp1988
g24
(dp1989
g26
Nsg27
I84
sg28
I48
sg29
Nsg30
Nsg31
Nsg32
Nssg5
S'R. B\xc3\xbcrki'
p1990
sg34
I26
sg20
Nsg35
Nsg36
S'Switzerland'
p1991
sg38
Nsba(i__main__
Player
p1992
(dp1993
g24
(dp1994
g26
Nsg27
I83
sg28
I51
sg29
Nsg30
Nsg31
Nsg32
Nssg5
S'Y. Sommer'
p1995
sg34
I28
sg20
Nsg35
Nsg36
S'Switzerland'
p1996
sg38
Nsba(i__main__
Player
p1997
(dp1998
g24
(dp1999
g26
Nsg27
I82
sg28
I49
sg29
Nsg30
Nsg31
Nsg32
Nssg5
S'G. Xhaka'
p2000
sg34
I24
sg20
Nsg35
Nsg36
S'Switzerland'
p2001
sg38
Nsba(i__main__
Player
p2002
(dp2003
g24
(dp2004
g26
Nsg27
I82
sg28
I83
sg29
Nsg30
Nsg31
Nsg32
Nssg5
S'X. Shaqiri'
p2005
sg34
I25
sg20
Nsg35
Nsg36
S'Switzerland'
p2006
sg38
Nsba(i__main__
Player
p2007
(dp2008
g24
(dp2009
g26
Nsg27
I81
sg28
I73
sg29
Nsg30
Nsg31
Nsg32
Nssg5
S'R. Rodr\xc3\xadguez'
p2010
sg34
I24
sg20
Nsg35
Nsg36
S'Switzerland'
p2011
sg38
Nsba(i__main__
Player
p2012
(dp2013
g24
(dp2014
g26
Nsg27
I78
sg28
I66
sg29
Nsg30
Nsg31
Nsg32
Nssg5
S'B. D\xc5\xbeemaili'
p2015
sg34
I31
sg20
Nsg35
Nsg36
S'Switzerland'
p2016
sg38
Nsba(i__main__
Player
p2017
(dp2018
g24
(dp2019
g26
Nsg27
I77
sg28
I63
sg29
Nsg30
Nsg31
Nsg32
Nssg5
S'V. Behrami'
p2020
sg34
I32
sg20
Nsg35
Nsg36
S'Switzerland'
p2021
sg38
Nsba(i__main__
Player
p2022
(dp2023
g24
(dp2024
g26
Nsg27
I77
sg28
I73
sg29
Nsg30
Nsg31
Nsg32
Nssg5
S'M. Lang'
p2025
sg34
I26
sg20
Nsg35
Nsg36
S'Switzerland'
p2026
sg38
Nsba(i__main__
Player
p2027
(dp2028
g24
(dp2029
g26
Nsg27
I76
sg28
I81
sg29
Nsg30
Nsg31
Nsg32
Nssg5
S'B. Embolo'
p2030
sg34
I20
sg20
Nsg35
Nsg36
S'Switzerland'
p2031
sg38
Nsba(i__main__
Player
p2032
(dp2033
g24
(dp2034
g26
Nsg27
I76
sg28
I67
sg29
Nsg30
Nsg31
Nsg32
Nssg5
S'Gelson Fernandes'
p2035
sg34
I30
sg20
Nsg35
Nsg36
S'Switzerland'
p2036
sg38
Nsba(i__main__
Player
p2037
(dp2038
g24
(dp2039
g26
Nsg27
I75
sg28
I69
sg29
Nsg30
Nsg31
Nsg32
Nssg5
S'R. Freuler'
p2040
sg34
I25
sg20
Nsg35
Nsg36
S'Switzerland'
p2041
sg38
Nsbasg89
I72
sg90
(lp2042
(i__main__
Player
p2043
(dp2044
g24
(dp2045
g26
Nsg27
I75
sg28
I78
sg29
Nsg30
Nsg31
Nsg32
Nssg5
S'S. Zuber'
p2046
sg34
I25
sg20
Nsg35
Nsg36
S'Switzerland'
p2047
sg38
Nsba(i__main__
Player
p2048
(dp2049
g24
(dp2050
g26
Nsg27
I75
sg28
I57
sg29
Nsg30
Nsg31
Nsg32
Nssg5
S'F. Sch\xc3\xa4r'
p2051
sg34
I25
sg20
Nsg35
Nsg36
S'Switzerland'
p2052
sg38
Nsba(i__main__
Player
p2053
(dp2054
g24
(dp2055
g26
Nsg27
I75
sg28
I42
sg29
Nsg30
Nsg31
Nsg32
Nssg5
S'Y. Mvogo'
p2056
sg34
I23
sg20
Nsg35
Nsg36
S'Switzerland'
p2057
sg38
Nsba(i__main__
Player
p2058
(dp2059
g24
(dp2060
g26
Nsg27
I74
sg28
I69
sg29
Nsg30
Nsg31
Nsg32
Nssg5
S'N. Elvedi'
p2061
sg34
I20
sg20
Nsg35
Nsg36
S'Switzerland'
p2062
sg38
Nsba(i__main__
Player
p2063
(dp2064
g24
(dp2065
g26
Nsg27
I74
sg28
I76
sg29
Nsg30
Nsg31
Nsg32
Nssg5
S'J. Drmi\xc4\x87'
p2066
sg34
I24
sg20
Nsg35
Nsg36
S'Switzerland'
p2067
sg38
Nsba(i__main__
Player
p2068
(dp2069
g24
(dp2070
g26
Nsg27
I74
sg28
I69
sg29
Nsg30
Nsg31
Nsg32
Nssg5
S'H. Seferovi\xc4\x87'
p2071
sg34
I25
sg20
Nsg35
Nsg36
S'Switzerland'
p2072
sg38
Nsba(i__main__
Player
p2073
(dp2074
g24
(dp2075
g26
Nsg27
I74
sg28
I71
sg29
Nsg30
Nsg31
Nsg32
Nssg5
S'F. Moubandje'
p2076
sg34
I27
sg20
Nsg35
Nsg36
S'Switzerland'
p2077
sg38
Nsba(i__main__
Player
p2078
(dp2079
g24
(dp2080
g26
Nsg27
I73
sg28
I68
sg29
Nsg30
Nsg31
Nsg32
Nssg5
S'J. Djourou'
p2081
sg34
I30
sg20
Nsg35
Nsg36
S'Switzerland'
p2082
sg38
Nsba(i__main__
Player
p2083
(dp2084
g24
(dp2085
g26
Nsg27
I72
sg28
I56
sg29
Nsg30
Nsg31
Nsg32
Nssg5
S'M. Akanji'
p2086
sg34
I21
sg20
Nsg35
Nsg36
S'Switzerland'
p2087
sg38
Nsba(i__main__
Player
p2088
(dp2089
g24
(dp2090
g26
Nsg27
I72
sg28
I69
sg29
Nsg30
Nsg31
Nsg32
Nssg5
S'D. Zakaria'
p2091
sg34
I20
sg20
Nsg35
Nsg36
S'Switzerland'
p2092
sg38
Nsba(i__main__
Player
p2093
(dp2094
g24
(dp2095
g26
Nsg27
I69
sg28
I79
sg29
Nsg30
Nsg31
Nsg32
Nssg5
S'E. Fernandes'
p2096
sg34
I21
sg20
Nsg35
Nsg36
S'Switzerland'
p2097
sg38
Nsba(i__main__
Player
p2098
(dp2099
g24
(dp2100
g26
Nsg27
I68
sg28
I78
sg29
Nsg30
Nsg31
Nsg32
Nssg5
S'F. Rodr\xc3\xadguez'
p2101
sg34
I21
sg20
Nsg35
Nsg36
S'Switzerland'
p2102
sg38
Nsbasg149
I2
sg150
F100.0
sba(i__main__
Team
p2103
(dp2104
g11
Nsg12
I57057
sg13
I70
sg5
S'Costa Rica'
p2105
sg15
F-605.42943
sg16
I74
sg17
I1
sg18
I26
sg19
I3
sg20
(lp2106
(i__main__
Player
p2107
(dp2108
g24
(dp2109
g26
Nsg27
I85
sg28
I53
sg29
Nsg30
Nsg31
Nsg32
Nssg5
S'K. Navas'
p2110
sg34
I30
sg20
Nsg35
Nsg36
S'Costa Rica'
p2111
sg38
Nsba(i__main__
Player
p2112
(dp2113
g24
(dp2114
g26
Nsg27
I77
sg28
I64
sg29
Nsg30
Nsg31
Nsg32
Nssg5
S'O. Duarte'
p2115
sg34
I28
sg20
Nsg35
Nsg36
S'Costa Rica'
p2116
sg38
Nsba(i__main__
Player
p2117
(dp2118
g24
(dp2119
g26
Nsg27
I77
sg28
I85
sg29
Nsg30
Nsg31
Nsg32
Nssg5
S'J. Campbell'
p2120
sg34
I25
sg20
Nsg35
Nsg36
S'Costa Rica'
p2121
sg38
Nsba(i__main__
Player
p2122
(dp2123
g24
(dp2124
g26
Nsg27
I75
sg28
I71
sg29
Nsg30
Nsg31
Nsg32
Nssg5
S'G. Gonz\xc3\xa1lez'
p2125
sg34
I29
sg20
Nsg35
Nsg36
S'Costa Rica'
p2126
sg38
Nsba(i__main__
Player
p2127
(dp2128
g24
(dp2129
g26
Nsg27
I74
sg28
I54
sg29
Nsg30
Nsg31
Nsg32
Nssg5
S'K. Waston'
p2130
sg34
I29
sg20
Nsg35
Nsg36
S'Costa Rica'
p2131
sg38
Nsba(i__main__
Player
p2132
(dp2133
g24
(dp2134
g26
Nsg27
I72
sg28
I88
sg29
Nsg30
Nsg31
Nsg32
Nssg5
S'C. Gamboa'
p2135
sg34
I27
sg20
Nsg35
Nsg36
S'Costa Rica'
p2136
sg38
Nsba(i__main__
Player
p2137
(dp2138
g24
(dp2139
g26
Nsg27
I72
sg28
I75
sg29
Nsg30
Nsg31
Nsg32
Nssg5
S'B. Oviedo'
p2140
sg34
I27
sg20
Nsg35
Nsg36
S'Costa Rica'
p2141
sg38
Nsba(i__main__
Player
p2142
(dp2143
g24
(dp2144
g26
Nsg27
I72
sg28
I70
sg29
Nsg30
Nsg31
Nsg32
Nssg5
g105
sg34
I27
sg20
Nsg35
Nsg36
g2105
sg38
Nsba(i__main__
Player
p2145
(dp2146
g24
(dp2147
g26
Nsg27
I72
sg28
I70
sg29
Nsg30
Nsg31
Nsg32
Nssg5
g105
sg34
I27
sg20
Nsg35
Nsg36
g2105
sg38
Nsba(i__main__
Player
p2148
(dp2149
g24
(dp2150
g26
Nsg27
I72
sg28
I70
sg29
Nsg30
Nsg31
Nsg32
Nssg5
g105
sg34
I27
sg20
Nsg35
Nsg36
g2105
sg38
Nsba(i__main__
Player
p2151
(dp2152
g24
(dp2153
g26
Nsg27
I72
sg28
I70
sg29
Nsg30
Nsg31
Nsg32
Nssg5
g105
sg34
I27
sg20
Nsg35
Nsg36
g2105
sg38
Nsbasg89
I70
sg90
(lp2154
(i__main__
Player
p2155
(dp2156
g24
(dp2157
g26
Nsg27
I72
sg28
I70
sg29
Nsg30
Nsg31
Nsg32
Nssg5
g105
sg34
I27
sg20
Nsg35
Nsg36
g2105
sg38
Nsba(i__main__
Player
p2158
(dp2159
g24
(dp2160
g26
Nsg27
I72
sg28
I70
sg29
Nsg30
Nsg31
Nsg32
Nssg5
g105
sg34
I27
sg20
Nsg35
Nsg36
g2105
sg38
Nsba(i__main__
Player
p2161
(dp2162
g24
(dp2163
g26
Nsg27
I72
sg28
I70
sg29
Nsg30
Nsg31
Nsg32
Nssg5
g105
sg34
I27
sg20
Nsg35
Nsg36
g2105
sg38
Nsba(i__main__
Player
p2164
(dp2165
g24
(dp2166
g26
Nsg27
I72
sg28
I70
sg29
Nsg30
Nsg31
Nsg32
Nssg5
g105
sg34
I27
sg20
Nsg35
Nsg36
g2105
sg38
Nsba(i__main__
Player
p2167
(dp2168
g24
(dp2169
g26
Nsg27
I72
sg28
I70
sg29
Nsg30
Nsg31
Nsg32
Nssg5
g105
sg34
I27
sg20
Nsg35
Nsg36
g2105
sg38
Nsba(i__main__
Player
p2170
(dp2171
g24
(dp2172
g26
Nsg27
I71
sg28
I58
sg29
Nsg30
Nsg31
Nsg32
Nssg5
S'B. Acosta'
p2173
sg34
I30
sg20
Nsg35
Nsg36
S'Costa Rica'
p2174
sg38
Nsba(i__main__
Player
p2175
(dp2176
g24
(dp2177
g26
Nsg27
I71
sg28
I68
sg29
Nsg30
Nsg31
Nsg32
Nssg5
S'F. Calvo'
p2178
sg34
I24
sg20
Nsg35
Nsg36
S'Costa Rica'
p2179
sg38
Nsba(i__main__
Player
p2180
(dp2181
g24
(dp2182
g26
Nsg27
I71
sg28
I69
sg29
Nsg30
Nsg31
Nsg32
Nssg5
S'C. Bola\xc3\xb1os'
p2183
sg34
I33
sg20
Nsg35
Nsg36
S'Costa Rica'
p2184
sg38
Nsba(i__main__
Player
p2185
(dp2186
g24
(dp2187
g26
Nsg27
I68
sg28
I66
sg29
Nsg30
Nsg31
Nsg32
Nssg5
S'Y. Tejeda'
p2188
sg34
I25
sg20
Nsg35
Nsg36
S'Costa Rica'
p2189
sg38
Nsba(i__main__
Player
p2190
(dp2191
g24
(dp2192
g26
Nsg27
I68
sg28
I77
sg29
Nsg30
Nsg31
Nsg32
Nssg5
S'R. Wallace'
p2193
sg34
I29
sg20
Nsg35
Nsg36
S'Costa Rica'
p2194
sg38
Nsba(i__main__
Player
p2195
(dp2196
g24
(dp2197
g26
Nsg27
I68
sg28
I82
sg29
Nsg30
Nsg31
Nsg32
Nssg5
S'M. Ure\xc3\xb1a'
p2198
sg34
I27
sg20
Nsg35
Nsg36
S'Costa Rica'
p2199
sg38
Nsba(i__main__
Player
p2200
(dp2201
g24
(dp2202
g26
Nsg27
I67
sg28
I72
sg29
Nsg30
Nsg31
Nsg32
Nssg5
S'J. Venegas'
p2203
sg34
I28
sg20
Nsg35
Nsg36
S'Costa Rica'
p2204
sg38
Nsbasg149
I2
sg150
F750.0
sba(i__main__
Team
p2205
(dp2206
g11
Nsg12
I41432
sg13
I64
sg5
S'Serbia'
p2207
sg15
F50.414320000000004
sg16
I78
sg17
I1
sg18
I37
sg19
I3
sg20
(lp2208
(i__main__
Player
p2209
(dp2210
g24
(dp2211
g26
Nsg27
I83
sg28
I64
sg29
Nsg30
Nsg31
Nsg32
Nssg5
S'N. Mati\xc4\x87'
p2212
sg34
I28
sg20
Nsg35
Nsg36
S'Serbia'
p2213
sg38
Nsba(i__main__
Player
p2214
(dp2215
g24
(dp2216
g26
Nsg27
I82
sg28
I62
sg29
Nsg30
Nsg31
Nsg32
Nssg5
S'B. Ivanovi\xc4\x87'
p2217
sg34
I33
sg20
Nsg35
Nsg36
S'Serbia'
p2218
sg38
Nsba(i__main__
Player
p2219
(dp2220
g24
(dp2221
g26
Nsg27
I80
sg28
I70
sg29
Nsg30
Nsg31
Nsg32
Nssg5
S'S. Milinkovi\xc4\x87-Savi\xc4\x87'
p2222
sg34
I22
sg20
Nsg35
Nsg36
S'Serbia'
p2223
sg38
Nsba(i__main__
Player
p2224
(dp2225
g24
(dp2226
g26
Nsg27
I80
sg28
I70
sg29
Nsg30
Nsg31
Nsg32
Nssg5
S'D. Tadi\xc4\x87'
p2227
sg34
I28
sg20
Nsg35
Nsg36
S'Serbia'
p2228
sg38
Nsba(i__main__
Player
p2229
(dp2230
g24
(dp2231
g26
Nsg27
I79
sg28
I80
sg29
Nsg30
Nsg31
Nsg32
Nssg5
S'A. Ljaji\xc4\x87'
p2232
sg34
I25
sg20
Nsg35
Nsg36
S'Serbia'
p2233
sg38
Nsba(i__main__
Player
p2234
(dp2235
g24
(dp2236
g26
Nsg27
I78
sg28
I88
sg29
Nsg30
Nsg31
Nsg32
Nssg5
S'F. Kosti\xc4\x87'
p2237
sg34
I24
sg20
Nsg35
Nsg36
S'Serbia'
p2238
sg38
Nsba(i__main__
Player
p2239
(dp2240
g24
(dp2241
g26
Nsg27
I78
sg28
I88
sg29
Nsg30
Nsg31
Nsg32
Nssg5
S'F. Kosti\xc4\x87'
p2242
sg34
I24
sg20
Nsg35
Nsg36
S'Serbia'
p2243
sg38
Nsba(i__main__
Player
p2244
(dp2245
g24
(dp2246
g26
Nsg27
I77
sg28
I73
sg29
Nsg30
Nsg31
Nsg32
Nssg5
S'A. Rukavina'
p2247
sg34
I33
sg20
Nsg35
Nsg36
S'Serbia'
p2248
sg38
Nsba(i__main__
Player
p2249
(dp2250
g24
(dp2251
g26
Nsg27
I77
sg28
I85
sg29
Nsg30
Nsg31
Nsg32
Nssg5
S'A. \xc5\xbdivkovi\xc4\x87'
p2252
sg34
I20
sg20
Nsg35
Nsg36
S'Serbia'
p2253
sg38
Nsba(i__main__
Player
p2254
(dp2255
g24
(dp2256
g26
Nsg27
I77
sg28
I62
sg29
Nsg30
Nsg31
Nsg32
Nssg5
S'L. Milivojevi\xc4\x87'
p2257
sg34
I26
sg20
Nsg35
Nsg36
S'Serbia'
p2258
sg38
Nsba(i__main__
Player
p2259
(dp2260
g24
(dp2261
g26
Nsg27
I75
sg28
I68
sg29
Nsg30
Nsg31
Nsg32
Nssg5
S'S. Rajkovi\xc4\x87'
p2262
sg34
I28
sg20
Nsg35
Nsg36
S'Serbia'
p2263
sg38
Nsbasg89
I72
sg90
(lp2264
(i__main__
Player
p2265
(dp2266
g24
(dp2267
g26
Nsg27
I75
sg28
I58
sg29
Nsg30
Nsg31
Nsg32
Nssg5
S'A. Mitrovi\xc4\x87'
p2268
sg34
I22
sg20
Nsg35
Nsg36
S'Serbia'
p2269
sg38
Nsba(i__main__
Player
p2270
(dp2271
g24
(dp2272
g26
Nsg27
I74
sg28
I73
sg29
Nsg30
Nsg31
Nsg32
Nssg5
S'A. Prijovi\xc4\x87'
p2273
sg34
I27
sg20
Nsg35
Nsg36
S'Serbia'
p2274
sg38
Nsba(i__main__
Player
p2275
(dp2276
g24
(dp2277
g26
Nsg27
I74
sg28
I37
sg29
Nsg30
Nsg31
Nsg32
Nssg5
S'M. Dmitrovi\xc4\x87'
p2278
sg34
I25
sg20
Nsg35
Nsg36
S'Serbia'
p2279
sg38
Nsba(i__main__
Player
p2280
(dp2281
g24
(dp2282
g26
Nsg27
I74
sg28
I37
sg29
Nsg30
Nsg31
Nsg32
Nssg5
S'D. To\xc5\xa1i\xc4\x87'
p2283
sg34
I32
sg20
Nsg35
Nsg36
S'Serbia'
p2284
sg38
Nsba(i__main__
Player
p2285
(dp2286
g24
(dp2287
g26
Nsg27
I73
sg28
I68
sg29
Nsg30
Nsg31
Nsg32
Nssg5
S'U. Spaji\xc4\x87'
p2288
sg34
I24
sg20
Nsg35
Nsg36
S'Serbia'
p2289
sg38
Nsba(i__main__
Player
p2290
(dp2291
g24
(dp2292
g26
Nsg27
I73
sg28
I44
sg29
Nsg30
Nsg31
Nsg32
Nssg5
S'S. Mitrovi\xc4\x87'
p2293
sg34
I27
sg20
Nsg35
Nsg36
S'Serbia'
p2294
sg38
Nsba(i__main__
Player
p2295
(dp2296
g24
(dp2297
g26
Nsg27
I73
sg28
I54
sg29
Nsg30
Nsg31
Nsg32
Nssg5
S'M. Veljkovi\xc4\x87'
p2298
sg34
I21
sg20
Nsg35
Nsg36
S'Serbia'
p2299
sg38
Nsba(i__main__
Player
p2300
(dp2301
g24
(dp2302
g26
Nsg27
I71
sg28
I67
sg29
Nsg30
Nsg31
Nsg32
Nssg5
S'M. Gruji\xc4\x87'
p2303
sg34
I21
sg20
Nsg35
Nsg36
S'Serbia'
p2304
sg38
Nsba(i__main__
Player
p2305
(dp2306
g24
(dp2307
g26
Nsg27
I70
sg28
I48
sg29
Nsg30
Nsg31
Nsg32
Nssg5
S'N. Milenkovi\xc4\x87'
p2308
sg34
I19
sg20
Nsg35
Nsg36
S'Serbia'
p2309
sg38
Nsba(i__main__
Player
p2310
(dp2311
g24
(dp2312
g26
Nsg27
I70
sg28
I67
sg29
Nsg30
Nsg31
Nsg32
Nssg5
S'U. Mati\xc4\x87'
p2313
sg34
I27
sg20
Nsg35
Nsg36
S'Serbia'
p2314
sg38
Nsba(i__main__
Player
p2315
(dp2316
g24
(dp2317
g26
Nsg27
I70
sg28
I75
sg29
Nsg30
Nsg31
Nsg32
Nssg5
S'L. Jovi\xc4\x87'
p2318
sg34
I19
sg20
Nsg35
Nsg36
S'Serbia'
p2319
sg38
Nsba(i__main__
Player
p2320
(dp2321
g24
(dp2322
g26
Nsg27
I69
sg28
I42
sg29
Nsg30
Nsg31
Nsg32
Nssg5
S'V. Milinkovi\xc4\x87-Savi\xc4\x87'
p2323
sg34
I20
sg20
Nsg35
Nsg36
S'Serbia'
p2324
sg38
Nsbasg149
I2
sg150
F100.0
sbasba(i__main__
Group
p2325
(dp2326
g3
(lp2327
I0
aI0
aI0
aI0
asg5
S'Group F'
p2328
sg7
(lp2329
(i__main__
Team
p2330
(dp2331
g11
Nsg12
I3677439
sg13
I69
sg5
S'Germany'
p2332
sg15
F193.77439
sg16
I86
sg17
I1
sg18
I1
sg19
I3
sg20
(lp2333
(i__main__
Player
p2334
(dp2335
g24
(dp2336
g26
Nsg27
I90
sg28
I56
sg29
Nsg30
Nsg31
Nsg32
Nssg5
S'T. Kroos'
p2337
sg34
I27
sg20
Nsg35
Nsg36
S'Germany'
p2338
sg38
Nsba(i__main__
Player
p2339
(dp2340
g24
(dp2341
g26
Nsg27
I88
sg28
I75
sg29
Nsg30
Nsg31
Nsg32
Nssg5
S'J. Boateng'
p2342
sg34
I28
sg20
Nsg35
Nsg36
S'Germany'
p2343
sg38
Nsba(i__main__
Player
p2344
(dp2345
g24
(dp2346
g26
Nsg27
I88
sg28
I63
sg29
Nsg30
Nsg31
Nsg32
Nssg5
S'M. Hummels'
p2347
sg34
I28
sg20
Nsg35
Nsg36
S'Germany'
p2348
sg38
Nsba(i__main__
Player
p2349
(dp2350
g24
(dp2351
g26
Nsg27
I88
sg28
I71
sg29
Nsg30
Nsg31
Nsg32
Nssg5
S'M. \xc3\x96zil'
p2352
sg34
I28
sg20
Nsg35
Nsg36
S'Germany'
p2353
sg38
Nsba(i__main__
Player
p2354
(dp2355
g24
(dp2356
g26
Nsg27
I86
sg28
I77
sg29
Nsg30
Nsg31
Nsg32
Nssg5
S'T. M\xc3\xbcller'
p2357
sg34
I27
sg20
Nsg35
Nsg36
S'Germany'
p2358
sg38
Nsba(i__main__
Player
p2359
(dp2360
g24
(dp2361
g26
Nsg27
I86
sg28
I88
sg29
Nsg30
Nsg31
Nsg32
Nssg5
S'M. Reus'
p2362
sg34
I28
sg20
Nsg35
Nsg36
S'Germany'
p2363
sg38
Nsba(i__main__
Player
p2364
(dp2365
g24
(dp2366
g26
Nsg27
I85
sg28
I44
sg29
Nsg30
Nsg31
Nsg32
Nssg5
S'M. ter Stegen'
p2367
sg34
I25
sg20
Nsg35
Nsg36
S'Germany'
p2368
sg38
Nsba(i__main__
Player
p2369
(dp2370
g24
(dp2371
g26
Nsg27
I85
sg28
I71
sg29
Nsg30
Nsg31
Nsg32
Nssg5
S'I. G\xc3\xbcndo\xc4\x9fan'
p2372
sg34
I26
sg20
Nsg35
Nsg36
S'Germany'
p2373
sg38
Nsba(i__main__
Player
p2374
(dp2375
g24
(dp2376
g26
Nsg27
I84
sg28
I77
sg29
Nsg30
Nsg31
Nsg32
Nssg5
S'J. Draxler'
p2377
sg34
I23
sg20
Nsg35
Nsg36
S'Germany'
p2378
sg38
Nsba(i__main__
Player
p2379
(dp2380
g24
(dp2381
g26
Nsg27
I84
sg28
I64
sg29
Nsg30
Nsg31
Nsg32
Nssg5
S'S. Khedira'
p2382
sg34
I30
sg20
Nsg35
Nsg36
S'Germany'
p2383
sg38
Nsba(i__main__
Player
p2384
(dp2385
g24
(dp2386
g26
Nsg27
I83
sg28
I63
sg29
Nsg30
Nsg31
Nsg32
Nssg5
S'N. S\xc3\xbcle'
p2387
sg34
I21
sg20
Nsg35
Nsg36
S'Germany'
p2388
sg38
Nsbasg89
I80
sg90
(lp2389
(i__main__
Player
p2390
(dp2391
g24
(dp2392
g26
Nsg27
I82
sg28
I91
sg29
Nsg30
Nsg31
Nsg32
Nssg5
S'T. Werner'
p2393
sg34
I21
sg20
Nsg35
Nsg36
S'Germany'
p2394
sg38
Nsba(i__main__
Player
p2395
(dp2396
g24
(dp2397
g26
Nsg27
I82
sg28
I84
sg29
Nsg30
Nsg31
Nsg32
Nssg5
S'L. Goretzka'
p2398
sg34
I22
sg20
Nsg35
Nsg36
S'Germany'
p2399
sg38
Nsba(i__main__
Player
p2400
(dp2401
g24
(dp2402
g26
Nsg27
I82
sg28
I74
sg29
Nsg30
Nsg31
Nsg32
Nssg5
S'A. R\xc3\xbcdiger'
p2403
sg34
I24
sg20
Nsg35
Nsg36
S'Germany'
p2404
sg38
Nsba(i__main__
Player
p2405
(dp2406
g24
(dp2407
g26
Nsg27
I82
sg28
I48
sg29
Nsg30
Nsg31
Nsg32
Nssg5
S'K. Trapp'
p2408
sg34
I26
sg20
Nsg35
Nsg36
S'Germany'
p2409
sg38
Nsba(i__main__
Player
p2410
(dp2411
g24
(dp2412
g26
Nsg27
I82
sg28
I71
sg29
Nsg30
Nsg31
Nsg32
Nssg5
S'M. G\xc3\xb3mez'
p2413
sg34
I31
sg20
Nsg35
Nsg36
S'Germany'
p2414
sg38
Nsba(i__main__
Player
p2415
(dp2416
g24
(dp2417
g26
Nsg27
I81
sg28
I70
sg29
Nsg30
Nsg31
Nsg32
Nssg5
S'J. Kimmich'
p2418
sg34
I22
sg20
Nsg35
Nsg36
S'Germany'
p2419
sg38
Nsba(i__main__
Player
p2420
(dp2421
g24
(dp2422
g26
Nsg27
I81
sg28
I71
sg29
Nsg30
Nsg31
Nsg32
Nssg5
S'S. Rudy'
p2423
sg34
I27
sg20
Nsg35
Nsg36
S'Germany'
p2424
sg38
Nsba(i__main__
Player
p2425
(dp2426
g24
(dp2427
g26
Nsg27
I80
sg28
I81
sg29
Nsg30
Nsg31
Nsg32
Nssg5
S'J. Brandt'
p2428
sg34
I21
sg20
Nsg35
Nsg36
S'Germany'
p2429
sg38
Nsba(i__main__
Player
p2430
(dp2431
g24
(dp2432
g26
Nsg27
I80
sg28
I76
sg29
Nsg30
Nsg31
Nsg32
Nssg5
S'J. Hector'
p2433
sg34
I27
sg20
Nsg35
Nsg36
S'Germany'
p2434
sg38
Nsba(i__main__
Player
p2435
(dp2436
g24
(dp2437
g26
Nsg27
I78
sg28
I63
sg29
Nsg30
Nsg31
Nsg32
Nssg5
S'M. Ginter'
p2438
sg34
I23
sg20
Nsg35
Nsg36
S'Germany'
p2439
sg38
Nsba(i__main__
Player
p2440
(dp2441
g24
(dp2442
g26
Nsg27
I78
sg28
I63
sg29
Nsg30
Nsg31
Nsg32
Nssg5
S'M. Ginter'
p2443
sg34
I23
sg20
Nsg35
Nsg36
S'Germany'
p2444
sg38
Nsba(i__main__
Player
p2445
(dp2446
g24
(dp2447
g26
Nsg27
I73
sg28
I65
sg29
Nsg30
Nsg31
Nsg32
Nssg5
S'F. Kroos'
p2448
sg34
I26
sg20
Nsg35
Nsg36
S'Germany'
p2449
sg38
Nsbasg149
I2
sg150
F9.0
sba(i__main__
Team
p2450
(dp2451
g11
Nsg12
I1149919
sg13
I73
sg5
S'Mexico'
p2452
sg15
F125.49919
sg16
I79
sg17
I1
sg18
I16
sg19
I3
sg20
(lp2453
(i__main__
Player
p2454
(dp2455
g24
(dp2456
g26
Nsg27
I82
sg28
I79
sg29
Nsg30
Nsg31
Nsg32
Nssg5
S'J. Hern\xc3\xa1ndez'
p2457
sg34
I29
sg20
Nsg35
Nsg36
S'Mexico'
p2458
sg38
Nsba(i__main__
Player
p2459
(dp2460
g24
(dp2461
g26
Nsg27
I82
sg28
I84
sg29
Nsg30
Nsg31
Nsg32
Nssg5
S'C. Vela'
p2462
sg34
I28
sg20
Nsg35
Nsg36
S'Mexico'
p2463
sg38
Nsba(i__main__
Player
p2464
(dp2465
g24
(dp2466
g26
Nsg27
I81
sg28
I83
sg29
Nsg30
Nsg31
Nsg32
Nssg5
S'J. Corona'
p2467
sg34
I24
sg20
Nsg35
Nsg36
S'Mexico'
p2468
sg38
Nsba(i__main__
Player
p2469
(dp2470
g24
(dp2471
g26
Nsg27
I80
sg28
I66
sg29
Nsg30
Nsg31
Nsg32
Nssg5
S'H. Moreno'
p2472
sg34
I29
sg20
Nsg35
Nsg36
S'Mexico'
p2473
sg38
Nsba(i__main__
Player
p2474
(dp2475
g24
(dp2476
g26
Nsg27
I80
sg28
I76
sg29
Nsg30
Nsg31
Nsg32
Nssg5
S'A. Guardado'
p2477
sg34
I30
sg20
Nsg35
Nsg36
S'Mexico'
p2478
sg38
Nsba(i__main__
Player
p2479
(dp2480
g24
(dp2481
g26
Nsg27
I80
sg28
I66
sg29
Nsg30
Nsg31
Nsg32
Nssg5
S'J. dos Santos'
p2482
sg34
I27
sg20
Nsg35
Nsg36
S'Mexico'
p2483
sg38
Nsba(i__main__
Player
p2484
(dp2485
g24
(dp2486
g26
Nsg27
I79
sg28
I72
sg29
Nsg30
Nsg31
Nsg32
Nssg5
S'M. Fabi\xc3\xa1n'
p2487
sg34
I27
sg20
Nsg35
Nsg36
S'Mexico'
p2488
sg38
Nsba(i__main__
Player
p2489
(dp2490
g24
(dp2491
g26
Nsg27
I79
sg28
I86
sg29
Nsg30
Nsg31
Nsg32
Nssg5
S'G. dos Santos'
p2492
sg34
I28
sg20
Nsg35
Nsg36
S'Mexico'
p2493
sg38
Nsba(i__main__
Player
p2494
(dp2495
g24
(dp2496
g26
Nsg27
I79
sg28
I73
sg29
Nsg30
Nsg31
Nsg32
Nssg5
S'H. Herrera'
p2497
sg34
I27
sg20
Nsg35
Nsg36
S'Mexico'
p2498
sg38
Nsba(i__main__
Player
p2499
(dp2500
g24
(dp2501
g26
Nsg27
I79
sg28
I48
sg29
Nsg30
Nsg31
Nsg32
Nssg5
S'G. Ochoa'
p2502
sg34
I31
sg20
Nsg35
Nsg36
S'Mexico'
p2503
sg38
Nsba(i__main__
Player
p2504
(dp2505
g24
(dp2506
g26
Nsg27
I78
sg28
I93
sg29
Nsg30
Nsg31
Nsg32
Nssg5
S'H. Lozano'
p2507
sg34
I21
sg20
Nsg35
Nsg36
S'Mexico'
p2508
sg38
Nsbasg89
I75
sg90
(lp2509
(i__main__
Player
p2510
(dp2511
g24
(dp2512
g26
Nsg27
I78
sg28
I76
sg29
Nsg30
Nsg31
Nsg32
Nssg5
S'R. Jim\xc3\xa9nez'
p2513
sg34
I26
sg20
Nsg35
Nsg36
S'Mexico'
p2514
sg38
Nsba(i__main__
Player
p2515
(dp2516
g24
(dp2517
g26
Nsg27
I78
sg28
I77
sg29
Nsg30
Nsg31
Nsg32
Nssg5
S'M. Lay\xc3\xban'
p2518
sg34
I29
sg20
Nsg35
Nsg36
S'Mexico'
p2519
sg38
Nsba(i__main__
Player
p2520
(dp2521
g24
(dp2522
g26
Nsg27
I77
sg28
I91
sg29
Nsg30
Nsg31
Nsg32
Nssg5
S'J. Aquino'
p2523
sg34
I27
sg20
Nsg35
Nsg36
S'Mexico'
p2524
sg38
Nsba(i__main__
Player
p2525
(dp2526
g24
(dp2527
g26
Nsg27
I77
sg28
I74
sg29
Nsg30
Nsg31
Nsg32
Nssg5
S'E. Hern\xc3\xa1ndez'
p2528
sg34
I29
sg20
Nsg35
Nsg36
S'Mexico'
p2529
sg38
Nsba(i__main__
Player
p2530
(dp2531
g24
(dp2532
g26
Nsg27
I76
sg28
I70
sg29
Nsg30
Nsg31
Nsg32
Nssg5
S'O. Peralta'
p2533
sg34
I33
sg20
Nsg35
Nsg36
S'Mexico'
p2534
sg38
Nsba(i__main__
Player
p2535
(dp2536
g24
(dp2537
g26
Nsg27
I76
sg28
I77
sg29
Nsg30
Nsg31
Nsg32
Nssg5
S'E. Guti\xc3\xa9rrez'
p2538
sg34
I22
sg20
Nsg35
Nsg36
S'Mexico'
p2539
sg38
Nsba(i__main__
Player
p2540
(dp2541
g24
(dp2542
g26
Nsg27
I76
sg28
I39
sg29
Nsg30
Nsg31
Nsg32
Nssg5
S'J. Corona'
p2543
sg34
I36
sg20
Nsg35
Nsg36
S'Mexico'
p2544
sg38
Nsba(i__main__
Player
p2545
(dp2546
g24
(dp2547
g26
Nsg27
I75
sg28
I70
sg29
Nsg30
Nsg31
Nsg32
Nssg5
S'J. Hern\xc3\xa1ndez'
p2548
sg34
I28
sg20
Nsg35
Nsg36
S'Mexico'
p2549
sg38
Nsba(i__main__
Player
p2550
(dp2551
g24
(dp2552
g26
Nsg27
I75
sg28
I67
sg29
Nsg30
Nsg31
Nsg32
Nssg5
S'H. Ayala'
p2553
sg34
I30
sg20
Nsg35
Nsg36
S'Mexico'
p2554
sg38
Nsba(i__main__
Player
p2555
(dp2556
g24
(dp2557
g26
Nsg27
I74
sg28
I67
sg29
Nsg30
Nsg31
Nsg32
Nssg5
S'C. Salcedo'
p2558
sg34
I23
sg20
Nsg35
Nsg36
S'Mexico'
p2559
sg38
Nsba(i__main__
Player
p2560
(dp2561
g24
(dp2562
g26
Nsg27
I72
sg28
I77
sg29
Nsg30
Nsg31
Nsg32
Nssg5
S'E. Hern\xc3\xa1ndez'
p2563
sg34
I30
sg20
Nsg35
Nsg36
S'Mexico'
p2564
sg38
Nsba(i__main__
Player
p2565
(dp2566
g24
(dp2567
g26
Nsg27
I72
sg28
I70
sg29
Nsg30
Nsg31
Nsg32
Nssg5
S'I. Jim\xc3\xa9nez'
p2568
sg34
I27
sg20
Nsg35
Nsg36
S'Mexico'
p2569
sg38
Nsbasg149
I2
sg150
F40.0
sba(i__main__
Team
p2570
(dp2571
g11
Nsg12
I538040
sg13
I59
sg5
S'Sweden'
p2572
sg15
F-44.6196
sg16
I77
sg17
I1
sg18
I18
sg19
I3
sg20
(lp2573
(i__main__
Player
p2574
(dp2575
g24
(dp2576
g26
Nsg27
I83
sg28
I75
sg29
Nsg30
Nsg31
Nsg32
Nssg5
S'E. Forsberg'
p2577
sg34
I25
sg20
Nsg35
Nsg36
S'Sweden'
p2578
sg38
Nsba(i__main__
Player
p2579
(dp2580
g24
(dp2581
g26
Nsg27
I80
sg28
I74
sg29
Nsg30
Nsg31
Nsg32
Nssg5
S'M. Berg'
p2582
sg34
I30
sg20
Nsg35
Nsg36
S'Sweden'
p2583
sg38
Nsba(i__main__
Player
p2584
(dp2585
g24
(dp2586
g26
Nsg27
I79
sg28
I70
sg29
Nsg30
Nsg31
Nsg32
Nssg5
S'V. Lindel\xc3\xb6f'
p2587
sg34
I22
sg20
Nsg35
Nsg36
S'Sweden'
p2588
sg38
Nsba(i__main__
Player
p2589
(dp2590
g24
(dp2591
g26
Nsg27
I78
sg28
I65
sg29
Nsg30
Nsg31
Nsg32
Nssg5
S'J. Guidetti'
p2592
sg34
I25
sg20
Nsg35
Nsg36
S'Sweden'
p2593
sg38
Nsba(i__main__
Player
p2594
(dp2595
g24
(dp2596
g26
Nsg27
I78
sg28
I65
sg29
Nsg30
Nsg31
Nsg32
Nssg5
S'J. Guidetti'
p2597
sg34
I25
sg20
Nsg35
Nsg36
S'Sweden'
p2598
sg38
Nsba(i__main__
Player
p2599
(dp2600
g24
(dp2601
g26
Nsg27
I77
sg28
I61
sg29
Nsg30
Nsg31
Nsg32
Nssg5
S'P. Jansson'
p2602
sg34
I26
sg20
Nsg35
Nsg36
S'Sweden'
p2603
sg38
Nsba(i__main__
Player
p2604
(dp2605
g24
(dp2606
g26
Nsg27
I76
sg28
I47
sg29
Nsg30
Nsg31
Nsg32
Nssg5
S'J. Olsson'
p2607
sg34
I34
sg20
Nsg35
Nsg36
S'Sweden'
p2608
sg38
Nsba(i__main__
Player
p2609
(dp2610
g24
(dp2611
g26
Nsg27
I76
sg28
I54
sg29
Nsg30
Nsg31
Nsg32
Nssg5
S'A. Ekdal'
p2612
sg34
I27
sg20
Nsg35
Nsg36
S'Sweden'
p2613
sg38
Nsba(i__main__
Player
p2614
(dp2615
g24
(dp2616
g26
Nsg27
I76
sg28
I76
sg29
Nsg30
Nsg31
Nsg32
Nssg5
S'S. Larsson'
p2617
sg34
I24
sg20
Nsg35
Nsg36
S'Sweden'
p2618
sg38
Nsba(i__main__
Player
p2619
(dp2620
g24
(dp2621
g26
Nsg27
I75
sg28
I80
sg29
Nsg30
Nsg31
Nsg32
Nssg5
S'J. Durmaz'
p2622
sg34
I28
sg20
Nsg35
Nsg36
S'Sweden'
p2623
sg38
Nsba(i__main__
Player
p2624
(dp2625
g24
(dp2626
g26
Nsg27
I75
sg28
I81
sg29
Nsg30
Nsg31
Nsg32
Nssg5
S'M. Olsson'
p2627
sg34
I29
sg20
Nsg35
Nsg36
S'Sweden'
p2628
sg38
Nsbasg89
I73
sg90
(lp2629
(i__main__
Player
p2630
(dp2631
g24
(dp2632
g26
Nsg27
I75
sg28
I52
sg29
Nsg30
Nsg31
Nsg32
Nssg5
S'O. Toivonen'
p2633
sg34
I30
sg20
Nsg35
Nsg36
S'Sweden'
p2634
sg38
Nsba(i__main__
Player
p2635
(dp2636
g24
(dp2637
g26
Nsg27
I75
sg28
I49
sg29
Nsg30
Nsg31
Nsg32
Nssg5
S'K. Johnsson'
p2638
sg34
I27
sg20
Nsg35
Nsg36
S'Sweden'
p2639
sg38
Nsba(i__main__
Player
p2640
(dp2641
g24
(dp2642
g26
Nsg27
I74
sg28
I53
sg29
Nsg30
Nsg31
Nsg32
Nssg5
S'G. Svensson'
p2643
sg34
I30
sg20
Nsg35
Nsg36
S'Sweden'
p2644
sg38
Nsba(i__main__
Player
p2645
(dp2646
g24
(dp2647
g26
Nsg27
I74
sg28
I56
sg29
Nsg30
Nsg31
Nsg32
Nssg5
S'S. Larsson'
p2648
sg34
I32
sg20
Nsg35
Nsg36
S'Sweden'
p2649
sg38
Nsba(i__main__
Player
p2650
(dp2651
g24
(dp2652
g26
Nsg27
I74
sg28
I55
sg29
Nsg30
Nsg31
Nsg32
Nssg5
S'J. Johansson'
p2653
sg34
I27
sg20
Nsg35
Nsg36
S'Sweden'
p2654
sg38
Nsba(i__main__
Player
p2655
(dp2656
g24
(dp2657
g26
Nsg27
I74
sg28
I34
sg29
Nsg30
Nsg31
Nsg32
Nssg5
S'R. Olsen'
p2658
sg34
I27
sg20
Nsg35
Nsg36
S'Sweden'
p2659
sg38
Nsba(i__main__
Player
p2660
(dp2661
g24
(dp2662
g26
Nsg27
I73
sg28
I39
sg29
Nsg30
Nsg31
Nsg32
Nssg5
S'A. Johansson'
p2663
sg34
I35
sg20
Nsg35
Nsg36
S'Sweden'
p2664
sg38
Nsba(i__main__
Player
p2665
(dp2666
g24
(dp2667
g26
Nsg27
I73
sg28
I75
sg29
Nsg30
Nsg31
Nsg32
Nssg5
S'E. Krafth'
p2668
sg34
I22
sg20
Nsg35
Nsg36
S'Sweden'
p2669
sg38
Nsba(i__main__
Player
p2670
(dp2671
g24
(dp2672
g26
Nsg27
I73
sg28
I57
sg29
Nsg30
Nsg31
Nsg32
Nssg5
S'M. Lustig'
p2673
sg34
I30
sg20
Nsg35
Nsg36
S'Sweden'
p2674
sg38
Nsba(i__main__
Player
p2675
(dp2676
g24
(dp2677
g26
Nsg27
I73
sg28
I53
sg29
Nsg30
Nsg31
Nsg32
Nssg5
S'K. Nordfeldt'
p2678
sg34
I28
sg20
Nsg35
Nsg36
S'Sweden'
p2679
sg38
Nsba(i__main__
Player
p2680
(dp2681
g24
(dp2682
g26
Nsg27
I73
sg28
I37
sg29
Nsg30
Nsg31
Nsg32
Nssg5
S'N. Johansson'
p2683
sg34
I37
sg20
Nsg35
Nsg36
S'Sweden'
p2684
sg38
Nsba(i__main__
Player
p2685
(dp2686
g24
(dp2687
g26
Nsg27
I73
sg28
I70
sg29
Nsg30
Nsg31
Nsg32
Nssg5
S'O. Hiljemark'
p2688
sg34
I25
sg20
Nsg35
Nsg36
S'Sweden'
p2689
sg38
Nsbasg149
I2
sg150
F200.0
sba(i__main__
Team
p2690
(dp2691
g11
Nsg12
I1530751
sg13
I65
sg5
S'South Korea'
p2692
sg15
F-604.69249
sg16
I65
sg17
I1
sg18
I59
sg19
I3
sg20
(lp2693
(i__main__
Player
p2694
(dp2695
g24
(dp2696
g26
Nsg27
I65
sg28
I65
sg29
Nsg30
Nsg31
Nsg32
Nssg5
S'Dummy boy'
p2697
sg34
I25
sg20
Nsg35
Nsg36
g2692
sg38
Nsba(i__main__
Player
p2698
(dp2699
g24
(dp2700
g26
Nsg27
I65
sg28
I65
sg29
Nsg30
Nsg31
Nsg32
Nssg5
g105
sg34
I25
sg20
Nsg35
Nsg36
g2692
sg38
Nsba(i__main__
Player
p2701
(dp2702
g24
(dp2703
g26
Nsg27
I65
sg28
I65
sg29
Nsg30
Nsg31
Nsg32
Nssg5
g105
sg34
I25
sg20
Nsg35
Nsg36
g2692
sg38
Nsba(i__main__
Player
p2704
(dp2705
g24
(dp2706
g26
Nsg27
I65
sg28
I65
sg29
Nsg30
Nsg31
Nsg32
Nssg5
g105
sg34
I25
sg20
Nsg35
Nsg36
g2692
sg38
Nsba(i__main__
Player
p2707
(dp2708
g24
(dp2709
g26
Nsg27
I65
sg28
I65
sg29
Nsg30
Nsg31
Nsg32
Nssg5
g105
sg34
I25
sg20
Nsg35
Nsg36
g2692
sg38
Nsba(i__main__
Player
p2710
(dp2711
g24
(dp2712
g26
Nsg27
I65
sg28
I65
sg29
Nsg30
Nsg31
Nsg32
Nssg5
g105
sg34
I25
sg20
Nsg35
Nsg36
g2692
sg38
Nsba(i__main__
Player
p2713
(dp2714
g24
(dp2715
g26
Nsg27
I65
sg28
I65
sg29
Nsg30
Nsg31
Nsg32
Nssg5
g105
sg34
I25
sg20
Nsg35
Nsg36
g2692
sg38
Nsba(i__main__
Player
p2716
(dp2717
g24
(dp2718
g26
Nsg27
I65
sg28
I65
sg29
Nsg30
Nsg31
Nsg32
Nssg5
g105
sg34
I25
sg20
Nsg35
Nsg36
g2692
sg38
Nsba(i__main__
Player
p2719
(dp2720
g24
(dp2721
g26
Nsg27
I65
sg28
I65
sg29
Nsg30
Nsg31
Nsg32
Nssg5
g105
sg34
I25
sg20
Nsg35
Nsg36
g2692
sg38
Nsba(i__main__
Player
p2722
(dp2723
g24
(dp2724
g26
Nsg27
I65
sg28
I65
sg29
Nsg30
Nsg31
Nsg32
Nssg5
g105
sg34
I25
sg20
Nsg35
Nsg36
g2692
sg38
Nsba(i__main__
Player
p2725
(dp2726
g24
(dp2727
g26
Nsg27
I65
sg28
I65
sg29
Nsg30
Nsg31
Nsg32
Nssg5
g105
sg34
I25
sg20
Nsg35
Nsg36
g2692
sg38
Nsbasg89
I65
sg90
(lp2728
(i__main__
Player
p2729
(dp2730
g24
(dp2731
g26
Nsg27
I65
sg28
I65
sg29
Nsg30
Nsg31
Nsg32
Nssg5
g105
sg34
I25
sg20
Nsg35
Nsg36
g2692
sg38
Nsba(i__main__
Player
p2732
(dp2733
g24
(dp2734
g26
Nsg27
I65
sg28
I65
sg29
Nsg30
Nsg31
Nsg32
Nssg5
g105
sg34
I25
sg20
Nsg35
Nsg36
g2692
sg38
Nsba(i__main__
Player
p2735
(dp2736
g24
(dp2737
g26
Nsg27
I65
sg28
I65
sg29
Nsg30
Nsg31
Nsg32
Nssg5
g105
sg34
I25
sg20
Nsg35
Nsg36
g2692
sg38
Nsba(i__main__
Player
p2738
(dp2739
g24
(dp2740
g26
Nsg27
I65
sg28
I65
sg29
Nsg30
Nsg31
Nsg32
Nssg5
g105
sg34
I25
sg20
Nsg35
Nsg36
g2692
sg38
Nsba(i__main__
Player
p2741
(dp2742
g24
(dp2743
g26
Nsg27
I65
sg28
I65
sg29
Nsg30
Nsg31
Nsg32
Nssg5
g105
sg34
I25
sg20
Nsg35
Nsg36
g2692
sg38
Nsba(i__main__
Player
p2744
(dp2745
g24
(dp2746
g26
Nsg27
I65
sg28
I65
sg29
Nsg30
Nsg31
Nsg32
Nssg5
g105
sg34
I25
sg20
Nsg35
Nsg36
g2692
sg38
Nsba(i__main__
Player
p2747
(dp2748
g24
(dp2749
g26
Nsg27
I65
sg28
I65
sg29
Nsg30
Nsg31
Nsg32
Nssg5
g105
sg34
I25
sg20
Nsg35
Nsg36
g2692
sg38
Nsba(i__main__
Player
p2750
(dp2751
g24
(dp2752
g26
Nsg27
I65
sg28
I65
sg29
Nsg30
Nsg31
Nsg32
Nssg5
g105
sg34
I25
sg20
Nsg35
Nsg36
g2692
sg38
Nsba(i__main__
Player
p2753
(dp2754
g24
(dp2755
g26
Nsg27
I65
sg28
I65
sg29
Nsg30
Nsg31
Nsg32
Nssg5
g105
sg34
I25
sg20
Nsg35
Nsg36
g2692
sg38
Nsba(i__main__
Player
p2756
(dp2757
g24
(dp2758
g26
Nsg27
I65
sg28
I65
sg29
Nsg30
Nsg31
Nsg32
Nssg5
g105
sg34
I25
sg20
Nsg35
Nsg36
g2692
sg38
Nsba(i__main__
Player
p2759
(dp2760
g24
(dp2761
g26
Nsg27
I65
sg28
I65
sg29
Nsg30
Nsg31
Nsg32
Nssg5
g105
sg34
I25
sg20
Nsg35
Nsg36
g2692
sg38
Nsba(i__main__
Player
p2762
(dp2763
g24
(dp2764
g26
Nsg27
I65
sg28
I65
sg29
Nsg30
Nsg31
Nsg32
Nssg5
g105
sg34
I25
sg20
Nsg35
Nsg36
g2692
sg38
Nsbasg149
I2
sg150
F750.0
sbasba(i__main__
Group
p2765
(dp2766
g3
(lp2767
I0
aI0
aI0
aI0
asg5
S'Group G'
p2768
sg7
(lp2769
(i__main__
Team
p2770
(dp2771
g11
Nsg12
I492681
sg13
I70
sg5
S'Belgium'
p2772
sg15
F160.92681
sg16
I86
sg17
I1
sg18
I5
sg19
I3
sg20
(lp2773
(i__main__
Player
p2774
(dp2775
g24
(dp2776
g26
Nsg27
I90
sg28
I90
sg29
Nsg30
Nsg31
Nsg32
Nssg5
S'E. Hazard'
p2777
sg34
I26
sg20
Nsg35
Nsg36
S'Belgium'
p2778
sg38
Nsba(i__main__
Player
p2779
(dp2780
g24
(dp2781
g26
Nsg27
I89
sg28
I75
sg29
Nsg30
Nsg31
Nsg32
Nssg5
S'K. De Bruyne'
p2782
sg34
I26
sg20
Nsg35
Nsg36
S'Belgium'
p2783
sg38
Nsba(i__main__
Player
p2784
(dp2785
g24
(dp2786
g26
Nsg27
I89
sg28
I49
sg29
Nsg30
Nsg31
Nsg32
Nssg5
S'T. Courtois'
p2787
sg34
I25
sg20
Nsg35
Nsg36
S'Belgium'
p2788
sg38
Nsba(i__main__
Player
p2789
(dp2790
g24
(dp2791
g26
Nsg27
I86
sg28
I82
sg29
Nsg30
Nsg31
Nsg32
Nssg5
S'R. Lukaku'
p2792
sg34
I24
sg20
Nsg35
Nsg36
S'Belgium'
p2793
sg38
Nsba(i__main__
Player
p2794
(dp2795
g24
(dp2796
g26
Nsg27
I86
sg28
I65
sg29
Nsg30
Nsg31
Nsg32
Nssg5
S'T. Alderweireld'
p2797
sg34
I28
sg20
Nsg35
Nsg36
S'Belgium'
p2798
sg38
Nsba(i__main__
Player
p2799
(dp2800
g24
(dp2801
g26
Nsg27
I86
sg28
I90
sg29
Nsg30
Nsg31
Nsg32
Nssg5
S'D. Mertens'
p2802
sg34
I30
sg20
Nsg35
Nsg36
S'Belgium'
p2803
sg38
Nsba(i__main__
Player
p2804
(dp2805
g24
(dp2806
g26
Nsg27
I85
sg28
I88
sg29
Nsg30
Nsg31
Nsg32
Nssg5
S'Y. Carrasco'
p2807
sg34
I23
sg20
Nsg35
Nsg36
S'Belgium'
p2808
sg38
Nsba(i__main__
Player
p2809
(dp2810
g24
(dp2811
g26
Nsg27
I85
sg28
I67
sg29
Nsg30
Nsg31
Nsg32
Nssg5
S'J. Vertonghen'
p2812
sg34
I30
sg20
Nsg35
Nsg36
S'Belgium'
p2813
sg38
Nsba(i__main__
Player
p2814
(dp2815
g24
(dp2816
g26
Nsg27
I85
sg28
I62
sg29
Nsg30
Nsg31
Nsg32
Nssg5
S'V. Kompany'
p2817
sg34
I31
sg20
Nsg35
Nsg36
S'Belgium'
p2818
sg38
Nsba(i__main__
Player
p2819
(dp2820
g24
(dp2821
g26
Nsg27
I83
sg28
I76
sg29
Nsg30
Nsg31
Nsg32
Nssg5
S'M. Demb\xc3\xa9l\xc3\xa9'
p2822
sg34
I29
sg20
Nsg35
Nsg36
S'Belgium'
p2823
sg38
Nsba(i__main__
Player
p2824
(dp2825
g24
(dp2826
g26
Nsg27
I82
sg28
I70
sg29
Nsg30
Nsg31
Nsg32
Nssg5
S'A. Witsel'
p2827
sg34
I28
sg20
Nsg35
Nsg36
S'Belgium'
p2828
sg38
Nsbasg89
I79
sg90
(lp2829
(i__main__
Player
p2830
(dp2831
g24
(dp2832
g26
Nsg27
I81
sg28
I76
sg29
Nsg30
Nsg31
Nsg32
Nssg5
S'T. Meunier'
p2833
sg34
I25
sg20
Nsg35
Nsg36
S'Belgium'
p2834
sg38
Nsba(i__main__
Player
p2835
(dp2836
g24
(dp2837
g26
Nsg27
I81
sg28
I55
sg29
Nsg30
Nsg31
Nsg32
Nssg5
S'S. Mignolet'
p2838
sg34
I29
sg20
Nsg35
Nsg36
S'Belgium'
p2839
sg38
Nsba(i__main__
Player
p2840
(dp2841
g24
(dp2842
g26
Nsg27
I80
sg28
I52
sg29
Nsg30
Nsg31
Nsg32
Nssg5
S'Y. Tielemans'
p2843
sg34
I20
sg20
Nsg35
Nsg36
S'Belgium'
p2844
sg38
Nsba(i__main__
Player
p2845
(dp2846
g24
(dp2847
g26
Nsg27
I80
sg28
I78
sg29
Nsg30
Nsg31
Nsg32
Nssg5
S'M. Batshuayi'
p2848
sg34
I23
sg20
Nsg35
Nsg36
S'Belgium'
p2849
sg38
Nsba(i__main__
Player
p2850
(dp2851
g24
(dp2852
g26
Nsg27
I80
sg28
I81
sg29
Nsg30
Nsg31
Nsg32
Nssg5
S'T. Hazard'
p2853
sg34
I24
sg20
Nsg35
Nsg36
S'Belgium'
p2854
sg38
Nsba(i__main__
Player
p2855
(dp2856
g24
(dp2857
g26
Nsg27
I79
sg28
I68
sg29
Nsg30
Nsg31
Nsg32
Nssg5
S'L. Dendoncker'
p2858
sg34
I22
sg20
Nsg35
Nsg36
S'Belgium'
p2859
sg38
Nsba(i__main__
Player
p2860
(dp2861
g24
(dp2862
g26
Nsg27
I79
sg28
I50
sg29
Nsg30
Nsg31
Nsg32
Nssg5
S'M. Fellaini'
p2863
sg34
I29
sg20
Nsg35
Nsg36
S'Belgium'
p2864
sg38
Nsba(i__main__
Player
p2865
(dp2866
g24
(dp2867
g26
Nsg27
I78
sg28
I76
sg29
Nsg30
Nsg31
Nsg32
Nssg5
S'N. Chadli'
p2868
sg34
I27
sg20
Nsg35
Nsg36
S'Belgium'
p2869
sg38
Nsba(i__main__
Player
p2870
(dp2871
g24
(dp2872
g26
Nsg27
I78
sg28
I68
sg29
Nsg30
Nsg31
Nsg32
Nssg5
S'T. Vermaelen'
p2873
sg34
I31
sg20
Nsg35
Nsg36
S'Belgium'
p2874
sg38
Nsba(i__main__
Player
p2875
(dp2876
g24
(dp2877
g26
Nsg27
I78
sg28
I45
sg29
Nsg30
Nsg31
Nsg32
Nssg5
S'K. Casteels'
p2878
sg34
I25
sg20
Nsg35
Nsg36
S'Belgium'
p2879
sg38
Nsba(i__main__
Player
p2880
(dp2881
g24
(dp2882
g26
Nsg27
I77
sg28
I89
sg29
Nsg30
Nsg31
Nsg32
Nssg5
S'J. Lukaku'
p2883
sg34
I22
sg20
Nsg35
Nsg36
S'Belgium'
p2884
sg38
Nsba(i__main__
Player
p2885
(dp2886
g24
(dp2887
g26
Nsg27
I77
sg28
I79
sg29
Nsg30
Nsg31
Nsg32
Nssg5
S'A. Januzaj'
p2888
sg34
I22
sg20
Nsg35
Nsg36
S'Belgium'
p2889
sg38
Nsbasg149
I2
sg150
F9.0
sba(i__main__
Team
p2890
(dp2891
g11
Nsg12
I61838
sg13
I64
sg5
S'Panama'
p2892
sg15
F-867.38162
sg16
I67
sg17
I1
sg18
I56
sg19
I3
sg20
(lp2893
(i__main__
Player
p2894
(dp2895
g24
(dp2896
g26
Nsg27
I71
sg28
I63
sg29
Nsg30
Nsg31
Nsg32
Nssg5
S'A. Machado'
p2897
sg34
I32
sg20
Nsg35
Nsg36
S'Panama'
p2898
sg38
Nsba(i__main__
Player
p2899
(dp2900
g24
(dp2901
g26
Nsg27
I71
sg28
I48
sg29
Nsg30
Nsg31
Nsg32
Nssg5
S'A. Godoy'
p2902
sg34
I27
sg20
Nsg35
Nsg36
S'Panama'
p2903
sg38
Nsba(i__main__
Player
p2904
(dp2905
g24
(dp2906
g26
Nsg27
I70
sg28
I65
sg29
Nsg30
Nsg31
Nsg32
Nssg5
S'G. G\xc3\xb3mez'
p2907
sg34
I33
sg20
Nsg35
Nsg36
S'Panama'
p2908
sg38
Nsba(i__main__
Player
p2909
(dp2910
g24
(dp2911
g26
Nsg27
I70
sg28
I32
sg29
Nsg30
Nsg31
Nsg32
Nssg5
S'R. Torres'
p2912
sg34
I31
sg20
Nsg35
Nsg36
S'Panama'
p2913
sg38
Nsba(i__main__
Player
p2914
(dp2915
g24
(dp2916
g26
Nsg27
I68
sg28
I77
sg29
Nsg30
Nsg31
Nsg32
Nssg5
S'G. Torres'
p2917
sg34
I28
sg20
Nsg35
Nsg36
S'Panama'
p2918
sg38
Nsba(i__main__
Player
p2919
(dp2920
g24
(dp2921
g26
Nsg27
I67
sg28
I78
sg29
Nsg30
Nsg31
Nsg32
Nssg5
S'A. Cooper'
p2922
sg34
I29
sg20
Nsg35
Nsg36
S'Panama'
p2923
sg38
Nsba(i__main__
Player
p2924
(dp2925
g24
(dp2926
g26
Nsg27
I66
sg28
I58
sg29
Nsg30
Nsg31
Nsg32
Nssg5
S'H. Cummings'
p2927
sg34
I25
sg20
Nsg35
Nsg36
S'Panama'
p2928
sg38
Nsba(i__main__
Player
p2929
(dp2930
g24
(dp2931
g26
Nsg27
I66
sg28
I64
sg29
Nsg30
Nsg31
Nsg32
Nssg5
g105
sg34
I27
sg20
Nsg35
Nsg36
g2892
sg38
Nsba(i__main__
Player
p2932
(dp2933
g24
(dp2934
g26
Nsg27
I66
sg28
I64
sg29
Nsg30
Nsg31
Nsg32
Nssg5
g105
sg34
I27
sg20
Nsg35
Nsg36
g2892
sg38
Nsba(i__main__
Player
p2935
(dp2936
g24
(dp2937
g26
Nsg27
I66
sg28
I64
sg29
Nsg30
Nsg31
Nsg32
Nssg5
g105
sg34
I27
sg20
Nsg35
Nsg36
g2892
sg38
Nsba(i__main__
Player
p2938
(dp2939
g24
(dp2940
g26
Nsg27
I66
sg28
I64
sg29
Nsg30
Nsg31
Nsg32
Nssg5
g105
sg34
I27
sg20
Nsg35
Nsg36
g2892
sg38
Nsbasg89
I65
sg90
(lp2941
(i__main__
Player
p2942
(dp2943
g24
(dp2944
g26
Nsg27
I66
sg28
I64
sg29
Nsg30
Nsg31
Nsg32
Nssg5
g105
sg34
I27
sg20
Nsg35
Nsg36
g2892
sg38
Nsba(i__main__
Player
p2945
(dp2946
g24
(dp2947
g26
Nsg27
I66
sg28
I64
sg29
Nsg30
Nsg31
Nsg32
Nssg5
g105
sg34
I27
sg20
Nsg35
Nsg36
g2892
sg38
Nsba(i__main__
Player
p2948
(dp2949
g24
(dp2950
g26
Nsg27
I66
sg28
I64
sg29
Nsg30
Nsg31
Nsg32
Nssg5
g105
sg34
I27
sg20
Nsg35
Nsg36
g2892
sg38
Nsba(i__main__
Player
p2951
(dp2952
g24
(dp2953
g26
Nsg27
I66
sg28
I64
sg29
Nsg30
Nsg31
Nsg32
Nssg5
g105
sg34
I27
sg20
Nsg35
Nsg36
g2892
sg38
Nsba(i__main__
Player
p2954
(dp2955
g24
(dp2956
g26
Nsg27
I66
sg28
I64
sg29
Nsg30
Nsg31
Nsg32
Nssg5
g105
sg34
I27
sg20
Nsg35
Nsg36
g2892
sg38
Nsba(i__main__
Player
p2957
(dp2958
g24
(dp2959
g26
Nsg27
I66
sg28
I64
sg29
Nsg30
Nsg31
Nsg32
Nssg5
g105
sg34
I27
sg20
Nsg35
Nsg36
g2892
sg38
Nsba(i__main__
Player
p2960
(dp2961
g24
(dp2962
g26
Nsg27
I66
sg28
I64
sg29
Nsg30
Nsg31
Nsg32
Nssg5
g105
sg34
I27
sg20
Nsg35
Nsg36
g2892
sg38
Nsba(i__main__
Player
p2963
(dp2964
g24
(dp2965
g26
Nsg27
I66
sg28
I64
sg29
Nsg30
Nsg31
Nsg32
Nssg5
g105
sg34
I27
sg20
Nsg35
Nsg36
g2892
sg38
Nsba(i__main__
Player
p2966
(dp2967
g24
(dp2968
g26
Nsg27
I66
sg28
I64
sg29
Nsg30
Nsg31
Nsg32
Nssg5
g105
sg34
I27
sg20
Nsg35
Nsg36
g2892
sg38
Nsba(i__main__
Player
p2969
(dp2970
g24
(dp2971
g26
Nsg27
I65
sg28
I76
sg29
Nsg30
Nsg31
Nsg32
Nssg5
S'F. Escobar'
p2972
sg34
I22
sg20
Nsg35
Nsg36
S'Panama'
p2973
sg38
Nsba(i__main__
Player
p2974
(dp2975
g24
(dp2976
g26
Nsg27
I64
sg28
I78
sg29
Nsg30
Nsg31
Nsg32
Nssg5
S'M. Murillo'
p2977
sg34
I21
sg20
Nsg35
Nsg36
S'Panama'
p2978
sg38
Nsba(i__main__
Player
p2979
(dp2980
g24
(dp2981
g26
Nsg27
I57
sg28
I69
sg29
Nsg30
Nsg31
Nsg32
Nssg5
S'L. Ovalle'
p2982
sg34
I28
sg20
Nsg35
Nsg36
S'Panama'
p2983
sg38
Nsbasg149
I2
sg150
F1000.0
sba(i__main__
Team
p2984
(dp2985
g11
Nsg12
I40257
sg13
I64
sg5
S'Tunisia'
p2986
sg15
F-862.59743
sg16
I70
sg17
I1
sg18
I27
sg19
I3
sg20
(lp2987
(i__main__
Player
p2988
(dp2989
g24
(dp2990
g26
Nsg27
I75
sg28
I64
sg29
Nsg30
Nsg31
Nsg32
Nssg5
S'Y. Benalouane'
p2991
sg34
I30
sg20
Nsg35
Nsg36
S'Tunisia'
p2992
sg38
Nsba(i__main__
Player
p2993
(dp2994
g24
(dp2995
g26
Nsg27
I74
sg28
I67
sg29
Nsg30
Nsg31
Nsg32
Nssg5
S'E. Skhiri'
p2996
sg34
I22
sg20
Nsg35
Nsg36
S'Tunisia'
p2997
sg38
Nsba(i__main__
Player
p2998
(dp2999
g24
(dp3000
g26
Nsg27
I72
sg28
I63
sg29
Nsg30
Nsg31
Nsg32
Nssg5
S'S. Ben Youssef'
p3001
sg34
I28
sg20
Nsg35
Nsg36
S'Tunisia'
p3002
sg38
Nsba(i__main__
Player
p3003
(dp3004
g24
(dp3005
g26
Nsg27
I72
sg28
I74
sg29
Nsg30
Nsg31
Nsg32
Nssg5
S'N. Sliti'
p3006
sg34
I24
sg20
Nsg35
Nsg36
S'Tunisia'
p3007
sg38
Nsba(i__main__
Player
p3008
(dp3009
g24
(dp3010
g26
Nsg27
I69
sg28
I64
sg29
Nsg30
Nsg31
Nsg32
Nssg5
g105
sg34
I24
sg20
Nsg35
Nsg36
g2986
sg38
Nsba(i__main__
Player
p3011
(dp3012
g24
(dp3013
g26
Nsg27
I69
sg28
I64
sg29
Nsg30
Nsg31
Nsg32
Nssg5
g105
sg34
I24
sg20
Nsg35
Nsg36
g2986
sg38
Nsba(i__main__
Player
p3014
(dp3015
g24
(dp3016
g26
Nsg27
I69
sg28
I64
sg29
Nsg30
Nsg31
Nsg32
Nssg5
g105
sg34
I24
sg20
Nsg35
Nsg36
g2986
sg38
Nsba(i__main__
Player
p3017
(dp3018
g24
(dp3019
g26
Nsg27
I69
sg28
I64
sg29
Nsg30
Nsg31
Nsg32
Nssg5
g105
sg34
I24
sg20
Nsg35
Nsg36
g2986
sg38
Nsba(i__main__
Player
p3020
(dp3021
g24
(dp3022
g26
Nsg27
I69
sg28
I64
sg29
Nsg30
Nsg31
Nsg32
Nssg5
g105
sg34
I24
sg20
Nsg35
Nsg36
g2986
sg38
Nsba(i__main__
Player
p3023
(dp3024
g24
(dp3025
g26
Nsg27
I69
sg28
I64
sg29
Nsg30
Nsg31
Nsg32
Nssg5
g105
sg34
I24
sg20
Nsg35
Nsg36
g2986
sg38
Nsba(i__main__
Player
p3026
(dp3027
g24
(dp3028
g26
Nsg27
I69
sg28
I64
sg29
Nsg30
Nsg31
Nsg32
Nssg5
g105
sg34
I24
sg20
Nsg35
Nsg36
g2986
sg38
Nsbasg89
I67
sg90
(lp3029
(i__main__
Player
p3030
(dp3031
g24
(dp3032
g26
Nsg27
I69
sg28
I64
sg29
Nsg30
Nsg31
Nsg32
Nssg5
g105
sg34
I24
sg20
Nsg35
Nsg36
g2986
sg38
Nsba(i__main__
Player
p3033
(dp3034
g24
(dp3035
g26
Nsg27
I69
sg28
I64
sg29
Nsg30
Nsg31
Nsg32
Nssg5
g105
sg34
I24
sg20
Nsg35
Nsg36
g2986
sg38
Nsba(i__main__
Player
p3036
(dp3037
g24
(dp3038
g26
Nsg27
I69
sg28
I64
sg29
Nsg30
Nsg31
Nsg32
Nssg5
g105
sg34
I24
sg20
Nsg35
Nsg36
g2986
sg38
Nsba(i__main__
Player
p3039
(dp3040
g24
(dp3041
g26
Nsg27
I69
sg28
I64
sg29
Nsg30
Nsg31
Nsg32
Nssg5
g105
sg34
I24
sg20
Nsg35
Nsg36
g2986
sg38
Nsba(i__main__
Player
p3042
(dp3043
g24
(dp3044
g26
Nsg27
I69
sg28
I64
sg29
Nsg30
Nsg31
Nsg32
Nssg5
g105
sg34
I24
sg20
Nsg35
Nsg36
g2986
sg38
Nsba(i__main__
Player
p3045
(dp3046
g24
(dp3047
g26
Nsg27
I69
sg28
I64
sg29
Nsg30
Nsg31
Nsg32
Nssg5
g105
sg34
I24
sg20
Nsg35
Nsg36
g2986
sg38
Nsba(i__main__
Player
p3048
(dp3049
g24
(dp3050
g26
Nsg27
I69
sg28
I64
sg29
Nsg30
Nsg31
Nsg32
Nssg5
g105
sg34
I24
sg20
Nsg35
Nsg36
g2986
sg38
Nsba(i__main__
Player
p3051
(dp3052
g24
(dp3053
g26
Nsg27
I69
sg28
I64
sg29
Nsg30
Nsg31
Nsg32
Nssg5
g105
sg34
I24
sg20
Nsg35
Nsg36
g2986
sg38
Nsba(i__main__
Player
p3054
(dp3055
g24
(dp3056
g26
Nsg27
I68
sg28
I75
sg29
Nsg30
Nsg31
Nsg32
Nssg5
S'B. Srarfi'
p3057
sg34
I20
sg20
Nsg35
Nsg36
S'Tunisia'
p3058
sg38
Nsba(i__main__
Player
p3059
(dp3060
g24
(dp3061
g26
Nsg27
I66
sg28
I60
sg29
Nsg30
Nsg31
Nsg32
Nssg5
S'O. Haddadi'
p3062
sg34
I25
sg20
Nsg35
Nsg36
S'Tunisia'
p3063
sg38
Nsba(i__main__
Player
p3064
(dp3065
g24
(dp3066
g26
Nsg27
I65
sg28
I63
sg29
Nsg30
Nsg31
Nsg32
Nssg5
S'D. Bronn'
p3067
sg34
I22
sg20
Nsg35
Nsg36
S'Tunisia'
p3068
sg38
Nsba(i__main__
Player
p3069
(dp3070
g24
(dp3071
g26
Nsg27
I63
sg28
I47
sg29
Nsg30
Nsg31
Nsg32
Nssg5
S'F. Ben Mustapha'
p3072
sg34
I28
sg20
Nsg35
Nsg36
S'Tunisia'
p3073
sg38
Nsbasg149
I2
sg150
F1000.0
sba(i__main__
Team
p3074
(dp3075
g11
Nsg12
I2622434
sg13
I71
sg5
S'England'
p3076
sg15
F170.22434
sg16
I81
sg17
I1
sg18
I15
sg19
I3
sg20
(lp3077
(i__main__
Player
p3078
(dp3079
g24
(dp3080
g26
Nsg27
I84
sg28
I76
sg29
Nsg30
Nsg31
Nsg32
Nssg5
S'D. Alli'
p3081
sg34
I21
sg20
Nsg35
Nsg36
S'England'
p3082
sg38
Nsba(i__main__
Player
p3083
(dp3084
g24
(dp3085
g26
Nsg27
I84
sg28
I62
sg29
Nsg30
Nsg31
Nsg32
Nssg5
S'G. Cahill'
p3086
sg34
I31
sg20
Nsg35
Nsg36
S'England'
p3087
sg38
Nsba(i__main__
Player
p3088
(dp3089
g24
(dp3090
g26
Nsg27
I83
sg28
I89
sg29
Nsg30
Nsg31
Nsg32
Nssg5
S'K. Walker'
p3091
sg34
I27
sg20
Nsg35
Nsg36
S'England'
p3092
sg38
Nsba(i__main__
Player
p3093
(dp3094
g24
(dp3095
g26
Nsg27
I82
sg28
I93
sg29
Nsg30
Nsg31
Nsg32
Nssg5
S'R. Sterling'
p3096
sg34
I22
sg20
Nsg35
Nsg36
S'England'
p3097
sg38
Nsba(i__main__
Player
p3098
(dp3099
g24
(dp3100
g26
Nsg27
I82
sg28
I72
sg29
Nsg30
Nsg31
Nsg32
Nssg5
S'E. Dier'
p3101
sg34
I23
sg20
Nsg35
Nsg36
S'England'
p3102
sg38
Nsba(i__main__
Player
p3103
(dp3104
g24
(dp3105
g26
Nsg27
I82
sg28
I72
sg29
Nsg30
Nsg31
Nsg32
Nssg5
S'J. Henderson'
p3106
sg34
I27
sg20
Nsg35
Nsg36
S'England'
p3107
sg38
Nsba(i__main__
Player
p3108
(dp3109
g24
(dp3110
g26
Nsg27
I82
sg28
I80
sg29
Nsg30
Nsg31
Nsg32
Nssg5
S'D. Rose'
p3111
sg34
I26
sg20
Nsg35
Nsg36
S'England'
p3112
sg38
Nsba(i__main__
Player
p3113
(dp3114
g24
(dp3115
g26
Nsg27
I81
sg28
I91
sg29
Nsg30
Nsg31
Nsg32
Nssg5
S'J. Vardy'
p3116
sg34
I30
sg20
Nsg35
Nsg36
S'England'
p3117
sg38
Nsba(i__main__
Player
p3118
(dp3119
g24
(dp3120
g26
Nsg27
I81
sg28
I40
sg29
Nsg30
Nsg31
Nsg32
Nssg5
S'J. Butland'
p3121
sg34
I24
sg20
Nsg35
Nsg36
S'England'
p3122
sg38
Nsba(i__main__
Player
p3123
(dp3124
g24
(dp3125
g26
Nsg27
I80
sg28
I92
sg29
Nsg30
Nsg31
Nsg32
Nssg5
S'M. Rashford'
p3126
sg34
I19
sg20
Nsg35
Nsg36
S'England'
p3127
sg38
Nsba(i__main__
Player
p3128
(dp3129
g24
(dp3130
g26
Nsg27
I80
sg28
I83
sg29
Nsg30
Nsg31
Nsg32
Nssg5
S'D. Welbeck'
p3131
sg34
I26
sg20
Nsg35
Nsg36
S'England'
p3132
sg38
Nsbasg89
I75
sg90
(lp3133
(i__main__
Player
p3134
(dp3135
g24
(dp3136
g26
Nsg27
I79
sg28
I71
sg29
Nsg30
Nsg31
Nsg32
Nssg5
S'J. Stones'
p3137
sg34
I23
sg20
Nsg35
Nsg36
S'England'
p3138
sg38
Nsba(i__main__
Player
p3139
(dp3140
g24
(dp3141
g26
Nsg27
I79
sg28
I57
sg29
Nsg30
Nsg31
Nsg32
Nssg5
S'P. Jones'
p3142
sg34
I25
sg20
Nsg35
Nsg36
S'England'
p3143
sg38
Nsba(i__main__
Player
p3144
(dp3145
g24
(dp3146
g26
Nsg27
I78
sg28
I83
sg29
Nsg30
Nsg31
Nsg32
Nssg5
S'J. Lingard'
p3147
sg34
I24
sg20
Nsg35
Nsg36
S'England'
p3148
sg38
Nsba(i__main__
Player
p3149
(dp3150
g24
(dp3151
g26
Nsg27
I78
sg28
I83
sg29
Nsg30
Nsg31
Nsg32
Nssg5
S'J. Lingard'
p3152
sg34
I24
sg20
Nsg35
Nsg36
S'England'
p3153
sg38
Nsba(i__main__
Player
p3154
(dp3155
g24
(dp3156
g26
Nsg27
I78
sg28
I77
sg29
Nsg30
Nsg31
Nsg32
Nssg5
S'K. Trippier'
p3157
sg34
I26
sg20
Nsg35
Nsg36
S'England'
p3158
sg38
Nsba(i__main__
Player
p3159
(dp3160
g24
(dp3161
g26
Nsg27
I77
sg28
I74
sg29
Nsg30
Nsg31
Nsg32
Nssg5
S'F. Delph'
p3162
sg34
I27
sg20
Nsg35
Nsg36
S'England'
p3163
sg38
Nsba(i__main__
Player
p3164
(dp3165
g24
(dp3166
g26
Nsg27
I77
sg28
I44
sg29
Nsg30
Nsg31
Nsg32
Nssg5
S'J. Pickford'
p3167
sg34
I23
sg20
Nsg35
Nsg36
S'England'
p3168
sg38
Nsba(i__main__
Player
p3169
(dp3170
g24
(dp3171
g26
Nsg27
I77
sg28
I45
sg29
Nsg30
Nsg31
Nsg32
Nssg5
S'H. Maguire'
p3172
sg34
I24
sg20
Nsg35
Nsg36
S'England'
p3173
sg38
Nsba(i__main__
Player
p3174
(dp3175
g24
(dp3176
g26
Nsg27
I75
sg28
I77
sg29
Nsg30
Nsg31
Nsg32
Nssg5
S'A. Young'
p3177
sg34
I31
sg20
Nsg35
Nsg36
S'England'
p3178
sg38
Nsba(i__main__
Player
p3179
(dp3180
g24
(dp3181
g26
Nsg27
I71
sg28
I63
sg29
Nsg30
Nsg31
Nsg32
Nssg5
S'D. Jones'
p3182
sg34
I32
sg20
Nsg35
Nsg36
S'England'
p3183
sg38
Nsba(i__main__
Player
p3184
(dp3185
g24
(dp3186
g26
Nsg27
I71
sg28
I64
sg29
Nsg30
Nsg31
Nsg32
Nssg5
S'B. Jones'
p3187
sg34
I30
sg20
Nsg35
Nsg36
S'England'
p3188
sg38
Nsba(i__main__
Player
p3189
(dp3190
g24
(dp3191
g26
Nsg27
I70
sg28
I67
sg29
Nsg30
Nsg31
Nsg32
Nssg5
S'R. Loftus-Cheek'
p3192
sg34
I21
sg20
Nsg35
Nsg36
S'England'
p3193
sg38
Nsbasg149
I2
sg150
F12.0
sbasba(i__main__
Group
p3194
(dp3195
g3
(lp3196
I0
aI0
aI0
aI0
asg5
S'Group H'
p3197
sg7
(lp3198
(i__main__
Team
p3199
(dp3200
g11
Nsg12
I524510
sg13
I67
sg5
S'Poland'
p3201
sg15
F-46.7549
sg16
I79
sg17
I1
sg18
I7
sg19
I3
sg20
(lp3202
(i__main__
Player
p3203
(dp3204
g24
(dp3205
g26
Nsg27
I85
sg28
I55
sg29
Nsg30
Nsg31
Nsg32
Nssg5
S'K. Glik'
p3206
sg34
I29
sg20
Nsg35
Nsg36
S'Poland'
p3207
sg38
Nsba(i__main__
Player
p3208
(dp3209
g24
(dp3210
g26
Nsg27
I83
sg28
I78
sg29
Nsg30
Nsg31
Nsg32
Nssg5
S'L. Piszczek'
p3211
sg34
I32
sg20
Nsg35
Nsg36
S'Poland'
p3212
sg38
Nsba(i__main__
Player
p3213
(dp3214
g24
(dp3215
g26
Nsg27
I82
sg28
I49
sg29
Nsg30
Nsg31
Nsg32
Nssg5
S'W. Szcz\xc4\x99sny'
p3216
sg34
I27
sg20
Nsg35
Nsg36
S'Poland'
p3217
sg38
Nsba(i__main__
Player
p3218
(dp3219
g24
(dp3220
g26
Nsg27
I81
sg28
I65
sg29
Nsg30
Nsg31
Nsg32
Nssg5
S'G. Krychowiak'
p3221
sg34
I27
sg20
Nsg35
Nsg36
S'Poland'
p3222
sg38
Nsba(i__main__
Player
p3223
(dp3224
g24
(dp3225
g26
Nsg27
I80
sg28
I82
sg29
Nsg30
Nsg31
Nsg32
Nssg5
S'P. Zieli\xc5\x84ski'
p3226
sg34
I23
sg20
Nsg35
Nsg36
S'Poland'
p3227
sg38
Nsba(i__main__
Player
p3228
(dp3229
g24
(dp3230
g26
Nsg27
I80
sg28
I48
sg29
Nsg30
Nsg31
Nsg32
Nssg5
S'L. Fabia\xc5\x84ski'
p3231
sg34
I32
sg20
Nsg35
Nsg36
S'Poland'
p3232
sg38
Nsba(i__main__
Player
p3233
(dp3234
g24
(dp3235
g26
Nsg27
I79
sg28
I72
sg29
Nsg30
Nsg31
Nsg32
Nssg5
S'A. Milik'
p3236
sg34
I23
sg20
Nsg35
Nsg36
S'Poland'
p3237
sg38
Nsba(i__main__
Player
p3238
(dp3239
g24
(dp3240
g26
Nsg27
I78
sg28
I70
sg29
Nsg30
Nsg31
Nsg32
Nssg5
S'L. Teodorczyk'
p3241
sg34
I26
sg20
Nsg35
Nsg36
S'Poland'
p3242
sg38
Nsba(i__main__
Player
p3243
(dp3244
g24
(dp3245
g26
Nsg27
I76
sg28
I85
sg29
Nsg30
Nsg31
Nsg32
Nssg5
S'K. Grosicki'
p3246
sg34
I29
sg20
Nsg35
Nsg36
S'Poland'
p3247
sg38
Nsba(i__main__
Player
p3248
(dp3249
g24
(dp3250
g26
Nsg27
I76
sg28
I76
sg29
Nsg30
Nsg31
Nsg32
Nssg5
S'J. B\xc5\x82aszczykowski'
p3251
sg34
I31
sg20
Nsg35
Nsg36
S'Poland'
p3252
sg38
Nsba(i__main__
Player
p3253
(dp3254
g24
(dp3255
g26
Nsg27
I76
sg28
I53
sg29
Nsg30
Nsg31
Nsg32
Nssg5
S'M. Pazdan'
p3256
sg34
I29
sg20
Nsg35
Nsg36
S'Poland'
p3257
sg38
Nsbasg89
I69
sg90
(lp3258
(i__main__
Player
p3259
(dp3260
g24
(dp3261
g26
Nsg27
I75
sg28
I70
sg29
Nsg30
Nsg31
Nsg32
Nssg5
S'K. Linetty'
p3262
sg34
I22
sg20
Nsg35
Nsg36
S'Poland'
p3263
sg38
Nsba(i__main__
Player
p3264
(dp3265
g24
(dp3266
g26
Nsg27
I74
sg28
I42
sg29
Nsg30
Nsg31
Nsg32
Nssg5
S'B. Bia\xc5\x82kowski'
p3267
sg34
I29
sg20
Nsg35
Nsg36
S'Poland'
p3268
sg38
Nsba(i__main__
Player
p3269
(dp3270
g24
(dp3271
g26
Nsg27
I73
sg28
I82
sg29
Nsg30
Nsg31
Nsg32
Nssg5
S'B. Bereszy\xc5\x84ski'
p3272
sg34
I24
sg20
Nsg35
Nsg36
S'Poland'
p3273
sg38
Nsba(i__main__
Player
p3274
(dp3275
g24
(dp3276
g26
Nsg27
I73
sg28
I71
sg29
Nsg30
Nsg31
Nsg32
Nssg5
S'J. G\xc3\xb3ralski'
p3277
sg34
I24
sg20
Nsg35
Nsg36
S'Poland'
p3278
sg38
Nsba(i__main__
Player
p3279
(dp3280
g24
(dp3281
g26
Nsg27
I73
sg28
I73
sg29
Nsg30
Nsg31
Nsg32
Nssg5
S'A. J\xc4\x99drzejczyk'
p3282
sg34
I29
sg20
Nsg35
Nsg36
S'Poland'
p3283
sg38
Nsba(i__main__
Player
p3284
(dp3285
g24
(dp3286
g26
Nsg27
I72
sg28
I77
sg29
Nsg30
Nsg31
Nsg32
Nssg5
S'M. Rybus'
p3287
sg34
I27
sg20
Nsg35
Nsg36
S'Poland'
p3288
sg38
Nsba(i__main__
Player
p3289
(dp3290
g24
(dp3291
g26
Nsg27
I71
sg28
I69
sg29
Nsg30
Nsg31
Nsg32
Nssg5
S'Thiago Cionek'
p3292
sg34
I31
sg20
Nsg35
Nsg36
S'Poland'
p3293
sg38
Nsba(i__main__
Player
p3294
(dp3295
g24
(dp3296
g26
Nsg27
I69
sg28
I66
sg29
Nsg30
Nsg31
Nsg32
Nssg5
S'S. Peszko'
p3297
sg34
I32
sg20
Nsg35
Nsg36
S'Poland'
p3298
sg38
Nsba(i__main__
Player
p3299
(dp3300
g24
(dp3301
g26
Nsg27
I68
sg28
I66
sg29
Nsg30
Nsg31
Nsg32
Nssg5
S'J. Bednarek'
p3302
sg34
I21
sg20
Nsg35
Nsg36
S'Poland'
p3303
sg38
Nsba(i__main__
Player
p3304
(dp3305
g24
(dp3306
g26
Nsg27
I68
sg28
I76
sg29
Nsg30
Nsg31
Nsg32
Nssg5
S'D. Kownacki'
p3307
sg34
I20
sg20
Nsg35
Nsg36
S'Poland'
p3308
sg38
Nsba(i__main__
Player
p3309
(dp3310
g24
(dp3311
g26
Nsg27
I67
sg28
I55
sg29
Nsg30
Nsg31
Nsg32
Nssg5
S'R. Kurzawa'
p3312
sg34
I24
sg20
Nsg35
Nsg36
S'Poland'
p3313
sg38
Nsba(i__main__
Player
p3314
(dp3315
g24
(dp3316
g26
Nsg27
I56
sg28
I69
sg29
Nsg30
Nsg31
Nsg32
Nssg5
S'D. Zieli\xc5\x84ski'
p3317
sg34
I20
sg20
Nsg35
Nsg36
S'Poland'
p3318
sg38
Nsbasg149
I2
sg150
F200.0
sba(i__main__
Team
p3319
(dp3320
g11
Nsg12
I16375
sg13
I69
sg5
S'Senegal'
p3321
sg15
F25.16375
sg16
I79
sg17
I1
sg18
I23
sg19
I3
sg20
(lp3322
(i__main__
Player
p3323
(dp3324
g24
(dp3325
g26
Nsg27
I84
sg28
I93
sg29
Nsg30
Nsg31
Nsg32
Nssg5
S'S. Man\xc3\xa9'
p3326
sg34
I25
sg20
Nsg35
Nsg36
S'Senegal'
p3327
sg38
Nsba(i__main__
Player
p3328
(dp3329
g24
(dp3330
g26
Nsg27
I84
sg28
I72
sg29
Nsg30
Nsg31
Nsg32
Nssg5
S'K. Koulibaly'
p3331
sg34
I26
sg20
Nsg35
Nsg36
S'Senegal'
p3332
sg38
Nsba(i__main__
Player
p3333
(dp3334
g24
(dp3335
g26
Nsg27
I83
sg28
I76
sg29
Nsg30
Nsg31
Nsg32
Nssg5
S'I. Gueye'
p3336
sg34
I27
sg20
Nsg35
Nsg36
S'Senegal'
p3337
sg38
Nsba(i__main__
Player
p3338
(dp3339
g24
(dp3340
g26
Nsg27
I79
sg28
I65
sg29
Nsg30
Nsg31
Nsg32
Nssg5
S'S. San\xc3\xa9'
p3341
sg34
I26
sg20
Nsg35
Nsg36
S'Senegal'
p3342
sg38
Nsba(i__main__
Player
p3343
(dp3344
g24
(dp3345
g26
Nsg27
I78
sg28
I73
sg29
Nsg30
Nsg31
Nsg32
Nssg5
S'K. Mbodj'
p3346
sg34
I27
sg20
Nsg35
Nsg36
S'Senegal'
p3347
sg38
Nsba(i__main__
Player
p3348
(dp3349
g24
(dp3350
g26
Nsg27
I78
sg28
I73
sg29
Nsg30
Nsg31
Nsg32
Nssg5
S'K. Mbodj'
p3351
sg34
I27
sg20
Nsg35
Nsg36
S'Senegal'
p3352
sg38
Nsba(i__main__
Player
p3353
(dp3354
g24
(dp3355
g26
Nsg27
I78
sg28
I71
sg29
Nsg30
Nsg31
Nsg32
Nssg5
S"A. N'Diaye"
p3356
sg34
I27
sg20
Nsg35
Nsg36
S'Senegal'
p3357
sg38
Nsba(i__main__
Player
p3358
(dp3359
g24
(dp3360
g26
Nsg27
I77
sg28
I85
sg29
Nsg30
Nsg31
Nsg32
Nssg5
S'Badou Ndiaye'
p3361
sg34
I26
sg20
Nsg35
Nsg36
S'Senegal'
p3362
sg38
Nsba(i__main__
Player
p3363
(dp3364
g24
(dp3365
g26
Nsg27
I77
sg28
I59
sg29
Nsg30
Nsg31
Nsg32
Nssg5
S'L. San\xc3\xa9'
p3366
sg34
I30
sg20
Nsg35
Nsg36
S'Senegal'
p3367
sg38
Nsba(i__main__
Player
p3368
(dp3369
g24
(dp3370
g26
Nsg27
I77
sg28
I83
sg29
Nsg30
Nsg31
Nsg32
Nssg5
S'M. Diouf'
p3371
sg34
I29
sg20
Nsg35
Nsg36
S'Senegal'
p3372
sg38
Nsba(i__main__
Player
p3373
(dp3374
g24
(dp3375
g26
Nsg27
I76
sg28
I57
sg29
Nsg30
Nsg31
Nsg32
Nssg5
S"C. N'Doye"
p3376
sg34
I31
sg20
Nsg35
Nsg36
S'Senegal'
p3377
sg38
Nsbasg89
I71
sg90
(lp3378
(i__main__
Player
p3379
(dp3380
g24
(dp3381
g26
Nsg27
I75
sg28
I72
sg29
Nsg30
Nsg31
Nsg32
Nssg5
S'D. Sakho'
p3382
sg34
I27
sg20
Nsg35
Nsg36
S'Senegal'
p3383
sg38
Nsba(i__main__
Player
p3384
(dp3385
g24
(dp3386
g26
Nsg27
I74
sg28
I90
sg29
Nsg30
Nsg31
Nsg32
Nssg5
S'M. Konat\xc3\xa9'
p3387
sg34
I24
sg20
Nsg35
Nsg36
S'Senegal'
p3388
sg38
Nsba(i__main__
Player
p3389
(dp3390
g24
(dp3391
g26
Nsg27
I73
sg28
I92
sg29
Nsg30
Nsg31
Nsg32
Nssg5
S'I. Sarr'
p3392
sg34
I19
sg20
Nsg35
Nsg36
S'Senegal'
p3393
sg38
Nsba(i__main__
Player
p3394
(dp3395
g24
(dp3396
g26
Nsg27
I73
sg28
I42
sg29
Nsg30
Nsg31
Nsg32
Nssg5
S'A. Gomis'
p3397
sg34
I23
sg20
Nsg35
Nsg36
S'Senegal'
p3398
sg38
Nsba(i__main__
Player
p3399
(dp3400
g24
(dp3401
g26
Nsg27
I72
sg28
I49
sg29
Nsg30
Nsg31
Nsg32
Nssg5
S'M. Diallo'
p3402
sg34
I31
sg20
Nsg35
Nsg36
S'Senegal'
p3403
sg38
Nsba(i__main__
Player
p3404
(dp3405
g24
(dp3406
g26
Nsg27
I71
sg28
I67
sg29
Nsg30
Nsg31
Nsg32
Nssg5
S'B. Sarr'
p3407
sg34
I26
sg20
Nsg35
Nsg36
S'Senegal'
p3408
sg38
Nsba(i__main__
Player
p3409
(dp3410
g24
(dp3411
g26
Nsg27
I71
sg28
I77
sg29
Nsg30
Nsg31
Nsg32
Nssg5
S'P. San\xc3\xa9'
p3412
sg34
I25
sg20
Nsg35
Nsg36
S'Senegal'
p3413
sg38
Nsba(i__main__
Player
p3414
(dp3415
g24
(dp3416
g26
Nsg27
I71
sg28
I73
sg29
Nsg30
Nsg31
Nsg32
Nssg5
S"D. N'Doye"
p3417
sg34
I32
sg20
Nsg35
Nsg36
S'Senegal'
p3418
sg38
Nsba(i__main__
Player
p3419
(dp3420
g24
(dp3421
g26
Nsg27
I71
sg28
I60
sg29
Nsg30
Nsg31
Nsg32
Nssg5
S'I. Sarr'
p3422
sg34
I30
sg20
Nsg35
Nsg36
S'Senegal'
p3423
sg38
Nsba(i__main__
Player
p3424
(dp3425
g24
(dp3426
g26
Nsg27
I70
sg28
I41
sg29
Nsg30
Nsg31
Nsg32
Nssg5
S'A. Diallo'
p3427
sg34
I25
sg20
Nsg35
Nsg36
S'Senegal'
p3428
sg38
Nsba(i__main__
Player
p3429
(dp3430
g24
(dp3431
g26
Nsg27
I70
sg28
I66
sg29
Nsg30
Nsg31
Nsg32
Nssg5
S'V. San\xc3\xa9'
p3432
sg34
I27
sg20
Nsg35
Nsg36
S'Senegal'
p3433
sg38
Nsba(i__main__
Player
p3434
(dp3435
g24
(dp3436
g26
Nsg27
I68
sg28
I72
sg29
Nsg30
Nsg31
Nsg32
Nssg5
S'A. Mbengue'
p3437
sg34
I25
sg20
Nsg35
Nsg36
S'Senegal'
p3438
sg38
Nsbasg149
I2
sg150
F125.0
sba(i__main__
Team
p3439
(dp3440
g11
Nsg12
I309191
sg13
I70
sg5
S'Colombia'
p3441
sg15
F56.09191
sg16
I79
sg17
I1
sg18
I13
sg19
I3
sg20
(lp3442
(i__main__
Player
p3443
(dp3444
g24
(dp3445
g26
Nsg27
I86
sg28
I76
sg29
Nsg30
Nsg31
Nsg32
Nssg5
S'J. Rodr\xc3\xadguez'
p3446
sg34
I25
sg20
Nsg35
Nsg36
S'Colombia'
p3447
sg38
Nsba(i__main__
Player
p3448
(dp3449
g24
(dp3450
g26
Nsg27
I82
sg28
I77
sg29
Nsg30
Nsg31
Nsg32
Nssg5
S'C. Bacca'
p3451
sg34
I30
sg20
Nsg35
Nsg36
S'Colombia'
p3452
sg38
Nsba(i__main__
Player
p3453
(dp3454
g24
(dp3455
g26
Nsg27
I82
sg28
I91
sg29
Nsg30
Nsg31
Nsg32
Nssg5
S'J. Cuadrado'
p3456
sg34
I29
sg20
Nsg35
Nsg36
S'Colombia'
p3457
sg38
Nsba(i__main__
Player
p3458
(dp3459
g24
(dp3460
g26
Nsg27
I81
sg28
I70
sg29
Nsg30
Nsg31
Nsg32
Nssg5
S'D. S\xc3\xa1nchez'
p3461
sg34
I21
sg20
Nsg35
Nsg36
S'Colombia'
p3462
sg38
Nsba(i__main__
Player
p3463
(dp3464
g24
(dp3465
g26
Nsg27
I80
sg28
I88
sg29
Nsg30
Nsg31
Nsg32
Nssg5
S'L. Muriel'
p3466
sg34
I26
sg20
Nsg35
Nsg36
S'Colombia'
p3467
sg38
Nsba(i__main__
Player
p3468
(dp3469
g24
(dp3470
g26
Nsg27
I79
sg28
I74
sg29
Nsg30
Nsg31
Nsg32
Nssg5
S'J. Murillo'
p3471
sg34
I25
sg20
Nsg35
Nsg36
S'Colombia'
p3472
sg38
Nsba(i__main__
Player
p3473
(dp3474
g24
(dp3475
g26
Nsg27
I79
sg28
I34
sg29
Nsg30
Nsg31
Nsg32
Nssg5
S'D. Ospina'
p3476
sg34
I28
sg20
Nsg35
Nsg36
S'Colombia'
p3477
sg38
Nsba(i__main__
Player
p3478
(dp3479
g24
(dp3480
g26
Nsg27
I78
sg28
I93
sg29
Nsg30
Nsg31
Nsg32
Nssg5
S'J. Izquierdo'
p3481
sg34
I24
sg20
Nsg35
Nsg36
S'Colombia'
p3482
sg38
Nsba(i__main__
Player
p3483
(dp3484
g24
(dp3485
g26
Nsg27
I78
sg28
I72
sg29
Nsg30
Nsg31
Nsg32
Nssg5
S'D. Zapata'
p3486
sg34
I26
sg20
Nsg35
Nsg36
S'Colombia'
p3487
sg38
Nsba(i__main__
Player
p3488
(dp3489
g24
(dp3490
g26
Nsg27
I77
sg28
I74
sg29
Nsg30
Nsg31
Nsg32
Nssg5
S'J. Quintero'
p3491
sg34
I24
sg20
Nsg35
Nsg36
S'Colombia'
p3492
sg38
Nsba(i__main__
Player
p3493
(dp3494
g24
(dp3495
g26
Nsg27
I77
sg28
I66
sg29
Nsg30
Nsg31
Nsg32
Nssg5
S'C. S\xc3\xa1nchez'
p3496
sg34
I31
sg20
Nsg35
Nsg36
S'Colombia'
p3497
sg38
Nsbasg89
I74
sg90
(lp3498
(i__main__
Player
p3499
(dp3500
g24
(dp3501
g26
Nsg27
I77
sg28
I84
sg29
Nsg30
Nsg31
Nsg32
Nssg5
S'S. Arias'
p3502
sg34
I25
sg20
Nsg35
Nsg36
S'Colombia'
p3503
sg38
Nsba(i__main__
Player
p3504
(dp3505
g24
(dp3506
g26
Nsg27
I76
sg28
I69
sg29
Nsg30
Nsg31
Nsg32
Nssg5
S'O. Murillo'
p3507
sg34
I29
sg20
Nsg35
Nsg36
S'Colombia'
p3508
sg38
Nsba(i__main__
Player
p3509
(dp3510
g24
(dp3511
g26
Nsg27
I75
sg28
I39
sg29
Nsg30
Nsg31
Nsg32
Nssg5
S'A. Aguilar'
p3512
sg34
I32
sg20
Nsg35
Nsg36
S'Colombia'
p3513
sg38
Nsba(i__main__
Player
p3514
(dp3515
g24
(dp3516
g26
Nsg27
I75
sg28
I45
sg29
Nsg30
Nsg31
Nsg32
Nssg5
S'C. Vargas'
p3517
sg34
I28
sg20
Nsg35
Nsg36
S'Colombia'
p3518
sg38
Nsba(i__main__
Player
p3519
(dp3520
g24
(dp3521
g26
Nsg27
I75
sg28
I77
sg29
Nsg30
Nsg31
Nsg32
Nssg5
S'J. Lerma'
p3522
sg34
I22
sg20
Nsg35
Nsg36
S'Colombia'
p3523
sg38
Nsba(i__main__
Player
p3524
(dp3525
g24
(dp3526
g26
Nsg27
I74
sg28
I46
sg29
Nsg30
Nsg31
Nsg32
Nssg5
S'J. Cuadrado'
p3527
sg34
I32
sg20
Nsg35
Nsg36
S'Colombia'
p3528
sg38
Nsba(i__main__
Player
p3529
(dp3530
g24
(dp3531
g26
Nsg27
I74
sg28
I63
sg29
Nsg30
Nsg31
Nsg32
Nssg5
S'W. Barrios'
p3532
sg34
I23
sg20
Nsg35
Nsg36
S'Colombia'
p3533
sg38
Nsba(i__main__
Player
p3534
(dp3535
g24
(dp3536
g26
Nsg27
I74
sg28
I71
sg29
Nsg30
Nsg31
Nsg32
Nssg5
S'F. Uribe'
p3537
sg34
I29
sg20
Nsg35
Nsg36
S'Colombia'
p3538
sg38
Nsba(i__main__
Player
p3539
(dp3540
g24
(dp3541
g26
Nsg27
I73
sg28
I75
sg29
Nsg30
Nsg31
Nsg32
Nssg5
S'M. Uribe'
p3542
sg34
I26
sg20
Nsg35
Nsg36
S'Colombia'
p3543
sg38
Nsba(i__main__
Player
p3544
(dp3545
g24
(dp3546
g26
Nsg27
I73
sg28
I75
sg29
Nsg30
Nsg31
Nsg32
Nssg5
S'F. D\xc3\xadaz'
p3547
sg34
I33
sg20
Nsg35
Nsg36
S'Colombia'
p3548
sg38
Nsba(i__main__
Player
p3549
(dp3550
g24
(dp3551
g26
Nsg27
I73
sg28
I70
sg29
Nsg30
Nsg31
Nsg32
Nssg5
S'A. Rodr\xc3\xadguez'
p3552
sg34
I28
sg20
Nsg35
Nsg36
S'Colombia'
p3553
sg38
Nsba(i__main__
Player
p3554
(dp3555
g24
(dp3556
g26
Nsg27
I73
sg28
I91
sg29
Nsg30
Nsg31
Nsg32
Nssg5
S'M. Barrios'
p3557
sg34
I26
sg20
Nsg35
Nsg36
S'Colombia'
p3558
sg38
Nsbasg149
I2
sg150
F100.0
sba(i__main__
Team
p3559
(dp3560
g11
Nsg12
I4872137
sg13
I64
sg5
S'Japan'
p3561
sg15
F-155.27863
sg16
I76
sg17
I1
sg18
I55
sg19
I3
sg20
(lp3562
(i__main__
Player
p3563
(dp3564
g24
(dp3565
g26
Nsg27
I83
sg28
I70
sg29
Nsg30
Nsg31
Nsg32
Nssg5
S'S. Kagawa'
p3566
sg34
I28
sg20
Nsg35
Nsg36
S'Japan'
p3567
sg38
Nsba(i__main__
Player
p3568
(dp3569
g24
(dp3570
g26
Nsg27
I78
sg28
I83
sg29
Nsg30
Nsg31
Nsg32
Nssg5
S'T. Inui'
p3571
sg34
I29
sg20
Nsg35
Nsg36
S'Japan'
p3572
sg38
Nsba(i__main__
Player
p3573
(dp3574
g24
(dp3575
g26
Nsg27
I78
sg28
I76
sg29
Nsg30
Nsg31
Nsg32
Nssg5
S'K. Honda'
p3576
sg34
I31
sg20
Nsg35
Nsg36
S'Japan'
p3577
sg38
Nsba(i__main__
Player
p3578
(dp3579
g24
(dp3580
g26
Nsg27
I77
sg28
I74
sg29
Nsg30
Nsg31
Nsg32
Nssg5
S'S. Okazaki'
p3581
sg34
I31
sg20
Nsg35
Nsg36
S'Japan'
p3582
sg38
Nsba(i__main__
Player
p3583
(dp3584
g24
(dp3585
g26
Nsg27
I75
sg28
I85
sg29
Nsg30
Nsg31
Nsg32
Nssg5
S'G. Haraguchi'
p3586
sg34
I26
sg20
Nsg35
Nsg36
S'Japan'
p3587
sg38
Nsba(i__main__
Player
p3588
(dp3589
g24
(dp3590
g26
Nsg27
I75
sg28
I76
sg29
Nsg30
Nsg31
Nsg32
Nssg5
S'H. Sakai'
p3591
sg34
I27
sg20
Nsg35
Nsg36
S'Japan'
p3592
sg38
Nsba(i__main__
Player
p3593
(dp3594
g24
(dp3595
g26
Nsg27
I75
sg28
I61
sg29
Nsg30
Nsg31
Nsg32
Nssg5
S'M. Yoshida'
p3596
sg34
I28
sg20
Nsg35
Nsg36
S'Japan'
p3597
sg38
Nsba(i__main__
Player
p3598
(dp3599
g24
(dp3600
g26
Nsg27
I75
sg28
I71
sg29
Nsg30
Nsg31
Nsg32
Nssg5
S'G. Shibasaki'
p3601
sg34
I25
sg20
Nsg35
Nsg36
S'Japan'
p3602
sg38
Nsba(i__main__
Player
p3603
(dp3604
g24
(dp3605
g26
Nsg27
I74
sg28
I75
sg29
Nsg30
Nsg31
Nsg32
Nssg5
S'G. Sakai'
p3606
sg34
I26
sg20
Nsg35
Nsg36
S'Japan'
p3607
sg38
Nsba(i__main__
Player
p3608
(dp3609
g24
(dp3610
g26
Nsg27
I74
sg28
I77
sg29
Nsg30
Nsg31
Nsg32
Nssg5
S'T. Usami'
p3611
sg34
I25
sg20
Nsg35
Nsg36
S'Japan'
p3612
sg38
Nsba(i__main__
Player
p3613
(dp3614
g24
(dp3615
g26
Nsg27
I73
sg28
I53
sg29
Nsg30
Nsg31
Nsg32
Nssg5
S'K. Nakamura'
p3616
sg34
I36
sg20
Nsg35
Nsg36
S'Japan'
p3617
sg38
Nsbasg89
I70
sg90
(lp3618
(i__main__
Player
p3619
(dp3620
g24
(dp3621
g26
Nsg27
I73
sg28
I83
sg29
Nsg30
Nsg31
Nsg32
Nssg5
S'Y. Nagatomo'
p3622
sg34
I30
sg20
Nsg35
Nsg36
S'Japan'
p3623
sg38
Nsba(i__main__
Player
p3624
(dp3625
g24
(dp3626
g26
Nsg27
I73
sg28
I80
sg29
Nsg30
Nsg31
Nsg32
Nssg5
S'G. Shoji'
p3627
sg34
I24
sg20
Nsg35
Nsg36
S'Japan'
p3628
sg38
Nsba(i__main__
Player
p3629
(dp3630
g24
(dp3631
g26
Nsg27
I72
sg28
I42
sg29
Nsg30
Nsg31
Nsg32
Nssg5
S'E. Kawashima'
p3632
sg34
I34
sg20
Nsg35
Nsg36
S'Japan'
p3633
sg38
Nsba(i__main__
Player
p3634
(dp3635
g24
(dp3636
g26
Nsg27
I72
sg28
I35
sg29
Nsg30
Nsg31
Nsg32
Nssg5
S'Y. Endo'
p3637
sg34
I37
sg20
Nsg35
Nsg36
S'Japan'
p3638
sg38
Nsba(i__main__
Player
p3639
(dp3640
g24
(dp3641
g26
Nsg27
I72
sg28
I33
sg29
Nsg30
Nsg31
Nsg32
Nssg5
S'M. Higashiguchi'
p3642
sg34
I31
sg20
Nsg35
Nsg36
S'Japan'
p3643
sg38
Nsba(i__main__
Player
p3644
(dp3645
g24
(dp3646
g26
Nsg27
I71
sg28
I31
sg29
Nsg30
Nsg31
Nsg32
Nssg5
S'S. Nakamura'
p3647
sg34
I39
sg20
Nsg35
Nsg36
S'Japan'
p3648
sg38
Nsba(i__main__
Player
p3649
(dp3650
g24
(dp3651
g26
Nsg27
I70
sg28
I77
sg29
Nsg30
Nsg31
Nsg32
Nssg5
S'H. Yamaguchi'
p3652
sg34
I26
sg20
Nsg35
Nsg36
S'Japan'
p3653
sg38
Nsba(i__main__
Player
p3654
(dp3655
g24
(dp3656
g26
Nsg27
I70
sg28
I68
sg29
Nsg30
Nsg31
Nsg32
Nssg5
S'N. Ueda'
p3657
sg34
I22
sg20
Nsg35
Nsg36
S'Japan'
p3658
sg38
Nsba(i__main__
Player
p3659
(dp3660
g24
(dp3661
g26
Nsg27
I70
sg28
I66
sg29
Nsg30
Nsg31
Nsg32
Nssg5
S'K. Shibasaki'
p3662
sg34
I32
sg20
Nsg35
Nsg36
S'Japan'
p3663
sg38
Nsba(i__main__
Player
p3664
(dp3665
g24
(dp3666
g26
Nsg27
I69
sg28
I76
sg29
Nsg30
Nsg31
Nsg32
Nssg5
S'W. Endo'
p3667
sg34
I24
sg20
Nsg35
Nsg36
S'Japan'
p3668
sg38
Nsba(i__main__
Player
p3669
(dp3670
g24
(dp3671
g26
Nsg27
I69
sg28
I67
sg29
Nsg30
Nsg31
Nsg32
Nssg5
S'T. Makino'
p3672
sg34
I30
sg20
Nsg35
Nsg36
S'Japan'
p3673
sg38
Nsba(i__main__
Player
p3674
(dp3675
g24
(dp3676
g26
Nsg27
I69
sg28
I28
sg29
Nsg30
Nsg31
Nsg32
Nssg5
S'K. Nakamura'
p3677
sg34
I22
sg20
Nsg35
Nsg36
S'Japan'
p3678
sg38
Nsbasg149
I2
sg150
F350.0
sbasba.